
manip.o:     file format elf64-x86-64


Disassembly of section .text:

0000000000000000 <_ZZ9copy_fileRKNSt7__cxx1112basic_stringIcSt11char_traitsIcESaIcEEES6_bENKUlvE_clEv>:
       0:	55                   	push   %rbp
       1:	48 89 e5             	mov    %rsp,%rbp
       4:	48 83 ec 10          	sub    $0x10,%rsp
       8:	48 89 7d f8          	mov    %rdi,-0x8(%rbp)
       c:	48 8b 45 f8          	mov    -0x8(%rbp),%rax
      10:	8b 00                	mov    (%rax),%eax
      12:	89 c7                	mov    %eax,%edi
      14:	e8 00 00 00 00       	callq  19 <_ZZ9copy_fileRKNSt7__cxx1112basic_stringIcSt11char_traitsIcESaIcEEES6_bENKUlvE_clEv+0x19>
      19:	90                   	nop
      1a:	c9                   	leaveq 
      1b:	c3                   	retq   

000000000000001c <_ZN5scope6detail10scope_exitIZ9copy_fileRKNSt7__cxx1112basic_stringIcSt11char_traitsIcESaIcEEES9_bEUlvE_ED1Ev>:
      1c:	55                   	push   %rbp
      1d:	48 89 e5             	mov    %rsp,%rbp
      20:	48 83 ec 10          	sub    $0x10,%rsp
      24:	48 89 7d f8          	mov    %rdi,-0x8(%rbp)
      28:	48 8b 45 f8          	mov    -0x8(%rbp),%rax
      2c:	48 89 c7             	mov    %rax,%rdi
      2f:	e8 8c 24 00 00       	callq  24c0 <_ZN5scope6detail11scope_guardIZ9copy_fileRKNSt7__cxx1112basic_stringIcSt11char_traitsIcESaIcEEES9_bEUlvE_NS0_13strategy_exitEED2Ev>
      34:	90                   	nop
      35:	c9                   	leaveq 
      36:	c3                   	retq   
      37:	90                   	nop

0000000000000038 <_ZZ9copy_fileRKNSt7__cxx1112basic_stringIcSt11char_traitsIcESaIcEEES6_bENKUlvE0_clEv>:
      38:	55                   	push   %rbp
      39:	48 89 e5             	mov    %rsp,%rbp
      3c:	48 83 ec 10          	sub    $0x10,%rsp
      40:	48 89 7d f8          	mov    %rdi,-0x8(%rbp)
      44:	48 8b 45 f8          	mov    -0x8(%rbp),%rax
      48:	8b 00                	mov    (%rax),%eax
      4a:	89 c7                	mov    %eax,%edi
      4c:	e8 00 00 00 00       	callq  51 <_ZZ9copy_fileRKNSt7__cxx1112basic_stringIcSt11char_traitsIcESaIcEEES6_bENKUlvE0_clEv+0x19>
      51:	90                   	nop
      52:	c9                   	leaveq 
      53:	c3                   	retq   

0000000000000054 <_ZN5scope6detail10scope_exitIZ9copy_fileRKNSt7__cxx1112basic_stringIcSt11char_traitsIcESaIcEEES9_bEUlvE0_ED1Ev>:
      54:	55                   	push   %rbp
      55:	48 89 e5             	mov    %rsp,%rbp
      58:	48 83 ec 10          	sub    $0x10,%rsp
      5c:	48 89 7d f8          	mov    %rdi,-0x8(%rbp)
      60:	48 8b 45 f8          	mov    -0x8(%rbp),%rax
      64:	48 89 c7             	mov    %rax,%rdi
      67:	e8 00 25 00 00       	callq  256c <_ZN5scope6detail11scope_guardIZ9copy_fileRKNSt7__cxx1112basic_stringIcSt11char_traitsIcESaIcEEES9_bEUlvE0_NS0_13strategy_exitEED2Ev>
      6c:	90                   	nop
      6d:	c9                   	leaveq 
      6e:	c3                   	retq   

000000000000006f <_Z9copy_fileRKNSt7__cxx1112basic_stringIcSt11char_traitsIcESaIcEEES6_b>:
      6f:	f3 0f 1e fa          	endbr64 
      73:	55                   	push   %rbp
      74:	48 89 e5             	mov    %rsp,%rbp
      77:	41 54                	push   %r12
      79:	53                   	push   %rbx
      7a:	48 81 ec 40 02 00 00 	sub    $0x240,%rsp
      81:	48 89 bd c8 fd ff ff 	mov    %rdi,-0x238(%rbp)
      88:	48 89 b5 c0 fd ff ff 	mov    %rsi,-0x240(%rbp)
      8f:	89 d0                	mov    %edx,%eax
      91:	88 85 bc fd ff ff    	mov    %al,-0x244(%rbp)
      97:	64 48 8b 04 25 28 00 	mov    %fs:0x28,%rax
      9e:	00 00 
      a0:	48 89 45 e8          	mov    %rax,-0x18(%rbp)
      a4:	31 c0                	xor    %eax,%eax
      a6:	48 8b 85 c8 fd ff ff 	mov    -0x238(%rbp),%rax
      ad:	48 89 c7             	mov    %rax,%rdi
      b0:	e8 00 00 00 00       	callq  b5 <_Z9copy_fileRKNSt7__cxx1112basic_stringIcSt11char_traitsIcESaIcEEES6_b+0x46>
      b5:	48 89 c2             	mov    %rax,%rdx
      b8:	48 8d 85 c0 fe ff ff 	lea    -0x140(%rbp),%rax
      bf:	48 89 c6             	mov    %rax,%rsi
      c2:	48 89 d7             	mov    %rdx,%rdi
      c5:	e8 00 00 00 00       	callq  ca <_Z9copy_fileRKNSt7__cxx1112basic_stringIcSt11char_traitsIcESaIcEEES6_b+0x5b>
      ca:	83 f8 ff             	cmp    $0xffffffff,%eax
      cd:	0f 94 c0             	sete   %al
      d0:	84 c0                	test   %al,%al
      d2:	0f 84 10 01 00 00    	je     1e8 <_Z9copy_fileRKNSt7__cxx1112basic_stringIcSt11char_traitsIcESaIcEEES6_b+0x179>
      d8:	bf 20 00 00 00       	mov    $0x20,%edi
      dd:	e8 00 00 00 00       	callq  e2 <_Z9copy_fileRKNSt7__cxx1112basic_stringIcSt11char_traitsIcESaIcEEES6_b+0x73>
      e2:	48 89 c3             	mov    %rax,%rbx
      e5:	48 8d 85 a0 fe ff ff 	lea    -0x160(%rbp),%rax
      ec:	be 08 00 00 00       	mov    $0x8,%esi
      f1:	48 89 c7             	mov    %rax,%rdi
      f4:	e8 00 00 00 00       	callq  f9 <_Z9copy_fileRKNSt7__cxx1112basic_stringIcSt11char_traitsIcESaIcEEES6_b+0x8a>
      f9:	48 8d 85 00 fe ff ff 	lea    -0x200(%rbp),%rax
     100:	48 89 c7             	mov    %rax,%rdi
     103:	e8 00 00 00 00       	callq  108 <_Z9copy_fileRKNSt7__cxx1112basic_stringIcSt11char_traitsIcESaIcEEES6_b+0x99>
     108:	48 8d 95 00 fe ff ff 	lea    -0x200(%rbp),%rdx
     10f:	48 8d 85 60 fe ff ff 	lea    -0x1a0(%rbp),%rax
     116:	48 8d 35 00 00 00 00 	lea    0x0(%rip),%rsi        # 11d <_Z9copy_fileRKNSt7__cxx1112basic_stringIcSt11char_traitsIcESaIcEEES6_b+0xae>
     11d:	48 89 c7             	mov    %rax,%rdi
     120:	e8 00 00 00 00       	callq  125 <_Z9copy_fileRKNSt7__cxx1112basic_stringIcSt11char_traitsIcESaIcEEES6_b+0xb6>
     125:	48 8d 85 80 fe ff ff 	lea    -0x180(%rbp),%rax
     12c:	48 8d 8d 60 fe ff ff 	lea    -0x1a0(%rbp),%rcx
     133:	48 8d 15 00 00 00 00 	lea    0x0(%rip),%rdx        # 13a <_Z9copy_fileRKNSt7__cxx1112basic_stringIcSt11char_traitsIcESaIcEEES6_b+0xcb>
     13a:	48 89 ce             	mov    %rcx,%rsi
     13d:	48 89 c7             	mov    %rax,%rdi
     140:	e8 00 00 00 00       	callq  145 <_Z9copy_fileRKNSt7__cxx1112basic_stringIcSt11char_traitsIcESaIcEEES6_b+0xd6>
     145:	48 8d 85 50 ff ff ff 	lea    -0xb0(%rbp),%rax
     14c:	48 8d 95 a0 fe ff ff 	lea    -0x160(%rbp),%rdx
     153:	48 8d 8d 80 fe ff ff 	lea    -0x180(%rbp),%rcx
     15a:	48 89 ce             	mov    %rcx,%rsi
     15d:	48 89 c7             	mov    %rax,%rdi
     160:	e8 00 00 00 00       	callq  165 <_Z9copy_fileRKNSt7__cxx1112basic_stringIcSt11char_traitsIcESaIcEEES6_b+0xf6>
     165:	e8 00 00 00 00       	callq  16a <_Z9copy_fileRKNSt7__cxx1112basic_stringIcSt11char_traitsIcESaIcEEES6_b+0xfb>
     16a:	48 89 c2             	mov    %rax,%rdx
     16d:	48 8d 85 50 ff ff ff 	lea    -0xb0(%rbp),%rax
     174:	48 89 c1             	mov    %rax,%rcx
     177:	be 02 00 00 00       	mov    $0x2,%esi
     17c:	48 89 df             	mov    %rbx,%rdi
     17f:	e8 00 00 00 00       	callq  184 <_Z9copy_fileRKNSt7__cxx1112basic_stringIcSt11char_traitsIcESaIcEEES6_b+0x115>
     184:	48 8d 85 50 ff ff ff 	lea    -0xb0(%rbp),%rax
     18b:	48 89 c7             	mov    %rax,%rdi
     18e:	e8 00 00 00 00       	callq  193 <_Z9copy_fileRKNSt7__cxx1112basic_stringIcSt11char_traitsIcESaIcEEES6_b+0x124>
     193:	48 8d 85 80 fe ff ff 	lea    -0x180(%rbp),%rax
     19a:	48 89 c7             	mov    %rax,%rdi
     19d:	e8 00 00 00 00       	callq  1a2 <_Z9copy_fileRKNSt7__cxx1112basic_stringIcSt11char_traitsIcESaIcEEES6_b+0x133>
     1a2:	48 8d 85 60 fe ff ff 	lea    -0x1a0(%rbp),%rax
     1a9:	48 89 c7             	mov    %rax,%rdi
     1ac:	e8 00 00 00 00       	callq  1b1 <_Z9copy_fileRKNSt7__cxx1112basic_stringIcSt11char_traitsIcESaIcEEES6_b+0x142>
     1b1:	48 8d 85 00 fe ff ff 	lea    -0x200(%rbp),%rax
     1b8:	48 89 c7             	mov    %rax,%rdi
     1bb:	e8 00 00 00 00       	callq  1c0 <_Z9copy_fileRKNSt7__cxx1112basic_stringIcSt11char_traitsIcESaIcEEES6_b+0x151>
     1c0:	48 8d 85 a0 fe ff ff 	lea    -0x160(%rbp),%rax
     1c7:	48 89 c7             	mov    %rax,%rdi
     1ca:	e8 00 00 00 00       	callq  1cf <_Z9copy_fileRKNSt7__cxx1112basic_stringIcSt11char_traitsIcESaIcEEES6_b+0x160>
     1cf:	48 8b 05 00 00 00 00 	mov    0x0(%rip),%rax        # 1d6 <_Z9copy_fileRKNSt7__cxx1112basic_stringIcSt11char_traitsIcESaIcEEES6_b+0x167>
     1d6:	48 89 c2             	mov    %rax,%rdx
     1d9:	48 8d 35 00 00 00 00 	lea    0x0(%rip),%rsi        # 1e0 <_Z9copy_fileRKNSt7__cxx1112basic_stringIcSt11char_traitsIcESaIcEEES6_b+0x171>
     1e0:	48 89 df             	mov    %rbx,%rdi
     1e3:	e8 00 00 00 00       	callq  1e8 <_Z9copy_fileRKNSt7__cxx1112basic_stringIcSt11char_traitsIcESaIcEEES6_b+0x179>
     1e8:	8b 85 d8 fe ff ff    	mov    -0x128(%rbp),%eax
     1ee:	25 00 f0 00 00       	and    $0xf000,%eax
     1f3:	3d 00 80 00 00       	cmp    $0x8000,%eax
     1f8:	0f 84 10 01 00 00    	je     30e <_Z9copy_fileRKNSt7__cxx1112basic_stringIcSt11char_traitsIcESaIcEEES6_b+0x29f>
     1fe:	bf 20 00 00 00       	mov    $0x20,%edi
     203:	e8 00 00 00 00       	callq  208 <_Z9copy_fileRKNSt7__cxx1112basic_stringIcSt11char_traitsIcESaIcEEES6_b+0x199>
     208:	48 89 c3             	mov    %rax,%rbx
     20b:	48 8d 85 a0 fe ff ff 	lea    -0x160(%rbp),%rax
     212:	be 0c 00 00 00       	mov    $0xc,%esi
     217:	48 89 c7             	mov    %rax,%rdi
     21a:	e8 00 00 00 00       	callq  21f <_Z9copy_fileRKNSt7__cxx1112basic_stringIcSt11char_traitsIcESaIcEEES6_b+0x1b0>
     21f:	48 8d 85 00 fe ff ff 	lea    -0x200(%rbp),%rax
     226:	48 89 c7             	mov    %rax,%rdi
     229:	e8 00 00 00 00       	callq  22e <_Z9copy_fileRKNSt7__cxx1112basic_stringIcSt11char_traitsIcESaIcEEES6_b+0x1bf>
     22e:	48 8d 95 00 fe ff ff 	lea    -0x200(%rbp),%rdx
     235:	48 8d 85 60 fe ff ff 	lea    -0x1a0(%rbp),%rax
     23c:	48 8d 35 00 00 00 00 	lea    0x0(%rip),%rsi        # 243 <_Z9copy_fileRKNSt7__cxx1112basic_stringIcSt11char_traitsIcESaIcEEES6_b+0x1d4>
     243:	48 89 c7             	mov    %rax,%rdi
     246:	e8 00 00 00 00       	callq  24b <_Z9copy_fileRKNSt7__cxx1112basic_stringIcSt11char_traitsIcESaIcEEES6_b+0x1dc>
     24b:	48 8d 85 80 fe ff ff 	lea    -0x180(%rbp),%rax
     252:	48 8d 8d 60 fe ff ff 	lea    -0x1a0(%rbp),%rcx
     259:	48 8d 15 00 00 00 00 	lea    0x0(%rip),%rdx        # 260 <_Z9copy_fileRKNSt7__cxx1112basic_stringIcSt11char_traitsIcESaIcEEES6_b+0x1f1>
     260:	48 89 ce             	mov    %rcx,%rsi
     263:	48 89 c7             	mov    %rax,%rdi
     266:	e8 00 00 00 00       	callq  26b <_Z9copy_fileRKNSt7__cxx1112basic_stringIcSt11char_traitsIcESaIcEEES6_b+0x1fc>
     26b:	48 8d 85 50 ff ff ff 	lea    -0xb0(%rbp),%rax
     272:	48 8d 95 a0 fe ff ff 	lea    -0x160(%rbp),%rdx
     279:	48 8d 8d 80 fe ff ff 	lea    -0x180(%rbp),%rcx
     280:	48 89 ce             	mov    %rcx,%rsi
     283:	48 89 c7             	mov    %rax,%rdi
     286:	e8 00 00 00 00       	callq  28b <_Z9copy_fileRKNSt7__cxx1112basic_stringIcSt11char_traitsIcESaIcEEES6_b+0x21c>
     28b:	e8 00 00 00 00       	callq  290 <_Z9copy_fileRKNSt7__cxx1112basic_stringIcSt11char_traitsIcESaIcEEES6_b+0x221>
     290:	48 89 c2             	mov    %rax,%rdx
     293:	48 8d 85 50 ff ff ff 	lea    -0xb0(%rbp),%rax
     29a:	48 89 c1             	mov    %rax,%rcx
     29d:	be 15 00 00 00       	mov    $0x15,%esi
     2a2:	48 89 df             	mov    %rbx,%rdi
     2a5:	e8 00 00 00 00       	callq  2aa <_Z9copy_fileRKNSt7__cxx1112basic_stringIcSt11char_traitsIcESaIcEEES6_b+0x23b>
     2aa:	48 8d 85 50 ff ff ff 	lea    -0xb0(%rbp),%rax
     2b1:	48 89 c7             	mov    %rax,%rdi
     2b4:	e8 00 00 00 00       	callq  2b9 <_Z9copy_fileRKNSt7__cxx1112basic_stringIcSt11char_traitsIcESaIcEEES6_b+0x24a>
     2b9:	48 8d 85 80 fe ff ff 	lea    -0x180(%rbp),%rax
     2c0:	48 89 c7             	mov    %rax,%rdi
     2c3:	e8 00 00 00 00       	callq  2c8 <_Z9copy_fileRKNSt7__cxx1112basic_stringIcSt11char_traitsIcESaIcEEES6_b+0x259>
     2c8:	48 8d 85 60 fe ff ff 	lea    -0x1a0(%rbp),%rax
     2cf:	48 89 c7             	mov    %rax,%rdi
     2d2:	e8 00 00 00 00       	callq  2d7 <_Z9copy_fileRKNSt7__cxx1112basic_stringIcSt11char_traitsIcESaIcEEES6_b+0x268>
     2d7:	48 8d 85 00 fe ff ff 	lea    -0x200(%rbp),%rax
     2de:	48 89 c7             	mov    %rax,%rdi
     2e1:	e8 00 00 00 00       	callq  2e6 <_Z9copy_fileRKNSt7__cxx1112basic_stringIcSt11char_traitsIcESaIcEEES6_b+0x277>
     2e6:	48 8d 85 a0 fe ff ff 	lea    -0x160(%rbp),%rax
     2ed:	48 89 c7             	mov    %rax,%rdi
     2f0:	e8 00 00 00 00       	callq  2f5 <_Z9copy_fileRKNSt7__cxx1112basic_stringIcSt11char_traitsIcESaIcEEES6_b+0x286>
     2f5:	48 8b 05 00 00 00 00 	mov    0x0(%rip),%rax        # 2fc <_Z9copy_fileRKNSt7__cxx1112basic_stringIcSt11char_traitsIcESaIcEEES6_b+0x28d>
     2fc:	48 89 c2             	mov    %rax,%rdx
     2ff:	48 8d 35 00 00 00 00 	lea    0x0(%rip),%rsi        # 306 <_Z9copy_fileRKNSt7__cxx1112basic_stringIcSt11char_traitsIcESaIcEEES6_b+0x297>
     306:	48 89 df             	mov    %rbx,%rdi
     309:	e8 00 00 00 00       	callq  30e <_Z9copy_fileRKNSt7__cxx1112basic_stringIcSt11char_traitsIcESaIcEEES6_b+0x29f>
     30e:	48 8b 95 c0 fd ff ff 	mov    -0x240(%rbp),%rdx
     315:	48 8d 85 20 fe ff ff 	lea    -0x1e0(%rbp),%rax
     31c:	48 89 d6             	mov    %rdx,%rsi
     31f:	48 89 c7             	mov    %rax,%rdi
     322:	e8 00 00 00 00       	callq  327 <_Z9copy_fileRKNSt7__cxx1112basic_stringIcSt11char_traitsIcESaIcEEES6_b+0x2b8>
     327:	48 8b 85 c0 fd ff ff 	mov    -0x240(%rbp),%rax
     32e:	48 89 c7             	mov    %rax,%rdi
     331:	e8 00 00 00 00       	callq  336 <_Z9copy_fileRKNSt7__cxx1112basic_stringIcSt11char_traitsIcESaIcEEES6_b+0x2c7>
     336:	48 89 c2             	mov    %rax,%rdx
     339:	48 8d 85 50 ff ff ff 	lea    -0xb0(%rbp),%rax
     340:	48 89 c6             	mov    %rax,%rsi
     343:	48 89 d7             	mov    %rdx,%rdi
     346:	e8 00 00 00 00       	callq  34b <_Z9copy_fileRKNSt7__cxx1112basic_stringIcSt11char_traitsIcESaIcEEES6_b+0x2dc>
     34b:	85 c0                	test   %eax,%eax
     34d:	0f 94 c0             	sete   %al
     350:	84 c0                	test   %al,%al
     352:	0f 84 38 02 00 00    	je     590 <_Z9copy_fileRKNSt7__cxx1112basic_stringIcSt11char_traitsIcESaIcEEES6_b+0x521>
     358:	48 8b 95 c8 fe ff ff 	mov    -0x138(%rbp),%rdx
     35f:	48 8b 85 58 ff ff ff 	mov    -0xa8(%rbp),%rax
     366:	48 39 c2             	cmp    %rax,%rdx
     369:	0f 85 10 01 00 00    	jne    47f <_Z9copy_fileRKNSt7__cxx1112basic_stringIcSt11char_traitsIcESaIcEEES6_b+0x410>
     36f:	bf 20 00 00 00       	mov    $0x20,%edi
     374:	e8 00 00 00 00       	callq  379 <_Z9copy_fileRKNSt7__cxx1112basic_stringIcSt11char_traitsIcESaIcEEES6_b+0x30a>
     379:	48 89 c3             	mov    %rax,%rbx
     37c:	48 8d 85 80 fe ff ff 	lea    -0x180(%rbp),%rax
     383:	be 15 00 00 00       	mov    $0x15,%esi
     388:	48 89 c7             	mov    %rax,%rdi
     38b:	e8 00 00 00 00       	callq  390 <_Z9copy_fileRKNSt7__cxx1112basic_stringIcSt11char_traitsIcESaIcEEES6_b+0x321>
     390:	48 8d 85 00 fe ff ff 	lea    -0x200(%rbp),%rax
     397:	48 89 c7             	mov    %rax,%rdi
     39a:	e8 00 00 00 00       	callq  39f <_Z9copy_fileRKNSt7__cxx1112basic_stringIcSt11char_traitsIcESaIcEEES6_b+0x330>
     39f:	48 8d 95 00 fe ff ff 	lea    -0x200(%rbp),%rdx
     3a6:	48 8d 85 40 fe ff ff 	lea    -0x1c0(%rbp),%rax
     3ad:	48 8d 35 00 00 00 00 	lea    0x0(%rip),%rsi        # 3b4 <_Z9copy_fileRKNSt7__cxx1112basic_stringIcSt11char_traitsIcESaIcEEES6_b+0x345>
     3b4:	48 89 c7             	mov    %rax,%rdi
     3b7:	e8 00 00 00 00       	callq  3bc <_Z9copy_fileRKNSt7__cxx1112basic_stringIcSt11char_traitsIcESaIcEEES6_b+0x34d>
     3bc:	48 8d 85 60 fe ff ff 	lea    -0x1a0(%rbp),%rax
     3c3:	48 8d 8d 40 fe ff ff 	lea    -0x1c0(%rbp),%rcx
     3ca:	48 8d 15 00 00 00 00 	lea    0x0(%rip),%rdx        # 3d1 <_Z9copy_fileRKNSt7__cxx1112basic_stringIcSt11char_traitsIcESaIcEEES6_b+0x362>
     3d1:	48 89 ce             	mov    %rcx,%rsi
     3d4:	48 89 c7             	mov    %rax,%rdi
     3d7:	e8 00 00 00 00       	callq  3dc <_Z9copy_fileRKNSt7__cxx1112basic_stringIcSt11char_traitsIcESaIcEEES6_b+0x36d>
     3dc:	48 8d 85 a0 fe ff ff 	lea    -0x160(%rbp),%rax
     3e3:	48 8d 95 80 fe ff ff 	lea    -0x180(%rbp),%rdx
     3ea:	48 8d 8d 60 fe ff ff 	lea    -0x1a0(%rbp),%rcx
     3f1:	48 89 ce             	mov    %rcx,%rsi
     3f4:	48 89 c7             	mov    %rax,%rdi
     3f7:	e8 00 00 00 00       	callq  3fc <_Z9copy_fileRKNSt7__cxx1112basic_stringIcSt11char_traitsIcESaIcEEES6_b+0x38d>
     3fc:	e8 00 00 00 00       	callq  401 <_Z9copy_fileRKNSt7__cxx1112basic_stringIcSt11char_traitsIcESaIcEEES6_b+0x392>
     401:	48 89 c2             	mov    %rax,%rdx
     404:	48 8d 85 a0 fe ff ff 	lea    -0x160(%rbp),%rax
     40b:	48 89 c1             	mov    %rax,%rcx
     40e:	be 11 00 00 00       	mov    $0x11,%esi
     413:	48 89 df             	mov    %rbx,%rdi
     416:	e8 00 00 00 00       	callq  41b <_Z9copy_fileRKNSt7__cxx1112basic_stringIcSt11char_traitsIcESaIcEEES6_b+0x3ac>
     41b:	48 8d 85 a0 fe ff ff 	lea    -0x160(%rbp),%rax
     422:	48 89 c7             	mov    %rax,%rdi
     425:	e8 00 00 00 00       	callq  42a <_Z9copy_fileRKNSt7__cxx1112basic_stringIcSt11char_traitsIcESaIcEEES6_b+0x3bb>
     42a:	48 8d 85 60 fe ff ff 	lea    -0x1a0(%rbp),%rax
     431:	48 89 c7             	mov    %rax,%rdi
     434:	e8 00 00 00 00       	callq  439 <_Z9copy_fileRKNSt7__cxx1112basic_stringIcSt11char_traitsIcESaIcEEES6_b+0x3ca>
     439:	48 8d 85 40 fe ff ff 	lea    -0x1c0(%rbp),%rax
     440:	48 89 c7             	mov    %rax,%rdi
     443:	e8 00 00 00 00       	callq  448 <_Z9copy_fileRKNSt7__cxx1112basic_stringIcSt11char_traitsIcESaIcEEES6_b+0x3d9>
     448:	48 8d 85 00 fe ff ff 	lea    -0x200(%rbp),%rax
     44f:	48 89 c7             	mov    %rax,%rdi
     452:	e8 00 00 00 00       	callq  457 <_Z9copy_fileRKNSt7__cxx1112basic_stringIcSt11char_traitsIcESaIcEEES6_b+0x3e8>
     457:	48 8d 85 80 fe ff ff 	lea    -0x180(%rbp),%rax
     45e:	48 89 c7             	mov    %rax,%rdi
     461:	e8 00 00 00 00       	callq  466 <_Z9copy_fileRKNSt7__cxx1112basic_stringIcSt11char_traitsIcESaIcEEES6_b+0x3f7>
     466:	48 8b 05 00 00 00 00 	mov    0x0(%rip),%rax        # 46d <_Z9copy_fileRKNSt7__cxx1112basic_stringIcSt11char_traitsIcESaIcEEES6_b+0x3fe>
     46d:	48 89 c2             	mov    %rax,%rdx
     470:	48 8d 35 00 00 00 00 	lea    0x0(%rip),%rsi        # 477 <_Z9copy_fileRKNSt7__cxx1112basic_stringIcSt11char_traitsIcESaIcEEES6_b+0x408>
     477:	48 89 df             	mov    %rbx,%rdi
     47a:	e8 00 00 00 00       	callq  47f <_Z9copy_fileRKNSt7__cxx1112basic_stringIcSt11char_traitsIcESaIcEEES6_b+0x410>
     47f:	8b 85 68 ff ff ff    	mov    -0x98(%rbp),%eax
     485:	25 00 f0 00 00       	and    $0xf000,%eax
     48a:	3d 00 40 00 00       	cmp    $0x4000,%eax
     48f:	0f 85 fb 00 00 00    	jne    590 <_Z9copy_fileRKNSt7__cxx1112basic_stringIcSt11char_traitsIcESaIcEEES6_b+0x521>
     495:	48 8b 95 c8 fd ff ff 	mov    -0x238(%rbp),%rdx
     49c:	48 8d 85 60 fe ff ff 	lea    -0x1a0(%rbp),%rax
     4a3:	48 89 d6             	mov    %rdx,%rsi
     4a6:	48 89 c7             	mov    %rax,%rdi
     4a9:	e8 00 00 00 00       	callq  4ae <_Z9copy_fileRKNSt7__cxx1112basic_stringIcSt11char_traitsIcESaIcEEES6_b+0x43f>
     4ae:	48 8d 85 00 fe ff ff 	lea    -0x200(%rbp),%rax
     4b5:	48 89 c7             	mov    %rax,%rdi
     4b8:	e8 00 00 00 00       	callq  4bd <_Z9copy_fileRKNSt7__cxx1112basic_stringIcSt11char_traitsIcESaIcEEES6_b+0x44e>
     4bd:	48 8d 85 60 fe ff ff 	lea    -0x1a0(%rbp),%rax
     4c4:	48 89 c7             	mov    %rax,%rdi
     4c7:	e8 00 00 00 00       	callq  4cc <_Z9copy_fileRKNSt7__cxx1112basic_stringIcSt11char_traitsIcESaIcEEES6_b+0x45d>
     4cc:	48 89 c7             	mov    %rax,%rdi
     4cf:	e8 00 00 00 00       	callq  4d4 <_Z9copy_fileRKNSt7__cxx1112basic_stringIcSt11char_traitsIcESaIcEEES6_b+0x465>
     4d4:	48 89 c1             	mov    %rax,%rcx
     4d7:	48 8d 95 00 fe ff ff 	lea    -0x200(%rbp),%rdx
     4de:	48 8d 85 80 fe ff ff 	lea    -0x180(%rbp),%rax
     4e5:	48 89 ce             	mov    %rcx,%rsi
     4e8:	48 89 c7             	mov    %rax,%rdi
     4eb:	e8 00 00 00 00       	callq  4f0 <_Z9copy_fileRKNSt7__cxx1112basic_stringIcSt11char_traitsIcESaIcEEES6_b+0x481>
     4f0:	48 8d 85 00 fe ff ff 	lea    -0x200(%rbp),%rax
     4f7:	48 89 c7             	mov    %rax,%rdi
     4fa:	e8 00 00 00 00       	callq  4ff <_Z9copy_fileRKNSt7__cxx1112basic_stringIcSt11char_traitsIcESaIcEEES6_b+0x490>
     4ff:	48 8d 85 a0 fe ff ff 	lea    -0x160(%rbp),%rax
     506:	48 8d 95 80 fe ff ff 	lea    -0x180(%rbp),%rdx
     50d:	48 8b 8d c0 fd ff ff 	mov    -0x240(%rbp),%rcx
     514:	48 89 ce             	mov    %rcx,%rsi
     517:	48 89 c7             	mov    %rax,%rdi
     51a:	e8 00 00 00 00       	callq  51f <_Z9copy_fileRKNSt7__cxx1112basic_stringIcSt11char_traitsIcESaIcEEES6_b+0x4b0>
     51f:	48 8d 95 a0 fe ff ff 	lea    -0x160(%rbp),%rdx
     526:	48 8d 85 20 fe ff ff 	lea    -0x1e0(%rbp),%rax
     52d:	48 89 d6             	mov    %rdx,%rsi
     530:	48 89 c7             	mov    %rax,%rdi
     533:	e8 00 00 00 00       	callq  538 <_Z9copy_fileRKNSt7__cxx1112basic_stringIcSt11char_traitsIcESaIcEEES6_b+0x4c9>
     538:	48 8d 85 a0 fe ff ff 	lea    -0x160(%rbp),%rax
     53f:	48 89 c7             	mov    %rax,%rdi
     542:	e8 00 00 00 00       	callq  547 <_Z9copy_fileRKNSt7__cxx1112basic_stringIcSt11char_traitsIcESaIcEEES6_b+0x4d8>
     547:	48 8d 85 20 fe ff ff 	lea    -0x1e0(%rbp),%rax
     54e:	48 89 c6             	mov    %rax,%rsi
     551:	48 8d 3d 00 00 00 00 	lea    0x0(%rip),%rdi        # 558 <_Z9copy_fileRKNSt7__cxx1112basic_stringIcSt11char_traitsIcESaIcEEES6_b+0x4e9>
     558:	e8 00 00 00 00       	callq  55d <_Z9copy_fileRKNSt7__cxx1112basic_stringIcSt11char_traitsIcESaIcEEES6_b+0x4ee>
     55d:	48 89 c2             	mov    %rax,%rdx
     560:	48 8b 05 00 00 00 00 	mov    0x0(%rip),%rax        # 567 <_Z9copy_fileRKNSt7__cxx1112basic_stringIcSt11char_traitsIcESaIcEEES6_b+0x4f8>
     567:	48 89 c6             	mov    %rax,%rsi
     56a:	48 89 d7             	mov    %rdx,%rdi
     56d:	e8 00 00 00 00       	callq  572 <_Z9copy_fileRKNSt7__cxx1112basic_stringIcSt11char_traitsIcESaIcEEES6_b+0x503>
     572:	48 8d 85 80 fe ff ff 	lea    -0x180(%rbp),%rax
     579:	48 89 c7             	mov    %rax,%rdi
     57c:	e8 00 00 00 00       	callq  581 <_Z9copy_fileRKNSt7__cxx1112basic_stringIcSt11char_traitsIcESaIcEEES6_b+0x512>
     581:	48 8d 85 60 fe ff ff 	lea    -0x1a0(%rbp),%rax
     588:	48 89 c7             	mov    %rax,%rdi
     58b:	e8 00 00 00 00       	callq  590 <_Z9copy_fileRKNSt7__cxx1112basic_stringIcSt11char_traitsIcESaIcEEES6_b+0x521>
     590:	48 8b 85 c8 fd ff ff 	mov    -0x238(%rbp),%rax
     597:	48 89 c7             	mov    %rax,%rdi
     59a:	e8 00 00 00 00       	callq  59f <_Z9copy_fileRKNSt7__cxx1112basic_stringIcSt11char_traitsIcESaIcEEES6_b+0x530>
     59f:	be 00 00 00 00       	mov    $0x0,%esi
     5a4:	48 89 c7             	mov    %rax,%rdi
     5a7:	b8 00 00 00 00       	mov    $0x0,%eax
     5ac:	e8 00 00 00 00       	callq  5b1 <_Z9copy_fileRKNSt7__cxx1112basic_stringIcSt11char_traitsIcESaIcEEES6_b+0x542>
     5b1:	89 85 e0 fd ff ff    	mov    %eax,-0x220(%rbp)
     5b7:	83 bd e0 fd ff ff 00 	cmpl   $0x0,-0x220(%rbp)
     5be:	0f 89 10 01 00 00    	jns    6d4 <_Z9copy_fileRKNSt7__cxx1112basic_stringIcSt11char_traitsIcESaIcEEES6_b+0x665>
     5c4:	bf 20 00 00 00       	mov    $0x20,%edi
     5c9:	e8 00 00 00 00       	callq  5ce <_Z9copy_fileRKNSt7__cxx1112basic_stringIcSt11char_traitsIcESaIcEEES6_b+0x55f>
     5ce:	48 89 c3             	mov    %rax,%rbx
     5d1:	48 8d 85 80 fe ff ff 	lea    -0x180(%rbp),%rax
     5d8:	be 22 00 00 00       	mov    $0x22,%esi
     5dd:	48 89 c7             	mov    %rax,%rdi
     5e0:	e8 00 00 00 00       	callq  5e5 <_Z9copy_fileRKNSt7__cxx1112basic_stringIcSt11char_traitsIcESaIcEEES6_b+0x576>
     5e5:	48 8d 85 00 fe ff ff 	lea    -0x200(%rbp),%rax
     5ec:	48 89 c7             	mov    %rax,%rdi
     5ef:	e8 00 00 00 00       	callq  5f4 <_Z9copy_fileRKNSt7__cxx1112basic_stringIcSt11char_traitsIcESaIcEEES6_b+0x585>
     5f4:	48 8d 95 00 fe ff ff 	lea    -0x200(%rbp),%rdx
     5fb:	48 8d 85 40 fe ff ff 	lea    -0x1c0(%rbp),%rax
     602:	48 8d 35 00 00 00 00 	lea    0x0(%rip),%rsi        # 609 <_Z9copy_fileRKNSt7__cxx1112basic_stringIcSt11char_traitsIcESaIcEEES6_b+0x59a>
     609:	48 89 c7             	mov    %rax,%rdi
     60c:	e8 00 00 00 00       	callq  611 <_Z9copy_fileRKNSt7__cxx1112basic_stringIcSt11char_traitsIcESaIcEEES6_b+0x5a2>
     611:	48 8d 85 60 fe ff ff 	lea    -0x1a0(%rbp),%rax
     618:	48 8d 8d 40 fe ff ff 	lea    -0x1c0(%rbp),%rcx
     61f:	48 8d 15 00 00 00 00 	lea    0x0(%rip),%rdx        # 626 <_Z9copy_fileRKNSt7__cxx1112basic_stringIcSt11char_traitsIcESaIcEEES6_b+0x5b7>
     626:	48 89 ce             	mov    %rcx,%rsi
     629:	48 89 c7             	mov    %rax,%rdi
     62c:	e8 00 00 00 00       	callq  631 <_Z9copy_fileRKNSt7__cxx1112basic_stringIcSt11char_traitsIcESaIcEEES6_b+0x5c2>
     631:	48 8d 85 a0 fe ff ff 	lea    -0x160(%rbp),%rax
     638:	48 8d 95 80 fe ff ff 	lea    -0x180(%rbp),%rdx
     63f:	48 8d 8d 60 fe ff ff 	lea    -0x1a0(%rbp),%rcx
     646:	48 89 ce             	mov    %rcx,%rsi
     649:	48 89 c7             	mov    %rax,%rdi
     64c:	e8 00 00 00 00       	callq  651 <_Z9copy_fileRKNSt7__cxx1112basic_stringIcSt11char_traitsIcESaIcEEES6_b+0x5e2>
     651:	e8 00 00 00 00       	callq  656 <_Z9copy_fileRKNSt7__cxx1112basic_stringIcSt11char_traitsIcESaIcEEES6_b+0x5e7>
     656:	48 89 c2             	mov    %rax,%rdx
     659:	48 8d 85 a0 fe ff ff 	lea    -0x160(%rbp),%rax
     660:	48 89 c1             	mov    %rax,%rcx
     663:	be 0d 00 00 00       	mov    $0xd,%esi
     668:	48 89 df             	mov    %rbx,%rdi
     66b:	e8 00 00 00 00       	callq  670 <_Z9copy_fileRKNSt7__cxx1112basic_stringIcSt11char_traitsIcESaIcEEES6_b+0x601>
     670:	48 8d 85 a0 fe ff ff 	lea    -0x160(%rbp),%rax
     677:	48 89 c7             	mov    %rax,%rdi
     67a:	e8 00 00 00 00       	callq  67f <_Z9copy_fileRKNSt7__cxx1112basic_stringIcSt11char_traitsIcESaIcEEES6_b+0x610>
     67f:	48 8d 85 60 fe ff ff 	lea    -0x1a0(%rbp),%rax
     686:	48 89 c7             	mov    %rax,%rdi
     689:	e8 00 00 00 00       	callq  68e <_Z9copy_fileRKNSt7__cxx1112basic_stringIcSt11char_traitsIcESaIcEEES6_b+0x61f>
     68e:	48 8d 85 40 fe ff ff 	lea    -0x1c0(%rbp),%rax
     695:	48 89 c7             	mov    %rax,%rdi
     698:	e8 00 00 00 00       	callq  69d <_Z9copy_fileRKNSt7__cxx1112basic_stringIcSt11char_traitsIcESaIcEEES6_b+0x62e>
     69d:	48 8d 85 00 fe ff ff 	lea    -0x200(%rbp),%rax
     6a4:	48 89 c7             	mov    %rax,%rdi
     6a7:	e8 00 00 00 00       	callq  6ac <_Z9copy_fileRKNSt7__cxx1112basic_stringIcSt11char_traitsIcESaIcEEES6_b+0x63d>
     6ac:	48 8d 85 80 fe ff ff 	lea    -0x180(%rbp),%rax
     6b3:	48 89 c7             	mov    %rax,%rdi
     6b6:	e8 00 00 00 00       	callq  6bb <_Z9copy_fileRKNSt7__cxx1112basic_stringIcSt11char_traitsIcESaIcEEES6_b+0x64c>
     6bb:	48 8b 05 00 00 00 00 	mov    0x0(%rip),%rax        # 6c2 <_Z9copy_fileRKNSt7__cxx1112basic_stringIcSt11char_traitsIcESaIcEEES6_b+0x653>
     6c2:	48 89 c2             	mov    %rax,%rdx
     6c5:	48 8d 35 00 00 00 00 	lea    0x0(%rip),%rsi        # 6cc <_Z9copy_fileRKNSt7__cxx1112basic_stringIcSt11char_traitsIcESaIcEEES6_b+0x65d>
     6cc:	48 89 df             	mov    %rbx,%rdi
     6cf:	e8 00 00 00 00       	callq  6d4 <_Z9copy_fileRKNSt7__cxx1112basic_stringIcSt11char_traitsIcESaIcEEES6_b+0x665>
     6d4:	8b 85 e0 fd ff ff    	mov    -0x220(%rbp),%eax
     6da:	89 85 00 fe ff ff    	mov    %eax,-0x200(%rbp)
     6e0:	48 8d 85 f0 fd ff ff 	lea    -0x210(%rbp),%rax
     6e7:	48 8d 95 00 fe ff ff 	lea    -0x200(%rbp),%rdx
     6ee:	48 89 d6             	mov    %rdx,%rsi
     6f1:	48 89 c7             	mov    %rax,%rdi
     6f4:	e8 8f 1d 00 00       	callq  2488 <_ZN5scope6detail15make_scope_exitIZ9copy_fileRKNSt7__cxx1112basic_stringIcSt11char_traitsIcESaIcEEES9_bEUlvE_EENS0_10scope_exitIT_EEOSC_>
     6f9:	48 8d 85 20 fe ff ff 	lea    -0x1e0(%rbp),%rax
     700:	48 89 c7             	mov    %rax,%rdi
     703:	e8 00 00 00 00       	callq  708 <_Z9copy_fileRKNSt7__cxx1112basic_stringIcSt11char_traitsIcESaIcEEES6_b+0x699>
     708:	ba b6 01 00 00       	mov    $0x1b6,%edx
     70d:	be 41 02 00 00       	mov    $0x241,%esi
     712:	48 89 c7             	mov    %rax,%rdi
     715:	b8 00 00 00 00       	mov    $0x0,%eax
     71a:	e8 00 00 00 00       	callq  71f <_Z9copy_fileRKNSt7__cxx1112basic_stringIcSt11char_traitsIcESaIcEEES6_b+0x6b0>
     71f:	89 85 e4 fd ff ff    	mov    %eax,-0x21c(%rbp)
     725:	83 bd e4 fd ff ff 00 	cmpl   $0x0,-0x21c(%rbp)
     72c:	0f 89 10 01 00 00    	jns    842 <_Z9copy_fileRKNSt7__cxx1112basic_stringIcSt11char_traitsIcESaIcEEES6_b+0x7d3>
     732:	bf 20 00 00 00       	mov    $0x20,%edi
     737:	e8 00 00 00 00       	callq  73c <_Z9copy_fileRKNSt7__cxx1112basic_stringIcSt11char_traitsIcESaIcEEES6_b+0x6cd>
     73c:	48 89 c3             	mov    %rax,%rbx
     73f:	48 8d 85 80 fe ff ff 	lea    -0x180(%rbp),%rax
     746:	be 28 00 00 00       	mov    $0x28,%esi
     74b:	48 89 c7             	mov    %rax,%rdi
     74e:	e8 00 00 00 00       	callq  753 <_Z9copy_fileRKNSt7__cxx1112basic_stringIcSt11char_traitsIcESaIcEEES6_b+0x6e4>
     753:	48 8d 85 00 fe ff ff 	lea    -0x200(%rbp),%rax
     75a:	48 89 c7             	mov    %rax,%rdi
     75d:	e8 00 00 00 00       	callq  762 <_Z9copy_fileRKNSt7__cxx1112basic_stringIcSt11char_traitsIcESaIcEEES6_b+0x6f3>
     762:	48 8d 95 00 fe ff ff 	lea    -0x200(%rbp),%rdx
     769:	48 8d 85 40 fe ff ff 	lea    -0x1c0(%rbp),%rax
     770:	48 8d 35 00 00 00 00 	lea    0x0(%rip),%rsi        # 777 <_Z9copy_fileRKNSt7__cxx1112basic_stringIcSt11char_traitsIcESaIcEEES6_b+0x708>
     777:	48 89 c7             	mov    %rax,%rdi
     77a:	e8 00 00 00 00       	callq  77f <_Z9copy_fileRKNSt7__cxx1112basic_stringIcSt11char_traitsIcESaIcEEES6_b+0x710>
     77f:	48 8d 85 60 fe ff ff 	lea    -0x1a0(%rbp),%rax
     786:	48 8d 8d 40 fe ff ff 	lea    -0x1c0(%rbp),%rcx
     78d:	48 8d 15 00 00 00 00 	lea    0x0(%rip),%rdx        # 794 <_Z9copy_fileRKNSt7__cxx1112basic_stringIcSt11char_traitsIcESaIcEEES6_b+0x725>
     794:	48 89 ce             	mov    %rcx,%rsi
     797:	48 89 c7             	mov    %rax,%rdi
     79a:	e8 00 00 00 00       	callq  79f <_Z9copy_fileRKNSt7__cxx1112basic_stringIcSt11char_traitsIcESaIcEEES6_b+0x730>
     79f:	48 8d 85 a0 fe ff ff 	lea    -0x160(%rbp),%rax
     7a6:	48 8d 95 80 fe ff ff 	lea    -0x180(%rbp),%rdx
     7ad:	48 8d 8d 60 fe ff ff 	lea    -0x1a0(%rbp),%rcx
     7b4:	48 89 ce             	mov    %rcx,%rsi
     7b7:	48 89 c7             	mov    %rax,%rdi
     7ba:	e8 00 00 00 00       	callq  7bf <_Z9copy_fileRKNSt7__cxx1112basic_stringIcSt11char_traitsIcESaIcEEES6_b+0x750>
     7bf:	e8 00 00 00 00       	callq  7c4 <_Z9copy_fileRKNSt7__cxx1112basic_stringIcSt11char_traitsIcESaIcEEES6_b+0x755>
     7c4:	48 89 c2             	mov    %rax,%rdx
     7c7:	48 8d 85 a0 fe ff ff 	lea    -0x160(%rbp),%rax
     7ce:	48 89 c1             	mov    %rax,%rcx
     7d1:	be 0d 00 00 00       	mov    $0xd,%esi
     7d6:	48 89 df             	mov    %rbx,%rdi
     7d9:	e8 00 00 00 00       	callq  7de <_Z9copy_fileRKNSt7__cxx1112basic_stringIcSt11char_traitsIcESaIcEEES6_b+0x76f>
     7de:	48 8d 85 a0 fe ff ff 	lea    -0x160(%rbp),%rax
     7e5:	48 89 c7             	mov    %rax,%rdi
     7e8:	e8 00 00 00 00       	callq  7ed <_Z9copy_fileRKNSt7__cxx1112basic_stringIcSt11char_traitsIcESaIcEEES6_b+0x77e>
     7ed:	48 8d 85 60 fe ff ff 	lea    -0x1a0(%rbp),%rax
     7f4:	48 89 c7             	mov    %rax,%rdi
     7f7:	e8 00 00 00 00       	callq  7fc <_Z9copy_fileRKNSt7__cxx1112basic_stringIcSt11char_traitsIcESaIcEEES6_b+0x78d>
     7fc:	48 8d 85 40 fe ff ff 	lea    -0x1c0(%rbp),%rax
     803:	48 89 c7             	mov    %rax,%rdi
     806:	e8 00 00 00 00       	callq  80b <_Z9copy_fileRKNSt7__cxx1112basic_stringIcSt11char_traitsIcESaIcEEES6_b+0x79c>
     80b:	48 8d 85 00 fe ff ff 	lea    -0x200(%rbp),%rax
     812:	48 89 c7             	mov    %rax,%rdi
     815:	e8 00 00 00 00       	callq  81a <_Z9copy_fileRKNSt7__cxx1112basic_stringIcSt11char_traitsIcESaIcEEES6_b+0x7ab>
     81a:	48 8d 85 80 fe ff ff 	lea    -0x180(%rbp),%rax
     821:	48 89 c7             	mov    %rax,%rdi
     824:	e8 00 00 00 00       	callq  829 <_Z9copy_fileRKNSt7__cxx1112basic_stringIcSt11char_traitsIcESaIcEEES6_b+0x7ba>
     829:	48 8b 05 00 00 00 00 	mov    0x0(%rip),%rax        # 830 <_Z9copy_fileRKNSt7__cxx1112basic_stringIcSt11char_traitsIcESaIcEEES6_b+0x7c1>
     830:	48 89 c2             	mov    %rax,%rdx
     833:	48 8d 35 00 00 00 00 	lea    0x0(%rip),%rsi        # 83a <_Z9copy_fileRKNSt7__cxx1112basic_stringIcSt11char_traitsIcESaIcEEES6_b+0x7cb>
     83a:	48 89 df             	mov    %rbx,%rdi
     83d:	e8 00 00 00 00       	callq  842 <_Z9copy_fileRKNSt7__cxx1112basic_stringIcSt11char_traitsIcESaIcEEES6_b+0x7d3>
     842:	8b 85 e4 fd ff ff    	mov    -0x21c(%rbp),%eax
     848:	89 85 00 fe ff ff    	mov    %eax,-0x200(%rbp)
     84e:	48 8d 85 f8 fd ff ff 	lea    -0x208(%rbp),%rax
     855:	48 8d 95 00 fe ff ff 	lea    -0x200(%rbp),%rdx
     85c:	48 89 d6             	mov    %rdx,%rsi
     85f:	48 89 c7             	mov    %rax,%rdi
     862:	e8 cd 1c 00 00       	callq  2534 <_ZN5scope6detail15make_scope_exitIZ9copy_fileRKNSt7__cxx1112basic_stringIcSt11char_traitsIcESaIcEEES9_bEUlvE0_EENS0_10scope_exitIT_EEOSC_>
     867:	48 8d 85 df fd ff ff 	lea    -0x221(%rbp),%rax
     86e:	48 89 c7             	mov    %rax,%rdi
     871:	e8 00 00 00 00       	callq  876 <_Z9copy_fileRKNSt7__cxx1112basic_stringIcSt11char_traitsIcESaIcEEES6_b+0x807>
     876:	48 8d 95 df fd ff ff 	lea    -0x221(%rbp),%rdx
     87d:	48 8d 85 00 fe ff ff 	lea    -0x200(%rbp),%rax
     884:	be 00 00 00 01       	mov    $0x1000000,%esi
     889:	48 89 c7             	mov    %rax,%rdi
     88c:	e8 00 00 00 00       	callq  891 <_Z9copy_fileRKNSt7__cxx1112basic_stringIcSt11char_traitsIcESaIcEEES6_b+0x822>
     891:	48 8d 85 df fd ff ff 	lea    -0x221(%rbp),%rax
     898:	48 89 c7             	mov    %rax,%rdi
     89b:	e8 00 00 00 00       	callq  8a0 <_Z9copy_fileRKNSt7__cxx1112basic_stringIcSt11char_traitsIcESaIcEEES6_b+0x831>
     8a0:	48 8d 85 00 fe ff ff 	lea    -0x200(%rbp),%rax
     8a7:	48 89 c7             	mov    %rax,%rdi
     8aa:	e8 00 00 00 00       	callq  8af <_Z9copy_fileRKNSt7__cxx1112basic_stringIcSt11char_traitsIcESaIcEEES6_b+0x840>
     8af:	48 89 c3             	mov    %rax,%rbx
     8b2:	48 8d 85 00 fe ff ff 	lea    -0x200(%rbp),%rax
     8b9:	48 89 c7             	mov    %rax,%rdi
     8bc:	e8 00 00 00 00       	callq  8c1 <_Z9copy_fileRKNSt7__cxx1112basic_stringIcSt11char_traitsIcESaIcEEES6_b+0x852>
     8c1:	48 89 c1             	mov    %rax,%rcx
     8c4:	8b 85 e0 fd ff ff    	mov    -0x220(%rbp),%eax
     8ca:	48 89 da             	mov    %rbx,%rdx
     8cd:	48 89 ce             	mov    %rcx,%rsi
     8d0:	89 c7                	mov    %eax,%edi
     8d2:	e8 00 00 00 00       	callq  8d7 <_Z9copy_fileRKNSt7__cxx1112basic_stringIcSt11char_traitsIcESaIcEEES6_b+0x868>
     8d7:	48 89 85 e8 fd ff ff 	mov    %rax,-0x218(%rbp)
     8de:	48 83 bd e8 fd ff ff 	cmpq   $0x0,-0x218(%rbp)
     8e5:	00 
     8e6:	0f 9f c0             	setg   %al
     8e9:	84 c0                	test   %al,%al
     8eb:	0f 84 93 00 00 00    	je     984 <_Z9copy_fileRKNSt7__cxx1112basic_stringIcSt11char_traitsIcESaIcEEES6_b+0x915>
     8f1:	48 8b 9d e8 fd ff ff 	mov    -0x218(%rbp),%rbx
     8f8:	48 8d 85 00 fe ff ff 	lea    -0x200(%rbp),%rax
     8ff:	48 89 c7             	mov    %rax,%rdi
     902:	e8 00 00 00 00       	callq  907 <_Z9copy_fileRKNSt7__cxx1112basic_stringIcSt11char_traitsIcESaIcEEES6_b+0x898>
     907:	48 89 c1             	mov    %rax,%rcx
     90a:	8b 85 e4 fd ff ff    	mov    -0x21c(%rbp),%eax
     910:	48 89 da             	mov    %rbx,%rdx
     913:	48 89 ce             	mov    %rcx,%rsi
     916:	89 c7                	mov    %eax,%edi
     918:	e8 00 00 00 00       	callq  91d <_Z9copy_fileRKNSt7__cxx1112basic_stringIcSt11char_traitsIcESaIcEEES6_b+0x8ae>
     91d:	48 39 85 e8 fd ff ff 	cmp    %rax,-0x218(%rbp)
     924:	0f 95 c0             	setne  %al
     927:	84 c0                	test   %al,%al
     929:	74 3b                	je     966 <_Z9copy_fileRKNSt7__cxx1112basic_stringIcSt11char_traitsIcESaIcEEES6_b+0x8f7>
     92b:	bf 20 00 00 00       	mov    $0x20,%edi
     930:	e8 00 00 00 00       	callq  935 <_Z9copy_fileRKNSt7__cxx1112basic_stringIcSt11char_traitsIcESaIcEEES6_b+0x8c6>
     935:	48 89 c3             	mov    %rax,%rbx
     938:	e8 00 00 00 00       	callq  93d <_Z9copy_fileRKNSt7__cxx1112basic_stringIcSt11char_traitsIcESaIcEEES6_b+0x8ce>
     93d:	48 89 c2             	mov    %rax,%rdx
     940:	be 1c 00 00 00       	mov    $0x1c,%esi
     945:	48 89 df             	mov    %rbx,%rdi
     948:	e8 00 00 00 00       	callq  94d <_Z9copy_fileRKNSt7__cxx1112basic_stringIcSt11char_traitsIcESaIcEEES6_b+0x8de>
     94d:	48 8b 05 00 00 00 00 	mov    0x0(%rip),%rax        # 954 <_Z9copy_fileRKNSt7__cxx1112basic_stringIcSt11char_traitsIcESaIcEEES6_b+0x8e5>
     954:	48 89 c2             	mov    %rax,%rdx
     957:	48 8d 35 00 00 00 00 	lea    0x0(%rip),%rsi        # 95e <_Z9copy_fileRKNSt7__cxx1112basic_stringIcSt11char_traitsIcESaIcEEES6_b+0x8ef>
     95e:	48 89 df             	mov    %rbx,%rdi
     961:	e8 00 00 00 00       	callq  966 <_Z9copy_fileRKNSt7__cxx1112basic_stringIcSt11char_traitsIcESaIcEEES6_b+0x8f7>
     966:	48 8b 95 e8 fd ff ff 	mov    -0x218(%rbp),%rdx
     96d:	48 8d 85 00 fe ff ff 	lea    -0x200(%rbp),%rax
     974:	48 89 d6             	mov    %rdx,%rsi
     977:	48 89 c7             	mov    %rax,%rdi
     97a:	e8 00 00 00 00       	callq  97f <_Z9copy_fileRKNSt7__cxx1112basic_stringIcSt11char_traitsIcESaIcEEES6_b+0x910>
     97f:	e9 1c ff ff ff       	jmpq   8a0 <_Z9copy_fileRKNSt7__cxx1112basic_stringIcSt11char_traitsIcESaIcEEES6_b+0x831>
     984:	48 83 bd e8 fd ff ff 	cmpq   $0xffffffffffffffff,-0x218(%rbp)
     98b:	ff 
     98c:	75 42                	jne    9d0 <_Z9copy_fileRKNSt7__cxx1112basic_stringIcSt11char_traitsIcESaIcEEES6_b+0x961>
     98e:	bf 20 00 00 00       	mov    $0x20,%edi
     993:	e8 00 00 00 00       	callq  998 <_Z9copy_fileRKNSt7__cxx1112basic_stringIcSt11char_traitsIcESaIcEEES6_b+0x929>
     998:	48 89 c3             	mov    %rax,%rbx
     99b:	e8 00 00 00 00       	callq  9a0 <_Z9copy_fileRKNSt7__cxx1112basic_stringIcSt11char_traitsIcESaIcEEES6_b+0x931>
     9a0:	49 89 c4             	mov    %rax,%r12
     9a3:	e8 00 00 00 00       	callq  9a8 <_Z9copy_fileRKNSt7__cxx1112basic_stringIcSt11char_traitsIcESaIcEEES6_b+0x939>
     9a8:	8b 00                	mov    (%rax),%eax
     9aa:	4c 89 e2             	mov    %r12,%rdx
     9ad:	89 c6                	mov    %eax,%esi
     9af:	48 89 df             	mov    %rbx,%rdi
     9b2:	e8 00 00 00 00       	callq  9b7 <_Z9copy_fileRKNSt7__cxx1112basic_stringIcSt11char_traitsIcESaIcEEES6_b+0x948>
     9b7:	48 8b 05 00 00 00 00 	mov    0x0(%rip),%rax        # 9be <_Z9copy_fileRKNSt7__cxx1112basic_stringIcSt11char_traitsIcESaIcEEES6_b+0x94f>
     9be:	48 89 c2             	mov    %rax,%rdx
     9c1:	48 8d 35 00 00 00 00 	lea    0x0(%rip),%rsi        # 9c8 <_Z9copy_fileRKNSt7__cxx1112basic_stringIcSt11char_traitsIcESaIcEEES6_b+0x959>
     9c8:	48 89 df             	mov    %rbx,%rdi
     9cb:	e8 00 00 00 00       	callq  9d0 <_Z9copy_fileRKNSt7__cxx1112basic_stringIcSt11char_traitsIcESaIcEEES6_b+0x961>
     9d0:	48 8d 85 00 fe ff ff 	lea    -0x200(%rbp),%rax
     9d7:	48 89 c7             	mov    %rax,%rdi
     9da:	e8 00 00 00 00       	callq  9df <_Z9copy_fileRKNSt7__cxx1112basic_stringIcSt11char_traitsIcESaIcEEES6_b+0x970>
     9df:	48 8d 85 f8 fd ff ff 	lea    -0x208(%rbp),%rax
     9e6:	48 89 c7             	mov    %rax,%rdi
     9e9:	e8 66 f6 ff ff       	callq  54 <_ZN5scope6detail10scope_exitIZ9copy_fileRKNSt7__cxx1112basic_stringIcSt11char_traitsIcESaIcEEES9_bEUlvE0_ED1Ev>
     9ee:	48 8d 85 f0 fd ff ff 	lea    -0x210(%rbp),%rax
     9f5:	48 89 c7             	mov    %rax,%rdi
     9f8:	e8 1f f6 ff ff       	callq  1c <_ZN5scope6detail10scope_exitIZ9copy_fileRKNSt7__cxx1112basic_stringIcSt11char_traitsIcESaIcEEES9_bEUlvE_ED1Ev>
     9fd:	80 bd bc fd ff ff 00 	cmpb   $0x0,-0x244(%rbp)
     a04:	0f 84 90 00 00 00    	je     a9a <_Z9copy_fileRKNSt7__cxx1112basic_stringIcSt11char_traitsIcESaIcEEES6_b+0xa2b>
     a0a:	8b 9d d8 fe ff ff    	mov    -0x128(%rbp),%ebx
     a10:	48 8d 85 20 fe ff ff 	lea    -0x1e0(%rbp),%rax
     a17:	48 89 c7             	mov    %rax,%rdi
     a1a:	e8 00 00 00 00       	callq  a1f <_Z9copy_fileRKNSt7__cxx1112basic_stringIcSt11char_traitsIcESaIcEEES6_b+0x9b0>
     a1f:	89 de                	mov    %ebx,%esi
     a21:	48 89 c7             	mov    %rax,%rdi
     a24:	e8 00 00 00 00       	callq  a29 <_Z9copy_fileRKNSt7__cxx1112basic_stringIcSt11char_traitsIcESaIcEEES6_b+0x9ba>
     a29:	44 8b a5 e0 fe ff ff 	mov    -0x120(%rbp),%r12d
     a30:	8b 9d dc fe ff ff    	mov    -0x124(%rbp),%ebx
     a36:	48 8d 85 20 fe ff ff 	lea    -0x1e0(%rbp),%rax
     a3d:	48 89 c7             	mov    %rax,%rdi
     a40:	e8 00 00 00 00       	callq  a45 <_Z9copy_fileRKNSt7__cxx1112basic_stringIcSt11char_traitsIcESaIcEEES6_b+0x9d6>
     a45:	44 89 e2             	mov    %r12d,%edx
     a48:	89 de                	mov    %ebx,%esi
     a4a:	48 89 c7             	mov    %rax,%rdi
     a4d:	e8 00 00 00 00       	callq  a52 <_Z9copy_fileRKNSt7__cxx1112basic_stringIcSt11char_traitsIcESaIcEEES6_b+0x9e3>
     a52:	48 8b 85 c8 fd ff ff 	mov    -0x238(%rbp),%rax
     a59:	48 89 c7             	mov    %rax,%rdi
     a5c:	e8 00 00 00 00       	callq  a61 <_Z9copy_fileRKNSt7__cxx1112basic_stringIcSt11char_traitsIcESaIcEEES6_b+0x9f2>
     a61:	48 89 c2             	mov    %rax,%rdx
     a64:	48 8d 85 00 fe ff ff 	lea    -0x200(%rbp),%rax
     a6b:	48 89 c6             	mov    %rax,%rsi
     a6e:	48 89 d7             	mov    %rdx,%rdi
     a71:	e8 00 00 00 00       	callq  a76 <_Z9copy_fileRKNSt7__cxx1112basic_stringIcSt11char_traitsIcESaIcEEES6_b+0xa07>
     a76:	48 8d 85 20 fe ff ff 	lea    -0x1e0(%rbp),%rax
     a7d:	48 89 c7             	mov    %rax,%rdi
     a80:	e8 00 00 00 00       	callq  a85 <_Z9copy_fileRKNSt7__cxx1112basic_stringIcSt11char_traitsIcESaIcEEES6_b+0xa16>
     a85:	48 89 c2             	mov    %rax,%rdx
     a88:	48 8d 85 00 fe ff ff 	lea    -0x200(%rbp),%rax
     a8f:	48 89 c6             	mov    %rax,%rsi
     a92:	48 89 d7             	mov    %rdx,%rdi
     a95:	e8 00 00 00 00       	callq  a9a <_Z9copy_fileRKNSt7__cxx1112basic_stringIcSt11char_traitsIcESaIcEEES6_b+0xa2b>
     a9a:	48 8d 85 20 fe ff ff 	lea    -0x1e0(%rbp),%rax
     aa1:	48 89 c7             	mov    %rax,%rdi
     aa4:	e8 00 00 00 00       	callq  aa9 <_Z9copy_fileRKNSt7__cxx1112basic_stringIcSt11char_traitsIcESaIcEEES6_b+0xa3a>
     aa9:	90                   	nop
     aaa:	48 8b 45 e8          	mov    -0x18(%rbp),%rax
     aae:	64 48 33 04 25 28 00 	xor    %fs:0x28,%rax
     ab5:	00 00 
     ab7:	0f 84 8d 03 00 00    	je     e4a <_Z9copy_fileRKNSt7__cxx1112basic_stringIcSt11char_traitsIcESaIcEEES6_b+0xddb>
     abd:	e9 83 03 00 00       	jmpq   e45 <_Z9copy_fileRKNSt7__cxx1112basic_stringIcSt11char_traitsIcESaIcEEES6_b+0xdd6>
     ac2:	f3 0f 1e fa          	endbr64 
     ac6:	49 89 c4             	mov    %rax,%r12
     ac9:	48 8d 85 50 ff ff ff 	lea    -0xb0(%rbp),%rax
     ad0:	48 89 c7             	mov    %rax,%rdi
     ad3:	e8 00 00 00 00       	callq  ad8 <_Z9copy_fileRKNSt7__cxx1112basic_stringIcSt11char_traitsIcESaIcEEES6_b+0xa69>
     ad8:	eb 07                	jmp    ae1 <_Z9copy_fileRKNSt7__cxx1112basic_stringIcSt11char_traitsIcESaIcEEES6_b+0xa72>
     ada:	f3 0f 1e fa          	endbr64 
     ade:	49 89 c4             	mov    %rax,%r12
     ae1:	48 8d 85 80 fe ff ff 	lea    -0x180(%rbp),%rax
     ae8:	48 89 c7             	mov    %rax,%rdi
     aeb:	e8 00 00 00 00       	callq  af0 <_Z9copy_fileRKNSt7__cxx1112basic_stringIcSt11char_traitsIcESaIcEEES6_b+0xa81>
     af0:	eb 07                	jmp    af9 <_Z9copy_fileRKNSt7__cxx1112basic_stringIcSt11char_traitsIcESaIcEEES6_b+0xa8a>
     af2:	f3 0f 1e fa          	endbr64 
     af6:	49 89 c4             	mov    %rax,%r12
     af9:	48 8d 85 60 fe ff ff 	lea    -0x1a0(%rbp),%rax
     b00:	48 89 c7             	mov    %rax,%rdi
     b03:	e8 00 00 00 00       	callq  b08 <_Z9copy_fileRKNSt7__cxx1112basic_stringIcSt11char_traitsIcESaIcEEES6_b+0xa99>
     b08:	eb 07                	jmp    b11 <_Z9copy_fileRKNSt7__cxx1112basic_stringIcSt11char_traitsIcESaIcEEES6_b+0xaa2>
     b0a:	f3 0f 1e fa          	endbr64 
     b0e:	49 89 c4             	mov    %rax,%r12
     b11:	48 8d 85 00 fe ff ff 	lea    -0x200(%rbp),%rax
     b18:	48 89 c7             	mov    %rax,%rdi
     b1b:	e8 00 00 00 00       	callq  b20 <_Z9copy_fileRKNSt7__cxx1112basic_stringIcSt11char_traitsIcESaIcEEES6_b+0xab1>
     b20:	48 8d 85 a0 fe ff ff 	lea    -0x160(%rbp),%rax
     b27:	48 89 c7             	mov    %rax,%rdi
     b2a:	e8 00 00 00 00       	callq  b2f <_Z9copy_fileRKNSt7__cxx1112basic_stringIcSt11char_traitsIcESaIcEEES6_b+0xac0>
     b2f:	eb 07                	jmp    b38 <_Z9copy_fileRKNSt7__cxx1112basic_stringIcSt11char_traitsIcESaIcEEES6_b+0xac9>
     b31:	f3 0f 1e fa          	endbr64 
     b35:	49 89 c4             	mov    %rax,%r12
     b38:	48 89 df             	mov    %rbx,%rdi
     b3b:	e8 00 00 00 00       	callq  b40 <_Z9copy_fileRKNSt7__cxx1112basic_stringIcSt11char_traitsIcESaIcEEES6_b+0xad1>
     b40:	4c 89 e0             	mov    %r12,%rax
     b43:	48 89 c7             	mov    %rax,%rdi
     b46:	e8 00 00 00 00       	callq  b4b <_Z9copy_fileRKNSt7__cxx1112basic_stringIcSt11char_traitsIcESaIcEEES6_b+0xadc>
     b4b:	f3 0f 1e fa          	endbr64 
     b4f:	49 89 c4             	mov    %rax,%r12
     b52:	48 8d 85 50 ff ff ff 	lea    -0xb0(%rbp),%rax
     b59:	48 89 c7             	mov    %rax,%rdi
     b5c:	e8 00 00 00 00       	callq  b61 <_Z9copy_fileRKNSt7__cxx1112basic_stringIcSt11char_traitsIcESaIcEEES6_b+0xaf2>
     b61:	eb 07                	jmp    b6a <_Z9copy_fileRKNSt7__cxx1112basic_stringIcSt11char_traitsIcESaIcEEES6_b+0xafb>
     b63:	f3 0f 1e fa          	endbr64 
     b67:	49 89 c4             	mov    %rax,%r12
     b6a:	48 8d 85 80 fe ff ff 	lea    -0x180(%rbp),%rax
     b71:	48 89 c7             	mov    %rax,%rdi
     b74:	e8 00 00 00 00       	callq  b79 <_Z9copy_fileRKNSt7__cxx1112basic_stringIcSt11char_traitsIcESaIcEEES6_b+0xb0a>
     b79:	eb 07                	jmp    b82 <_Z9copy_fileRKNSt7__cxx1112basic_stringIcSt11char_traitsIcESaIcEEES6_b+0xb13>
     b7b:	f3 0f 1e fa          	endbr64 
     b7f:	49 89 c4             	mov    %rax,%r12
     b82:	48 8d 85 60 fe ff ff 	lea    -0x1a0(%rbp),%rax
     b89:	48 89 c7             	mov    %rax,%rdi
     b8c:	e8 00 00 00 00       	callq  b91 <_Z9copy_fileRKNSt7__cxx1112basic_stringIcSt11char_traitsIcESaIcEEES6_b+0xb22>
     b91:	eb 07                	jmp    b9a <_Z9copy_fileRKNSt7__cxx1112basic_stringIcSt11char_traitsIcESaIcEEES6_b+0xb2b>
     b93:	f3 0f 1e fa          	endbr64 
     b97:	49 89 c4             	mov    %rax,%r12
     b9a:	48 8d 85 00 fe ff ff 	lea    -0x200(%rbp),%rax
     ba1:	48 89 c7             	mov    %rax,%rdi
     ba4:	e8 00 00 00 00       	callq  ba9 <_Z9copy_fileRKNSt7__cxx1112basic_stringIcSt11char_traitsIcESaIcEEES6_b+0xb3a>
     ba9:	48 8d 85 a0 fe ff ff 	lea    -0x160(%rbp),%rax
     bb0:	48 89 c7             	mov    %rax,%rdi
     bb3:	e8 00 00 00 00       	callq  bb8 <_Z9copy_fileRKNSt7__cxx1112basic_stringIcSt11char_traitsIcESaIcEEES6_b+0xb49>
     bb8:	eb 07                	jmp    bc1 <_Z9copy_fileRKNSt7__cxx1112basic_stringIcSt11char_traitsIcESaIcEEES6_b+0xb52>
     bba:	f3 0f 1e fa          	endbr64 
     bbe:	49 89 c4             	mov    %rax,%r12
     bc1:	48 89 df             	mov    %rbx,%rdi
     bc4:	e8 00 00 00 00       	callq  bc9 <_Z9copy_fileRKNSt7__cxx1112basic_stringIcSt11char_traitsIcESaIcEEES6_b+0xb5a>
     bc9:	4c 89 e0             	mov    %r12,%rax
     bcc:	48 89 c7             	mov    %rax,%rdi
     bcf:	e8 00 00 00 00       	callq  bd4 <_Z9copy_fileRKNSt7__cxx1112basic_stringIcSt11char_traitsIcESaIcEEES6_b+0xb65>
     bd4:	f3 0f 1e fa          	endbr64 
     bd8:	49 89 c4             	mov    %rax,%r12
     bdb:	48 8d 85 a0 fe ff ff 	lea    -0x160(%rbp),%rax
     be2:	48 89 c7             	mov    %rax,%rdi
     be5:	e8 00 00 00 00       	callq  bea <_Z9copy_fileRKNSt7__cxx1112basic_stringIcSt11char_traitsIcESaIcEEES6_b+0xb7b>
     bea:	eb 07                	jmp    bf3 <_Z9copy_fileRKNSt7__cxx1112basic_stringIcSt11char_traitsIcESaIcEEES6_b+0xb84>
     bec:	f3 0f 1e fa          	endbr64 
     bf0:	49 89 c4             	mov    %rax,%r12
     bf3:	48 8d 85 60 fe ff ff 	lea    -0x1a0(%rbp),%rax
     bfa:	48 89 c7             	mov    %rax,%rdi
     bfd:	e8 00 00 00 00       	callq  c02 <_Z9copy_fileRKNSt7__cxx1112basic_stringIcSt11char_traitsIcESaIcEEES6_b+0xb93>
     c02:	eb 07                	jmp    c0b <_Z9copy_fileRKNSt7__cxx1112basic_stringIcSt11char_traitsIcESaIcEEES6_b+0xb9c>
     c04:	f3 0f 1e fa          	endbr64 
     c08:	49 89 c4             	mov    %rax,%r12
     c0b:	48 8d 85 40 fe ff ff 	lea    -0x1c0(%rbp),%rax
     c12:	48 89 c7             	mov    %rax,%rdi
     c15:	e8 00 00 00 00       	callq  c1a <_Z9copy_fileRKNSt7__cxx1112basic_stringIcSt11char_traitsIcESaIcEEES6_b+0xbab>
     c1a:	eb 07                	jmp    c23 <_Z9copy_fileRKNSt7__cxx1112basic_stringIcSt11char_traitsIcESaIcEEES6_b+0xbb4>
     c1c:	f3 0f 1e fa          	endbr64 
     c20:	49 89 c4             	mov    %rax,%r12
     c23:	48 8d 85 00 fe ff ff 	lea    -0x200(%rbp),%rax
     c2a:	48 89 c7             	mov    %rax,%rdi
     c2d:	e8 00 00 00 00       	callq  c32 <_Z9copy_fileRKNSt7__cxx1112basic_stringIcSt11char_traitsIcESaIcEEES6_b+0xbc3>
     c32:	48 8d 85 80 fe ff ff 	lea    -0x180(%rbp),%rax
     c39:	48 89 c7             	mov    %rax,%rdi
     c3c:	e8 00 00 00 00       	callq  c41 <_Z9copy_fileRKNSt7__cxx1112basic_stringIcSt11char_traitsIcESaIcEEES6_b+0xbd2>
     c41:	eb 07                	jmp    c4a <_Z9copy_fileRKNSt7__cxx1112basic_stringIcSt11char_traitsIcESaIcEEES6_b+0xbdb>
     c43:	f3 0f 1e fa          	endbr64 
     c47:	49 89 c4             	mov    %rax,%r12
     c4a:	48 89 df             	mov    %rbx,%rdi
     c4d:	e8 00 00 00 00       	callq  c52 <_Z9copy_fileRKNSt7__cxx1112basic_stringIcSt11char_traitsIcESaIcEEES6_b+0xbe3>
     c52:	4c 89 e3             	mov    %r12,%rbx
     c55:	e9 d1 01 00 00       	jmpq   e2b <_Z9copy_fileRKNSt7__cxx1112basic_stringIcSt11char_traitsIcESaIcEEES6_b+0xdbc>
     c5a:	f3 0f 1e fa          	endbr64 
     c5e:	48 89 c3             	mov    %rax,%rbx
     c61:	48 8d 85 00 fe ff ff 	lea    -0x200(%rbp),%rax
     c68:	48 89 c7             	mov    %rax,%rdi
     c6b:	e8 00 00 00 00       	callq  c70 <_Z9copy_fileRKNSt7__cxx1112basic_stringIcSt11char_traitsIcESaIcEEES6_b+0xc01>
     c70:	eb 16                	jmp    c88 <_Z9copy_fileRKNSt7__cxx1112basic_stringIcSt11char_traitsIcESaIcEEES6_b+0xc19>
     c72:	f3 0f 1e fa          	endbr64 
     c76:	48 89 c3             	mov    %rax,%rbx
     c79:	48 8d 85 80 fe ff ff 	lea    -0x180(%rbp),%rax
     c80:	48 89 c7             	mov    %rax,%rdi
     c83:	e8 00 00 00 00       	callq  c88 <_Z9copy_fileRKNSt7__cxx1112basic_stringIcSt11char_traitsIcESaIcEEES6_b+0xc19>
     c88:	48 8d 85 60 fe ff ff 	lea    -0x1a0(%rbp),%rax
     c8f:	48 89 c7             	mov    %rax,%rdi
     c92:	e8 00 00 00 00       	callq  c97 <_Z9copy_fileRKNSt7__cxx1112basic_stringIcSt11char_traitsIcESaIcEEES6_b+0xc28>
     c97:	e9 8f 01 00 00       	jmpq   e2b <_Z9copy_fileRKNSt7__cxx1112basic_stringIcSt11char_traitsIcESaIcEEES6_b+0xdbc>
     c9c:	f3 0f 1e fa          	endbr64 
     ca0:	49 89 c4             	mov    %rax,%r12
     ca3:	48 8d 85 a0 fe ff ff 	lea    -0x160(%rbp),%rax
     caa:	48 89 c7             	mov    %rax,%rdi
     cad:	e8 00 00 00 00       	callq  cb2 <_Z9copy_fileRKNSt7__cxx1112basic_stringIcSt11char_traitsIcESaIcEEES6_b+0xc43>
     cb2:	eb 07                	jmp    cbb <_Z9copy_fileRKNSt7__cxx1112basic_stringIcSt11char_traitsIcESaIcEEES6_b+0xc4c>
     cb4:	f3 0f 1e fa          	endbr64 
     cb8:	49 89 c4             	mov    %rax,%r12
     cbb:	48 8d 85 60 fe ff ff 	lea    -0x1a0(%rbp),%rax
     cc2:	48 89 c7             	mov    %rax,%rdi
     cc5:	e8 00 00 00 00       	callq  cca <_Z9copy_fileRKNSt7__cxx1112basic_stringIcSt11char_traitsIcESaIcEEES6_b+0xc5b>
     cca:	eb 07                	jmp    cd3 <_Z9copy_fileRKNSt7__cxx1112basic_stringIcSt11char_traitsIcESaIcEEES6_b+0xc64>
     ccc:	f3 0f 1e fa          	endbr64 
     cd0:	49 89 c4             	mov    %rax,%r12
     cd3:	48 8d 85 40 fe ff ff 	lea    -0x1c0(%rbp),%rax
     cda:	48 89 c7             	mov    %rax,%rdi
     cdd:	e8 00 00 00 00       	callq  ce2 <_Z9copy_fileRKNSt7__cxx1112basic_stringIcSt11char_traitsIcESaIcEEES6_b+0xc73>
     ce2:	eb 07                	jmp    ceb <_Z9copy_fileRKNSt7__cxx1112basic_stringIcSt11char_traitsIcESaIcEEES6_b+0xc7c>
     ce4:	f3 0f 1e fa          	endbr64 
     ce8:	49 89 c4             	mov    %rax,%r12
     ceb:	48 8d 85 00 fe ff ff 	lea    -0x200(%rbp),%rax
     cf2:	48 89 c7             	mov    %rax,%rdi
     cf5:	e8 00 00 00 00       	callq  cfa <_Z9copy_fileRKNSt7__cxx1112basic_stringIcSt11char_traitsIcESaIcEEES6_b+0xc8b>
     cfa:	48 8d 85 80 fe ff ff 	lea    -0x180(%rbp),%rax
     d01:	48 89 c7             	mov    %rax,%rdi
     d04:	e8 00 00 00 00       	callq  d09 <_Z9copy_fileRKNSt7__cxx1112basic_stringIcSt11char_traitsIcESaIcEEES6_b+0xc9a>
     d09:	eb 07                	jmp    d12 <_Z9copy_fileRKNSt7__cxx1112basic_stringIcSt11char_traitsIcESaIcEEES6_b+0xca3>
     d0b:	f3 0f 1e fa          	endbr64 
     d0f:	49 89 c4             	mov    %rax,%r12
     d12:	48 89 df             	mov    %rbx,%rdi
     d15:	e8 00 00 00 00       	callq  d1a <_Z9copy_fileRKNSt7__cxx1112basic_stringIcSt11char_traitsIcESaIcEEES6_b+0xcab>
     d1a:	4c 89 e3             	mov    %r12,%rbx
     d1d:	e9 09 01 00 00       	jmpq   e2b <_Z9copy_fileRKNSt7__cxx1112basic_stringIcSt11char_traitsIcESaIcEEES6_b+0xdbc>
     d22:	f3 0f 1e fa          	endbr64 
     d26:	49 89 c4             	mov    %rax,%r12
     d29:	48 8d 85 a0 fe ff ff 	lea    -0x160(%rbp),%rax
     d30:	48 89 c7             	mov    %rax,%rdi
     d33:	e8 00 00 00 00       	callq  d38 <_Z9copy_fileRKNSt7__cxx1112basic_stringIcSt11char_traitsIcESaIcEEES6_b+0xcc9>
     d38:	eb 07                	jmp    d41 <_Z9copy_fileRKNSt7__cxx1112basic_stringIcSt11char_traitsIcESaIcEEES6_b+0xcd2>
     d3a:	f3 0f 1e fa          	endbr64 
     d3e:	49 89 c4             	mov    %rax,%r12
     d41:	48 8d 85 60 fe ff ff 	lea    -0x1a0(%rbp),%rax
     d48:	48 89 c7             	mov    %rax,%rdi
     d4b:	e8 00 00 00 00       	callq  d50 <_Z9copy_fileRKNSt7__cxx1112basic_stringIcSt11char_traitsIcESaIcEEES6_b+0xce1>
     d50:	eb 07                	jmp    d59 <_Z9copy_fileRKNSt7__cxx1112basic_stringIcSt11char_traitsIcESaIcEEES6_b+0xcea>
     d52:	f3 0f 1e fa          	endbr64 
     d56:	49 89 c4             	mov    %rax,%r12
     d59:	48 8d 85 40 fe ff ff 	lea    -0x1c0(%rbp),%rax
     d60:	48 89 c7             	mov    %rax,%rdi
     d63:	e8 00 00 00 00       	callq  d68 <_Z9copy_fileRKNSt7__cxx1112basic_stringIcSt11char_traitsIcESaIcEEES6_b+0xcf9>
     d68:	eb 07                	jmp    d71 <_Z9copy_fileRKNSt7__cxx1112basic_stringIcSt11char_traitsIcESaIcEEES6_b+0xd02>
     d6a:	f3 0f 1e fa          	endbr64 
     d6e:	49 89 c4             	mov    %rax,%r12
     d71:	48 8d 85 00 fe ff ff 	lea    -0x200(%rbp),%rax
     d78:	48 89 c7             	mov    %rax,%rdi
     d7b:	e8 00 00 00 00       	callq  d80 <_Z9copy_fileRKNSt7__cxx1112basic_stringIcSt11char_traitsIcESaIcEEES6_b+0xd11>
     d80:	48 8d 85 80 fe ff ff 	lea    -0x180(%rbp),%rax
     d87:	48 89 c7             	mov    %rax,%rdi
     d8a:	e8 00 00 00 00       	callq  d8f <_Z9copy_fileRKNSt7__cxx1112basic_stringIcSt11char_traitsIcESaIcEEES6_b+0xd20>
     d8f:	eb 07                	jmp    d98 <_Z9copy_fileRKNSt7__cxx1112basic_stringIcSt11char_traitsIcESaIcEEES6_b+0xd29>
     d91:	f3 0f 1e fa          	endbr64 
     d95:	49 89 c4             	mov    %rax,%r12
     d98:	48 89 df             	mov    %rbx,%rdi
     d9b:	e8 00 00 00 00       	callq  da0 <_Z9copy_fileRKNSt7__cxx1112basic_stringIcSt11char_traitsIcESaIcEEES6_b+0xd31>
     da0:	4c 89 e3             	mov    %r12,%rbx
     da3:	eb 6e                	jmp    e13 <_Z9copy_fileRKNSt7__cxx1112basic_stringIcSt11char_traitsIcESaIcEEES6_b+0xda4>
     da5:	f3 0f 1e fa          	endbr64 
     da9:	48 89 c3             	mov    %rax,%rbx
     dac:	48 8d 85 df fd ff ff 	lea    -0x221(%rbp),%rax
     db3:	48 89 c7             	mov    %rax,%rdi
     db6:	e8 00 00 00 00       	callq  dbb <_Z9copy_fileRKNSt7__cxx1112basic_stringIcSt11char_traitsIcESaIcEEES6_b+0xd4c>
     dbb:	eb 3e                	jmp    dfb <_Z9copy_fileRKNSt7__cxx1112basic_stringIcSt11char_traitsIcESaIcEEES6_b+0xd8c>
     dbd:	f3 0f 1e fa          	endbr64 
     dc1:	49 89 c4             	mov    %rax,%r12
     dc4:	48 89 df             	mov    %rbx,%rdi
     dc7:	e8 00 00 00 00       	callq  dcc <_Z9copy_fileRKNSt7__cxx1112basic_stringIcSt11char_traitsIcESaIcEEES6_b+0xd5d>
     dcc:	4c 89 e3             	mov    %r12,%rbx
     dcf:	eb 1b                	jmp    dec <_Z9copy_fileRKNSt7__cxx1112basic_stringIcSt11char_traitsIcESaIcEEES6_b+0xd7d>
     dd1:	f3 0f 1e fa          	endbr64 
     dd5:	49 89 c4             	mov    %rax,%r12
     dd8:	48 89 df             	mov    %rbx,%rdi
     ddb:	e8 00 00 00 00       	callq  de0 <_Z9copy_fileRKNSt7__cxx1112basic_stringIcSt11char_traitsIcESaIcEEES6_b+0xd71>
     de0:	4c 89 e3             	mov    %r12,%rbx
     de3:	eb 07                	jmp    dec <_Z9copy_fileRKNSt7__cxx1112basic_stringIcSt11char_traitsIcESaIcEEES6_b+0xd7d>
     de5:	f3 0f 1e fa          	endbr64 
     de9:	48 89 c3             	mov    %rax,%rbx
     dec:	48 8d 85 00 fe ff ff 	lea    -0x200(%rbp),%rax
     df3:	48 89 c7             	mov    %rax,%rdi
     df6:	e8 00 00 00 00       	callq  dfb <_Z9copy_fileRKNSt7__cxx1112basic_stringIcSt11char_traitsIcESaIcEEES6_b+0xd8c>
     dfb:	48 8d 85 f8 fd ff ff 	lea    -0x208(%rbp),%rax
     e02:	48 89 c7             	mov    %rax,%rdi
     e05:	e8 4a f2 ff ff       	callq  54 <_ZN5scope6detail10scope_exitIZ9copy_fileRKNSt7__cxx1112basic_stringIcSt11char_traitsIcESaIcEEES9_bEUlvE0_ED1Ev>
     e0a:	eb 07                	jmp    e13 <_Z9copy_fileRKNSt7__cxx1112basic_stringIcSt11char_traitsIcESaIcEEES6_b+0xda4>
     e0c:	f3 0f 1e fa          	endbr64 
     e10:	48 89 c3             	mov    %rax,%rbx
     e13:	48 8d 85 f0 fd ff ff 	lea    -0x210(%rbp),%rax
     e1a:	48 89 c7             	mov    %rax,%rdi
     e1d:	e8 fa f1 ff ff       	callq  1c <_ZN5scope6detail10scope_exitIZ9copy_fileRKNSt7__cxx1112basic_stringIcSt11char_traitsIcESaIcEEES9_bEUlvE_ED1Ev>
     e22:	eb 07                	jmp    e2b <_Z9copy_fileRKNSt7__cxx1112basic_stringIcSt11char_traitsIcESaIcEEES6_b+0xdbc>
     e24:	f3 0f 1e fa          	endbr64 
     e28:	48 89 c3             	mov    %rax,%rbx
     e2b:	48 8d 85 20 fe ff ff 	lea    -0x1e0(%rbp),%rax
     e32:	48 89 c7             	mov    %rax,%rdi
     e35:	e8 00 00 00 00       	callq  e3a <_Z9copy_fileRKNSt7__cxx1112basic_stringIcSt11char_traitsIcESaIcEEES6_b+0xdcb>
     e3a:	48 89 d8             	mov    %rbx,%rax
     e3d:	48 89 c7             	mov    %rax,%rdi
     e40:	e8 00 00 00 00       	callq  e45 <_Z9copy_fileRKNSt7__cxx1112basic_stringIcSt11char_traitsIcESaIcEEES6_b+0xdd6>
     e45:	e8 00 00 00 00       	callq  e4a <_Z9copy_fileRKNSt7__cxx1112basic_stringIcSt11char_traitsIcESaIcEEES6_b+0xddb>
     e4a:	48 81 c4 40 02 00 00 	add    $0x240,%rsp
     e51:	5b                   	pop    %rbx
     e52:	41 5c                	pop    %r12
     e54:	5d                   	pop    %rbp
     e55:	c3                   	retq   

0000000000000e56 <_Z9move_fileRKNSt7__cxx1112basic_stringIcSt11char_traitsIcESaIcEEES6_>:
     e56:	f3 0f 1e fa          	endbr64 
     e5a:	55                   	push   %rbp
     e5b:	48 89 e5             	mov    %rsp,%rbp
     e5e:	41 54                	push   %r12
     e60:	53                   	push   %rbx
     e61:	48 81 ec f0 01 00 00 	sub    $0x1f0,%rsp
     e68:	48 89 bd 08 fe ff ff 	mov    %rdi,-0x1f8(%rbp)
     e6f:	48 89 b5 00 fe ff ff 	mov    %rsi,-0x200(%rbp)
     e76:	64 48 8b 04 25 28 00 	mov    %fs:0x28,%rax
     e7d:	00 00 
     e7f:	48 89 45 e8          	mov    %rax,-0x18(%rbp)
     e83:	31 c0                	xor    %eax,%eax
     e85:	48 8b 85 08 fe ff ff 	mov    -0x1f8(%rbp),%rax
     e8c:	48 89 c7             	mov    %rax,%rdi
     e8f:	e8 00 00 00 00       	callq  e94 <_Z9move_fileRKNSt7__cxx1112basic_stringIcSt11char_traitsIcESaIcEEES6_+0x3e>
     e94:	48 89 c2             	mov    %rax,%rdx
     e97:	48 8d 85 c0 fe ff ff 	lea    -0x140(%rbp),%rax
     e9e:	48 89 c6             	mov    %rax,%rsi
     ea1:	48 89 d7             	mov    %rdx,%rdi
     ea4:	e8 00 00 00 00       	callq  ea9 <_Z9move_fileRKNSt7__cxx1112basic_stringIcSt11char_traitsIcESaIcEEES6_+0x53>
     ea9:	83 f8 ff             	cmp    $0xffffffff,%eax
     eac:	0f 94 c0             	sete   %al
     eaf:	84 c0                	test   %al,%al
     eb1:	0f 84 10 01 00 00    	je     fc7 <_Z9move_fileRKNSt7__cxx1112basic_stringIcSt11char_traitsIcESaIcEEES6_+0x171>
     eb7:	bf 20 00 00 00       	mov    $0x20,%edi
     ebc:	e8 00 00 00 00       	callq  ec1 <_Z9move_fileRKNSt7__cxx1112basic_stringIcSt11char_traitsIcESaIcEEES6_+0x6b>
     ec1:	48 89 c3             	mov    %rax,%rbx
     ec4:	48 8d 85 a0 fe ff ff 	lea    -0x160(%rbp),%rax
     ecb:	be 4f 00 00 00       	mov    $0x4f,%esi
     ed0:	48 89 c7             	mov    %rax,%rdi
     ed3:	e8 00 00 00 00       	callq  ed8 <_Z9move_fileRKNSt7__cxx1112basic_stringIcSt11char_traitsIcESaIcEEES6_+0x82>
     ed8:	48 8d 85 1f fe ff ff 	lea    -0x1e1(%rbp),%rax
     edf:	48 89 c7             	mov    %rax,%rdi
     ee2:	e8 00 00 00 00       	callq  ee7 <_Z9move_fileRKNSt7__cxx1112basic_stringIcSt11char_traitsIcESaIcEEES6_+0x91>
     ee7:	48 8d 95 1f fe ff ff 	lea    -0x1e1(%rbp),%rdx
     eee:	48 8d 85 60 fe ff ff 	lea    -0x1a0(%rbp),%rax
     ef5:	48 8d 35 00 00 00 00 	lea    0x0(%rip),%rsi        # efc <_Z9move_fileRKNSt7__cxx1112basic_stringIcSt11char_traitsIcESaIcEEES6_+0xa6>
     efc:	48 89 c7             	mov    %rax,%rdi
     eff:	e8 00 00 00 00       	callq  f04 <_Z9move_fileRKNSt7__cxx1112basic_stringIcSt11char_traitsIcESaIcEEES6_+0xae>
     f04:	48 8d 85 80 fe ff ff 	lea    -0x180(%rbp),%rax
     f0b:	48 8d 8d 60 fe ff ff 	lea    -0x1a0(%rbp),%rcx
     f12:	48 8d 15 00 00 00 00 	lea    0x0(%rip),%rdx        # f19 <_Z9move_fileRKNSt7__cxx1112basic_stringIcSt11char_traitsIcESaIcEEES6_+0xc3>
     f19:	48 89 ce             	mov    %rcx,%rsi
     f1c:	48 89 c7             	mov    %rax,%rdi
     f1f:	e8 00 00 00 00       	callq  f24 <_Z9move_fileRKNSt7__cxx1112basic_stringIcSt11char_traitsIcESaIcEEES6_+0xce>
     f24:	48 8d 85 50 ff ff ff 	lea    -0xb0(%rbp),%rax
     f2b:	48 8d 95 a0 fe ff ff 	lea    -0x160(%rbp),%rdx
     f32:	48 8d 8d 80 fe ff ff 	lea    -0x180(%rbp),%rcx
     f39:	48 89 ce             	mov    %rcx,%rsi
     f3c:	48 89 c7             	mov    %rax,%rdi
     f3f:	e8 00 00 00 00       	callq  f44 <_Z9move_fileRKNSt7__cxx1112basic_stringIcSt11char_traitsIcESaIcEEES6_+0xee>
     f44:	e8 00 00 00 00       	callq  f49 <_Z9move_fileRKNSt7__cxx1112basic_stringIcSt11char_traitsIcESaIcEEES6_+0xf3>
     f49:	48 89 c2             	mov    %rax,%rdx
     f4c:	48 8d 85 50 ff ff ff 	lea    -0xb0(%rbp),%rax
     f53:	48 89 c1             	mov    %rax,%rcx
     f56:	be 02 00 00 00       	mov    $0x2,%esi
     f5b:	48 89 df             	mov    %rbx,%rdi
     f5e:	e8 00 00 00 00       	callq  f63 <_Z9move_fileRKNSt7__cxx1112basic_stringIcSt11char_traitsIcESaIcEEES6_+0x10d>
     f63:	48 8d 85 50 ff ff ff 	lea    -0xb0(%rbp),%rax
     f6a:	48 89 c7             	mov    %rax,%rdi
     f6d:	e8 00 00 00 00       	callq  f72 <_Z9move_fileRKNSt7__cxx1112basic_stringIcSt11char_traitsIcESaIcEEES6_+0x11c>
     f72:	48 8d 85 80 fe ff ff 	lea    -0x180(%rbp),%rax
     f79:	48 89 c7             	mov    %rax,%rdi
     f7c:	e8 00 00 00 00       	callq  f81 <_Z9move_fileRKNSt7__cxx1112basic_stringIcSt11char_traitsIcESaIcEEES6_+0x12b>
     f81:	48 8d 85 60 fe ff ff 	lea    -0x1a0(%rbp),%rax
     f88:	48 89 c7             	mov    %rax,%rdi
     f8b:	e8 00 00 00 00       	callq  f90 <_Z9move_fileRKNSt7__cxx1112basic_stringIcSt11char_traitsIcESaIcEEES6_+0x13a>
     f90:	48 8d 85 1f fe ff ff 	lea    -0x1e1(%rbp),%rax
     f97:	48 89 c7             	mov    %rax,%rdi
     f9a:	e8 00 00 00 00       	callq  f9f <_Z9move_fileRKNSt7__cxx1112basic_stringIcSt11char_traitsIcESaIcEEES6_+0x149>
     f9f:	48 8d 85 a0 fe ff ff 	lea    -0x160(%rbp),%rax
     fa6:	48 89 c7             	mov    %rax,%rdi
     fa9:	e8 00 00 00 00       	callq  fae <_Z9move_fileRKNSt7__cxx1112basic_stringIcSt11char_traitsIcESaIcEEES6_+0x158>
     fae:	48 8b 05 00 00 00 00 	mov    0x0(%rip),%rax        # fb5 <_Z9move_fileRKNSt7__cxx1112basic_stringIcSt11char_traitsIcESaIcEEES6_+0x15f>
     fb5:	48 89 c2             	mov    %rax,%rdx
     fb8:	48 8d 35 00 00 00 00 	lea    0x0(%rip),%rsi        # fbf <_Z9move_fileRKNSt7__cxx1112basic_stringIcSt11char_traitsIcESaIcEEES6_+0x169>
     fbf:	48 89 df             	mov    %rbx,%rdi
     fc2:	e8 00 00 00 00       	callq  fc7 <_Z9move_fileRKNSt7__cxx1112basic_stringIcSt11char_traitsIcESaIcEEES6_+0x171>
     fc7:	8b 85 d8 fe ff ff    	mov    -0x128(%rbp),%eax
     fcd:	25 00 f0 00 00       	and    $0xf000,%eax
     fd2:	3d 00 80 00 00       	cmp    $0x8000,%eax
     fd7:	0f 84 10 01 00 00    	je     10ed <_Z9move_fileRKNSt7__cxx1112basic_stringIcSt11char_traitsIcESaIcEEES6_+0x297>
     fdd:	bf 20 00 00 00       	mov    $0x20,%edi
     fe2:	e8 00 00 00 00       	callq  fe7 <_Z9move_fileRKNSt7__cxx1112basic_stringIcSt11char_traitsIcESaIcEEES6_+0x191>
     fe7:	48 89 c3             	mov    %rax,%rbx
     fea:	48 8d 85 a0 fe ff ff 	lea    -0x160(%rbp),%rax
     ff1:	be 53 00 00 00       	mov    $0x53,%esi
     ff6:	48 89 c7             	mov    %rax,%rdi
     ff9:	e8 00 00 00 00       	callq  ffe <_Z9move_fileRKNSt7__cxx1112basic_stringIcSt11char_traitsIcESaIcEEES6_+0x1a8>
     ffe:	48 8d 85 1f fe ff ff 	lea    -0x1e1(%rbp),%rax
    1005:	48 89 c7             	mov    %rax,%rdi
    1008:	e8 00 00 00 00       	callq  100d <_Z9move_fileRKNSt7__cxx1112basic_stringIcSt11char_traitsIcESaIcEEES6_+0x1b7>
    100d:	48 8d 95 1f fe ff ff 	lea    -0x1e1(%rbp),%rdx
    1014:	48 8d 85 60 fe ff ff 	lea    -0x1a0(%rbp),%rax
    101b:	48 8d 35 00 00 00 00 	lea    0x0(%rip),%rsi        # 1022 <_Z9move_fileRKNSt7__cxx1112basic_stringIcSt11char_traitsIcESaIcEEES6_+0x1cc>
    1022:	48 89 c7             	mov    %rax,%rdi
    1025:	e8 00 00 00 00       	callq  102a <_Z9move_fileRKNSt7__cxx1112basic_stringIcSt11char_traitsIcESaIcEEES6_+0x1d4>
    102a:	48 8d 85 80 fe ff ff 	lea    -0x180(%rbp),%rax
    1031:	48 8d 8d 60 fe ff ff 	lea    -0x1a0(%rbp),%rcx
    1038:	48 8d 15 00 00 00 00 	lea    0x0(%rip),%rdx        # 103f <_Z9move_fileRKNSt7__cxx1112basic_stringIcSt11char_traitsIcESaIcEEES6_+0x1e9>
    103f:	48 89 ce             	mov    %rcx,%rsi
    1042:	48 89 c7             	mov    %rax,%rdi
    1045:	e8 00 00 00 00       	callq  104a <_Z9move_fileRKNSt7__cxx1112basic_stringIcSt11char_traitsIcESaIcEEES6_+0x1f4>
    104a:	48 8d 85 50 ff ff ff 	lea    -0xb0(%rbp),%rax
    1051:	48 8d 95 a0 fe ff ff 	lea    -0x160(%rbp),%rdx
    1058:	48 8d 8d 80 fe ff ff 	lea    -0x180(%rbp),%rcx
    105f:	48 89 ce             	mov    %rcx,%rsi
    1062:	48 89 c7             	mov    %rax,%rdi
    1065:	e8 00 00 00 00       	callq  106a <_Z9move_fileRKNSt7__cxx1112basic_stringIcSt11char_traitsIcESaIcEEES6_+0x214>
    106a:	e8 00 00 00 00       	callq  106f <_Z9move_fileRKNSt7__cxx1112basic_stringIcSt11char_traitsIcESaIcEEES6_+0x219>
    106f:	48 89 c2             	mov    %rax,%rdx
    1072:	48 8d 85 50 ff ff ff 	lea    -0xb0(%rbp),%rax
    1079:	48 89 c1             	mov    %rax,%rcx
    107c:	be 15 00 00 00       	mov    $0x15,%esi
    1081:	48 89 df             	mov    %rbx,%rdi
    1084:	e8 00 00 00 00       	callq  1089 <_Z9move_fileRKNSt7__cxx1112basic_stringIcSt11char_traitsIcESaIcEEES6_+0x233>
    1089:	48 8d 85 50 ff ff ff 	lea    -0xb0(%rbp),%rax
    1090:	48 89 c7             	mov    %rax,%rdi
    1093:	e8 00 00 00 00       	callq  1098 <_Z9move_fileRKNSt7__cxx1112basic_stringIcSt11char_traitsIcESaIcEEES6_+0x242>
    1098:	48 8d 85 80 fe ff ff 	lea    -0x180(%rbp),%rax
    109f:	48 89 c7             	mov    %rax,%rdi
    10a2:	e8 00 00 00 00       	callq  10a7 <_Z9move_fileRKNSt7__cxx1112basic_stringIcSt11char_traitsIcESaIcEEES6_+0x251>
    10a7:	48 8d 85 60 fe ff ff 	lea    -0x1a0(%rbp),%rax
    10ae:	48 89 c7             	mov    %rax,%rdi
    10b1:	e8 00 00 00 00       	callq  10b6 <_Z9move_fileRKNSt7__cxx1112basic_stringIcSt11char_traitsIcESaIcEEES6_+0x260>
    10b6:	48 8d 85 1f fe ff ff 	lea    -0x1e1(%rbp),%rax
    10bd:	48 89 c7             	mov    %rax,%rdi
    10c0:	e8 00 00 00 00       	callq  10c5 <_Z9move_fileRKNSt7__cxx1112basic_stringIcSt11char_traitsIcESaIcEEES6_+0x26f>
    10c5:	48 8d 85 a0 fe ff ff 	lea    -0x160(%rbp),%rax
    10cc:	48 89 c7             	mov    %rax,%rdi
    10cf:	e8 00 00 00 00       	callq  10d4 <_Z9move_fileRKNSt7__cxx1112basic_stringIcSt11char_traitsIcESaIcEEES6_+0x27e>
    10d4:	48 8b 05 00 00 00 00 	mov    0x0(%rip),%rax        # 10db <_Z9move_fileRKNSt7__cxx1112basic_stringIcSt11char_traitsIcESaIcEEES6_+0x285>
    10db:	48 89 c2             	mov    %rax,%rdx
    10de:	48 8d 35 00 00 00 00 	lea    0x0(%rip),%rsi        # 10e5 <_Z9move_fileRKNSt7__cxx1112basic_stringIcSt11char_traitsIcESaIcEEES6_+0x28f>
    10e5:	48 89 df             	mov    %rbx,%rdi
    10e8:	e8 00 00 00 00       	callq  10ed <_Z9move_fileRKNSt7__cxx1112basic_stringIcSt11char_traitsIcESaIcEEES6_+0x297>
    10ed:	48 8b 85 00 fe ff ff 	mov    -0x200(%rbp),%rax
    10f4:	48 89 c7             	mov    %rax,%rdi
    10f7:	e8 00 00 00 00       	callq  10fc <_Z9move_fileRKNSt7__cxx1112basic_stringIcSt11char_traitsIcESaIcEEES6_+0x2a6>
    10fc:	48 89 c2             	mov    %rax,%rdx
    10ff:	48 8d 85 50 ff ff ff 	lea    -0xb0(%rbp),%rax
    1106:	48 89 c6             	mov    %rax,%rsi
    1109:	48 89 d7             	mov    %rdx,%rdi
    110c:	e8 00 00 00 00       	callq  1111 <_Z9move_fileRKNSt7__cxx1112basic_stringIcSt11char_traitsIcESaIcEEES6_+0x2bb>
    1111:	c1 e8 1f             	shr    $0x1f,%eax
    1114:	84 c0                	test   %al,%al
    1116:	0f 84 10 01 00 00    	je     122c <_Z9move_fileRKNSt7__cxx1112basic_stringIcSt11char_traitsIcESaIcEEES6_+0x3d6>
    111c:	bf 20 00 00 00       	mov    $0x20,%edi
    1121:	e8 00 00 00 00       	callq  1126 <_Z9move_fileRKNSt7__cxx1112basic_stringIcSt11char_traitsIcESaIcEEES6_+0x2d0>
    1126:	48 89 c3             	mov    %rax,%rbx
    1129:	48 8d 85 80 fe ff ff 	lea    -0x180(%rbp),%rax
    1130:	be 58 00 00 00       	mov    $0x58,%esi
    1135:	48 89 c7             	mov    %rax,%rdi
    1138:	e8 00 00 00 00       	callq  113d <_Z9move_fileRKNSt7__cxx1112basic_stringIcSt11char_traitsIcESaIcEEES6_+0x2e7>
    113d:	48 8d 85 1f fe ff ff 	lea    -0x1e1(%rbp),%rax
    1144:	48 89 c7             	mov    %rax,%rdi
    1147:	e8 00 00 00 00       	callq  114c <_Z9move_fileRKNSt7__cxx1112basic_stringIcSt11char_traitsIcESaIcEEES6_+0x2f6>
    114c:	48 8d 95 1f fe ff ff 	lea    -0x1e1(%rbp),%rdx
    1153:	48 8d 85 40 fe ff ff 	lea    -0x1c0(%rbp),%rax
    115a:	48 8d 35 00 00 00 00 	lea    0x0(%rip),%rsi        # 1161 <_Z9move_fileRKNSt7__cxx1112basic_stringIcSt11char_traitsIcESaIcEEES6_+0x30b>
    1161:	48 89 c7             	mov    %rax,%rdi
    1164:	e8 00 00 00 00       	callq  1169 <_Z9move_fileRKNSt7__cxx1112basic_stringIcSt11char_traitsIcESaIcEEES6_+0x313>
    1169:	48 8d 85 60 fe ff ff 	lea    -0x1a0(%rbp),%rax
    1170:	48 8d 8d 40 fe ff ff 	lea    -0x1c0(%rbp),%rcx
    1177:	48 8d 15 00 00 00 00 	lea    0x0(%rip),%rdx        # 117e <_Z9move_fileRKNSt7__cxx1112basic_stringIcSt11char_traitsIcESaIcEEES6_+0x328>
    117e:	48 89 ce             	mov    %rcx,%rsi
    1181:	48 89 c7             	mov    %rax,%rdi
    1184:	e8 00 00 00 00       	callq  1189 <_Z9move_fileRKNSt7__cxx1112basic_stringIcSt11char_traitsIcESaIcEEES6_+0x333>
    1189:	48 8d 85 a0 fe ff ff 	lea    -0x160(%rbp),%rax
    1190:	48 8d 95 80 fe ff ff 	lea    -0x180(%rbp),%rdx
    1197:	48 8d 8d 60 fe ff ff 	lea    -0x1a0(%rbp),%rcx
    119e:	48 89 ce             	mov    %rcx,%rsi
    11a1:	48 89 c7             	mov    %rax,%rdi
    11a4:	e8 00 00 00 00       	callq  11a9 <_Z9move_fileRKNSt7__cxx1112basic_stringIcSt11char_traitsIcESaIcEEES6_+0x353>
    11a9:	e8 00 00 00 00       	callq  11ae <_Z9move_fileRKNSt7__cxx1112basic_stringIcSt11char_traitsIcESaIcEEES6_+0x358>
    11ae:	48 89 c2             	mov    %rax,%rdx
    11b1:	48 8d 85 a0 fe ff ff 	lea    -0x160(%rbp),%rax
    11b8:	48 89 c1             	mov    %rax,%rcx
    11bb:	be 02 00 00 00       	mov    $0x2,%esi
    11c0:	48 89 df             	mov    %rbx,%rdi
    11c3:	e8 00 00 00 00       	callq  11c8 <_Z9move_fileRKNSt7__cxx1112basic_stringIcSt11char_traitsIcESaIcEEES6_+0x372>
    11c8:	48 8d 85 a0 fe ff ff 	lea    -0x160(%rbp),%rax
    11cf:	48 89 c7             	mov    %rax,%rdi
    11d2:	e8 00 00 00 00       	callq  11d7 <_Z9move_fileRKNSt7__cxx1112basic_stringIcSt11char_traitsIcESaIcEEES6_+0x381>
    11d7:	48 8d 85 60 fe ff ff 	lea    -0x1a0(%rbp),%rax
    11de:	48 89 c7             	mov    %rax,%rdi
    11e1:	e8 00 00 00 00       	callq  11e6 <_Z9move_fileRKNSt7__cxx1112basic_stringIcSt11char_traitsIcESaIcEEES6_+0x390>
    11e6:	48 8d 85 40 fe ff ff 	lea    -0x1c0(%rbp),%rax
    11ed:	48 89 c7             	mov    %rax,%rdi
    11f0:	e8 00 00 00 00       	callq  11f5 <_Z9move_fileRKNSt7__cxx1112basic_stringIcSt11char_traitsIcESaIcEEES6_+0x39f>
    11f5:	48 8d 85 1f fe ff ff 	lea    -0x1e1(%rbp),%rax
    11fc:	48 89 c7             	mov    %rax,%rdi
    11ff:	e8 00 00 00 00       	callq  1204 <_Z9move_fileRKNSt7__cxx1112basic_stringIcSt11char_traitsIcESaIcEEES6_+0x3ae>
    1204:	48 8d 85 80 fe ff ff 	lea    -0x180(%rbp),%rax
    120b:	48 89 c7             	mov    %rax,%rdi
    120e:	e8 00 00 00 00       	callq  1213 <_Z9move_fileRKNSt7__cxx1112basic_stringIcSt11char_traitsIcESaIcEEES6_+0x3bd>
    1213:	48 8b 05 00 00 00 00 	mov    0x0(%rip),%rax        # 121a <_Z9move_fileRKNSt7__cxx1112basic_stringIcSt11char_traitsIcESaIcEEES6_+0x3c4>
    121a:	48 89 c2             	mov    %rax,%rdx
    121d:	48 8d 35 00 00 00 00 	lea    0x0(%rip),%rsi        # 1224 <_Z9move_fileRKNSt7__cxx1112basic_stringIcSt11char_traitsIcESaIcEEES6_+0x3ce>
    1224:	48 89 df             	mov    %rbx,%rdi
    1227:	e8 00 00 00 00       	callq  122c <_Z9move_fileRKNSt7__cxx1112basic_stringIcSt11char_traitsIcESaIcEEES6_+0x3d6>
    122c:	48 8d 85 20 fe ff ff 	lea    -0x1e0(%rbp),%rax
    1233:	48 89 c7             	mov    %rax,%rdi
    1236:	e8 00 00 00 00       	callq  123b <_Z9move_fileRKNSt7__cxx1112basic_stringIcSt11char_traitsIcESaIcEEES6_+0x3e5>
    123b:	8b 85 68 ff ff ff    	mov    -0x98(%rbp),%eax
    1241:	25 00 f0 00 00       	and    $0xf000,%eax
    1246:	3d 00 40 00 00       	cmp    $0x4000,%eax
    124b:	0f 85 d0 00 00 00    	jne    1321 <_Z9move_fileRKNSt7__cxx1112basic_stringIcSt11char_traitsIcESaIcEEES6_+0x4cb>
    1251:	48 8b 95 08 fe ff ff 	mov    -0x1f8(%rbp),%rdx
    1258:	48 8d 85 60 fe ff ff 	lea    -0x1a0(%rbp),%rax
    125f:	48 89 d6             	mov    %rdx,%rsi
    1262:	48 89 c7             	mov    %rax,%rdi
    1265:	e8 00 00 00 00       	callq  126a <_Z9move_fileRKNSt7__cxx1112basic_stringIcSt11char_traitsIcESaIcEEES6_+0x414>
    126a:	48 8d 85 1f fe ff ff 	lea    -0x1e1(%rbp),%rax
    1271:	48 89 c7             	mov    %rax,%rdi
    1274:	e8 00 00 00 00       	callq  1279 <_Z9move_fileRKNSt7__cxx1112basic_stringIcSt11char_traitsIcESaIcEEES6_+0x423>
    1279:	48 8d 85 60 fe ff ff 	lea    -0x1a0(%rbp),%rax
    1280:	48 89 c7             	mov    %rax,%rdi
    1283:	e8 00 00 00 00       	callq  1288 <_Z9move_fileRKNSt7__cxx1112basic_stringIcSt11char_traitsIcESaIcEEES6_+0x432>
    1288:	48 89 c7             	mov    %rax,%rdi
    128b:	e8 00 00 00 00       	callq  1290 <_Z9move_fileRKNSt7__cxx1112basic_stringIcSt11char_traitsIcESaIcEEES6_+0x43a>
    1290:	48 89 c1             	mov    %rax,%rcx
    1293:	48 8d 95 1f fe ff ff 	lea    -0x1e1(%rbp),%rdx
    129a:	48 8d 85 80 fe ff ff 	lea    -0x180(%rbp),%rax
    12a1:	48 89 ce             	mov    %rcx,%rsi
    12a4:	48 89 c7             	mov    %rax,%rdi
    12a7:	e8 00 00 00 00       	callq  12ac <_Z9move_fileRKNSt7__cxx1112basic_stringIcSt11char_traitsIcESaIcEEES6_+0x456>
    12ac:	48 8d 85 1f fe ff ff 	lea    -0x1e1(%rbp),%rax
    12b3:	48 89 c7             	mov    %rax,%rdi
    12b6:	e8 00 00 00 00       	callq  12bb <_Z9move_fileRKNSt7__cxx1112basic_stringIcSt11char_traitsIcESaIcEEES6_+0x465>
    12bb:	48 8d 85 a0 fe ff ff 	lea    -0x160(%rbp),%rax
    12c2:	48 8d 95 80 fe ff ff 	lea    -0x180(%rbp),%rdx
    12c9:	48 8b 8d 00 fe ff ff 	mov    -0x200(%rbp),%rcx
    12d0:	48 89 ce             	mov    %rcx,%rsi
    12d3:	48 89 c7             	mov    %rax,%rdi
    12d6:	e8 00 00 00 00       	callq  12db <_Z9move_fileRKNSt7__cxx1112basic_stringIcSt11char_traitsIcESaIcEEES6_+0x485>
    12db:	48 8d 95 a0 fe ff ff 	lea    -0x160(%rbp),%rdx
    12e2:	48 8d 85 20 fe ff ff 	lea    -0x1e0(%rbp),%rax
    12e9:	48 89 d6             	mov    %rdx,%rsi
    12ec:	48 89 c7             	mov    %rax,%rdi
    12ef:	e8 00 00 00 00       	callq  12f4 <_Z9move_fileRKNSt7__cxx1112basic_stringIcSt11char_traitsIcESaIcEEES6_+0x49e>
    12f4:	48 8d 85 a0 fe ff ff 	lea    -0x160(%rbp),%rax
    12fb:	48 89 c7             	mov    %rax,%rdi
    12fe:	e8 00 00 00 00       	callq  1303 <_Z9move_fileRKNSt7__cxx1112basic_stringIcSt11char_traitsIcESaIcEEES6_+0x4ad>
    1303:	48 8d 85 80 fe ff ff 	lea    -0x180(%rbp),%rax
    130a:	48 89 c7             	mov    %rax,%rdi
    130d:	e8 00 00 00 00       	callq  1312 <_Z9move_fileRKNSt7__cxx1112basic_stringIcSt11char_traitsIcESaIcEEES6_+0x4bc>
    1312:	48 8d 85 60 fe ff ff 	lea    -0x1a0(%rbp),%rax
    1319:	48 89 c7             	mov    %rax,%rdi
    131c:	e8 00 00 00 00       	callq  1321 <_Z9move_fileRKNSt7__cxx1112basic_stringIcSt11char_traitsIcESaIcEEES6_+0x4cb>
    1321:	48 8b 95 50 ff ff ff 	mov    -0xb0(%rbp),%rdx
    1328:	48 8b 85 c0 fe ff ff 	mov    -0x140(%rbp),%rax
    132f:	48 39 c2             	cmp    %rax,%rdx
    1332:	0f 85 51 01 00 00    	jne    1489 <_Z9move_fileRKNSt7__cxx1112basic_stringIcSt11char_traitsIcESaIcEEES6_+0x633>
    1338:	48 8d 85 20 fe ff ff 	lea    -0x1e0(%rbp),%rax
    133f:	48 89 c7             	mov    %rax,%rdi
    1342:	e8 00 00 00 00       	callq  1347 <_Z9move_fileRKNSt7__cxx1112basic_stringIcSt11char_traitsIcESaIcEEES6_+0x4f1>
    1347:	48 89 c3             	mov    %rax,%rbx
    134a:	48 8b 85 08 fe ff ff 	mov    -0x1f8(%rbp),%rax
    1351:	48 89 c7             	mov    %rax,%rdi
    1354:	e8 00 00 00 00       	callq  1359 <_Z9move_fileRKNSt7__cxx1112basic_stringIcSt11char_traitsIcESaIcEEES6_+0x503>
    1359:	48 89 de             	mov    %rbx,%rsi
    135c:	48 89 c7             	mov    %rax,%rdi
    135f:	e8 00 00 00 00       	callq  1364 <_Z9move_fileRKNSt7__cxx1112basic_stringIcSt11char_traitsIcESaIcEEES6_+0x50e>
    1364:	83 f8 ff             	cmp    $0xffffffff,%eax
    1367:	0f 94 c0             	sete   %al
    136a:	84 c0                	test   %al,%al
    136c:	0f 84 70 02 00 00    	je     15e2 <_Z9move_fileRKNSt7__cxx1112basic_stringIcSt11char_traitsIcESaIcEEES6_+0x78c>
    1372:	bf 20 00 00 00       	mov    $0x20,%edi
    1377:	e8 00 00 00 00       	callq  137c <_Z9move_fileRKNSt7__cxx1112basic_stringIcSt11char_traitsIcESaIcEEES6_+0x526>
    137c:	48 89 c3             	mov    %rax,%rbx
    137f:	48 8d 85 80 fe ff ff 	lea    -0x180(%rbp),%rax
    1386:	be 65 00 00 00       	mov    $0x65,%esi
    138b:	48 89 c7             	mov    %rax,%rdi
    138e:	e8 00 00 00 00       	callq  1393 <_Z9move_fileRKNSt7__cxx1112basic_stringIcSt11char_traitsIcESaIcEEES6_+0x53d>
    1393:	48 8d 85 1f fe ff ff 	lea    -0x1e1(%rbp),%rax
    139a:	48 89 c7             	mov    %rax,%rdi
    139d:	e8 00 00 00 00       	callq  13a2 <_Z9move_fileRKNSt7__cxx1112basic_stringIcSt11char_traitsIcESaIcEEES6_+0x54c>
    13a2:	48 8d 95 1f fe ff ff 	lea    -0x1e1(%rbp),%rdx
    13a9:	48 8d 85 40 fe ff ff 	lea    -0x1c0(%rbp),%rax
    13b0:	48 8d 35 00 00 00 00 	lea    0x0(%rip),%rsi        # 13b7 <_Z9move_fileRKNSt7__cxx1112basic_stringIcSt11char_traitsIcESaIcEEES6_+0x561>
    13b7:	48 89 c7             	mov    %rax,%rdi
    13ba:	e8 00 00 00 00       	callq  13bf <_Z9move_fileRKNSt7__cxx1112basic_stringIcSt11char_traitsIcESaIcEEES6_+0x569>
    13bf:	48 8d 85 60 fe ff ff 	lea    -0x1a0(%rbp),%rax
    13c6:	48 8d 8d 40 fe ff ff 	lea    -0x1c0(%rbp),%rcx
    13cd:	48 8d 15 00 00 00 00 	lea    0x0(%rip),%rdx        # 13d4 <_Z9move_fileRKNSt7__cxx1112basic_stringIcSt11char_traitsIcESaIcEEES6_+0x57e>
    13d4:	48 89 ce             	mov    %rcx,%rsi
    13d7:	48 89 c7             	mov    %rax,%rdi
    13da:	e8 00 00 00 00       	callq  13df <_Z9move_fileRKNSt7__cxx1112basic_stringIcSt11char_traitsIcESaIcEEES6_+0x589>
    13df:	48 8d 85 a0 fe ff ff 	lea    -0x160(%rbp),%rax
    13e6:	48 8d 95 80 fe ff ff 	lea    -0x180(%rbp),%rdx
    13ed:	48 8d 8d 60 fe ff ff 	lea    -0x1a0(%rbp),%rcx
    13f4:	48 89 ce             	mov    %rcx,%rsi
    13f7:	48 89 c7             	mov    %rax,%rdi
    13fa:	e8 00 00 00 00       	callq  13ff <_Z9move_fileRKNSt7__cxx1112basic_stringIcSt11char_traitsIcESaIcEEES6_+0x5a9>
    13ff:	e8 00 00 00 00       	callq  1404 <_Z9move_fileRKNSt7__cxx1112basic_stringIcSt11char_traitsIcESaIcEEES6_+0x5ae>
    1404:	49 89 c4             	mov    %rax,%r12
    1407:	e8 00 00 00 00       	callq  140c <_Z9move_fileRKNSt7__cxx1112basic_stringIcSt11char_traitsIcESaIcEEES6_+0x5b6>
    140c:	8b 00                	mov    (%rax),%eax
    140e:	48 8d 95 a0 fe ff ff 	lea    -0x160(%rbp),%rdx
    1415:	48 89 d1             	mov    %rdx,%rcx
    1418:	4c 89 e2             	mov    %r12,%rdx
    141b:	89 c6                	mov    %eax,%esi
    141d:	48 89 df             	mov    %rbx,%rdi
    1420:	e8 00 00 00 00       	callq  1425 <_Z9move_fileRKNSt7__cxx1112basic_stringIcSt11char_traitsIcESaIcEEES6_+0x5cf>
    1425:	48 8d 85 a0 fe ff ff 	lea    -0x160(%rbp),%rax
    142c:	48 89 c7             	mov    %rax,%rdi
    142f:	e8 00 00 00 00       	callq  1434 <_Z9move_fileRKNSt7__cxx1112basic_stringIcSt11char_traitsIcESaIcEEES6_+0x5de>
    1434:	48 8d 85 60 fe ff ff 	lea    -0x1a0(%rbp),%rax
    143b:	48 89 c7             	mov    %rax,%rdi
    143e:	e8 00 00 00 00       	callq  1443 <_Z9move_fileRKNSt7__cxx1112basic_stringIcSt11char_traitsIcESaIcEEES6_+0x5ed>
    1443:	48 8d 85 40 fe ff ff 	lea    -0x1c0(%rbp),%rax
    144a:	48 89 c7             	mov    %rax,%rdi
    144d:	e8 00 00 00 00       	callq  1452 <_Z9move_fileRKNSt7__cxx1112basic_stringIcSt11char_traitsIcESaIcEEES6_+0x5fc>
    1452:	48 8d 85 1f fe ff ff 	lea    -0x1e1(%rbp),%rax
    1459:	48 89 c7             	mov    %rax,%rdi
    145c:	e8 00 00 00 00       	callq  1461 <_Z9move_fileRKNSt7__cxx1112basic_stringIcSt11char_traitsIcESaIcEEES6_+0x60b>
    1461:	48 8d 85 80 fe ff ff 	lea    -0x180(%rbp),%rax
    1468:	48 89 c7             	mov    %rax,%rdi
    146b:	e8 00 00 00 00       	callq  1470 <_Z9move_fileRKNSt7__cxx1112basic_stringIcSt11char_traitsIcESaIcEEES6_+0x61a>
    1470:	48 8b 05 00 00 00 00 	mov    0x0(%rip),%rax        # 1477 <_Z9move_fileRKNSt7__cxx1112basic_stringIcSt11char_traitsIcESaIcEEES6_+0x621>
    1477:	48 89 c2             	mov    %rax,%rdx
    147a:	48 8d 35 00 00 00 00 	lea    0x0(%rip),%rsi        # 1481 <_Z9move_fileRKNSt7__cxx1112basic_stringIcSt11char_traitsIcESaIcEEES6_+0x62b>
    1481:	48 89 df             	mov    %rbx,%rdi
    1484:	e8 00 00 00 00       	callq  1489 <_Z9move_fileRKNSt7__cxx1112basic_stringIcSt11char_traitsIcESaIcEEES6_+0x633>
    1489:	48 8b 8d 00 fe ff ff 	mov    -0x200(%rbp),%rcx
    1490:	48 8b 85 08 fe ff ff 	mov    -0x1f8(%rbp),%rax
    1497:	ba 01 00 00 00       	mov    $0x1,%edx
    149c:	48 89 ce             	mov    %rcx,%rsi
    149f:	48 89 c7             	mov    %rax,%rdi
    14a2:	e8 00 00 00 00       	callq  14a7 <_Z9move_fileRKNSt7__cxx1112basic_stringIcSt11char_traitsIcESaIcEEES6_+0x651>
    14a7:	48 8b 85 08 fe ff ff 	mov    -0x1f8(%rbp),%rax
    14ae:	48 89 c7             	mov    %rax,%rdi
    14b1:	e8 00 00 00 00       	callq  14b6 <_Z9move_fileRKNSt7__cxx1112basic_stringIcSt11char_traitsIcESaIcEEES6_+0x660>
    14b6:	48 89 c7             	mov    %rax,%rdi
    14b9:	e8 00 00 00 00       	callq  14be <_Z9move_fileRKNSt7__cxx1112basic_stringIcSt11char_traitsIcESaIcEEES6_+0x668>
    14be:	85 c0                	test   %eax,%eax
    14c0:	0f 95 c0             	setne  %al
    14c3:	84 c0                	test   %al,%al
    14c5:	0f 84 17 01 00 00    	je     15e2 <_Z9move_fileRKNSt7__cxx1112basic_stringIcSt11char_traitsIcESaIcEEES6_+0x78c>
    14cb:	bf 20 00 00 00       	mov    $0x20,%edi
    14d0:	e8 00 00 00 00       	callq  14d5 <_Z9move_fileRKNSt7__cxx1112basic_stringIcSt11char_traitsIcESaIcEEES6_+0x67f>
    14d5:	48 89 c3             	mov    %rax,%rbx
    14d8:	48 8d 85 80 fe ff ff 	lea    -0x180(%rbp),%rax
    14df:	be 6a 00 00 00       	mov    $0x6a,%esi
    14e4:	48 89 c7             	mov    %rax,%rdi
    14e7:	e8 00 00 00 00       	callq  14ec <_Z9move_fileRKNSt7__cxx1112basic_stringIcSt11char_traitsIcESaIcEEES6_+0x696>
    14ec:	48 8d 85 1f fe ff ff 	lea    -0x1e1(%rbp),%rax
    14f3:	48 89 c7             	mov    %rax,%rdi
    14f6:	e8 00 00 00 00       	callq  14fb <_Z9move_fileRKNSt7__cxx1112basic_stringIcSt11char_traitsIcESaIcEEES6_+0x6a5>
    14fb:	48 8d 95 1f fe ff ff 	lea    -0x1e1(%rbp),%rdx
    1502:	48 8d 85 40 fe ff ff 	lea    -0x1c0(%rbp),%rax
    1509:	48 8d 35 00 00 00 00 	lea    0x0(%rip),%rsi        # 1510 <_Z9move_fileRKNSt7__cxx1112basic_stringIcSt11char_traitsIcESaIcEEES6_+0x6ba>
    1510:	48 89 c7             	mov    %rax,%rdi
    1513:	e8 00 00 00 00       	callq  1518 <_Z9move_fileRKNSt7__cxx1112basic_stringIcSt11char_traitsIcESaIcEEES6_+0x6c2>
    1518:	48 8d 85 60 fe ff ff 	lea    -0x1a0(%rbp),%rax
    151f:	48 8d 8d 40 fe ff ff 	lea    -0x1c0(%rbp),%rcx
    1526:	48 8d 15 00 00 00 00 	lea    0x0(%rip),%rdx        # 152d <_Z9move_fileRKNSt7__cxx1112basic_stringIcSt11char_traitsIcESaIcEEES6_+0x6d7>
    152d:	48 89 ce             	mov    %rcx,%rsi
    1530:	48 89 c7             	mov    %rax,%rdi
    1533:	e8 00 00 00 00       	callq  1538 <_Z9move_fileRKNSt7__cxx1112basic_stringIcSt11char_traitsIcESaIcEEES6_+0x6e2>
    1538:	48 8d 85 a0 fe ff ff 	lea    -0x160(%rbp),%rax
    153f:	48 8d 95 80 fe ff ff 	lea    -0x180(%rbp),%rdx
    1546:	48 8d 8d 60 fe ff ff 	lea    -0x1a0(%rbp),%rcx
    154d:	48 89 ce             	mov    %rcx,%rsi
    1550:	48 89 c7             	mov    %rax,%rdi
    1553:	e8 00 00 00 00       	callq  1558 <_Z9move_fileRKNSt7__cxx1112basic_stringIcSt11char_traitsIcESaIcEEES6_+0x702>
    1558:	e8 00 00 00 00       	callq  155d <_Z9move_fileRKNSt7__cxx1112basic_stringIcSt11char_traitsIcESaIcEEES6_+0x707>
    155d:	49 89 c4             	mov    %rax,%r12
    1560:	e8 00 00 00 00       	callq  1565 <_Z9move_fileRKNSt7__cxx1112basic_stringIcSt11char_traitsIcESaIcEEES6_+0x70f>
    1565:	8b 00                	mov    (%rax),%eax
    1567:	48 8d 95 a0 fe ff ff 	lea    -0x160(%rbp),%rdx
    156e:	48 89 d1             	mov    %rdx,%rcx
    1571:	4c 89 e2             	mov    %r12,%rdx
    1574:	89 c6                	mov    %eax,%esi
    1576:	48 89 df             	mov    %rbx,%rdi
    1579:	e8 00 00 00 00       	callq  157e <_Z9move_fileRKNSt7__cxx1112basic_stringIcSt11char_traitsIcESaIcEEES6_+0x728>
    157e:	48 8d 85 a0 fe ff ff 	lea    -0x160(%rbp),%rax
    1585:	48 89 c7             	mov    %rax,%rdi
    1588:	e8 00 00 00 00       	callq  158d <_Z9move_fileRKNSt7__cxx1112basic_stringIcSt11char_traitsIcESaIcEEES6_+0x737>
    158d:	48 8d 85 60 fe ff ff 	lea    -0x1a0(%rbp),%rax
    1594:	48 89 c7             	mov    %rax,%rdi
    1597:	e8 00 00 00 00       	callq  159c <_Z9move_fileRKNSt7__cxx1112basic_stringIcSt11char_traitsIcESaIcEEES6_+0x746>
    159c:	48 8d 85 40 fe ff ff 	lea    -0x1c0(%rbp),%rax
    15a3:	48 89 c7             	mov    %rax,%rdi
    15a6:	e8 00 00 00 00       	callq  15ab <_Z9move_fileRKNSt7__cxx1112basic_stringIcSt11char_traitsIcESaIcEEES6_+0x755>
    15ab:	48 8d 85 1f fe ff ff 	lea    -0x1e1(%rbp),%rax
    15b2:	48 89 c7             	mov    %rax,%rdi
    15b5:	e8 00 00 00 00       	callq  15ba <_Z9move_fileRKNSt7__cxx1112basic_stringIcSt11char_traitsIcESaIcEEES6_+0x764>
    15ba:	48 8d 85 80 fe ff ff 	lea    -0x180(%rbp),%rax
    15c1:	48 89 c7             	mov    %rax,%rdi
    15c4:	e8 00 00 00 00       	callq  15c9 <_Z9move_fileRKNSt7__cxx1112basic_stringIcSt11char_traitsIcESaIcEEES6_+0x773>
    15c9:	48 8b 05 00 00 00 00 	mov    0x0(%rip),%rax        # 15d0 <_Z9move_fileRKNSt7__cxx1112basic_stringIcSt11char_traitsIcESaIcEEES6_+0x77a>
    15d0:	48 89 c2             	mov    %rax,%rdx
    15d3:	48 8d 35 00 00 00 00 	lea    0x0(%rip),%rsi        # 15da <_Z9move_fileRKNSt7__cxx1112basic_stringIcSt11char_traitsIcESaIcEEES6_+0x784>
    15da:	48 89 df             	mov    %rbx,%rdi
    15dd:	e8 00 00 00 00       	callq  15e2 <_Z9move_fileRKNSt7__cxx1112basic_stringIcSt11char_traitsIcESaIcEEES6_+0x78c>
    15e2:	48 8d 85 20 fe ff ff 	lea    -0x1e0(%rbp),%rax
    15e9:	48 89 c7             	mov    %rax,%rdi
    15ec:	e8 00 00 00 00       	callq  15f1 <_Z9move_fileRKNSt7__cxx1112basic_stringIcSt11char_traitsIcESaIcEEES6_+0x79b>
    15f1:	90                   	nop
    15f2:	48 8b 45 e8          	mov    -0x18(%rbp),%rax
    15f6:	64 48 33 04 25 28 00 	xor    %fs:0x28,%rax
    15fd:	00 00 
    15ff:	0f 84 11 03 00 00    	je     1916 <_Z9move_fileRKNSt7__cxx1112basic_stringIcSt11char_traitsIcESaIcEEES6_+0xac0>
    1605:	e9 07 03 00 00       	jmpq   1911 <_Z9move_fileRKNSt7__cxx1112basic_stringIcSt11char_traitsIcESaIcEEES6_+0xabb>
    160a:	f3 0f 1e fa          	endbr64 
    160e:	49 89 c4             	mov    %rax,%r12
    1611:	48 8d 85 50 ff ff ff 	lea    -0xb0(%rbp),%rax
    1618:	48 89 c7             	mov    %rax,%rdi
    161b:	e8 00 00 00 00       	callq  1620 <_Z9move_fileRKNSt7__cxx1112basic_stringIcSt11char_traitsIcESaIcEEES6_+0x7ca>
    1620:	eb 07                	jmp    1629 <_Z9move_fileRKNSt7__cxx1112basic_stringIcSt11char_traitsIcESaIcEEES6_+0x7d3>
    1622:	f3 0f 1e fa          	endbr64 
    1626:	49 89 c4             	mov    %rax,%r12
    1629:	48 8d 85 80 fe ff ff 	lea    -0x180(%rbp),%rax
    1630:	48 89 c7             	mov    %rax,%rdi
    1633:	e8 00 00 00 00       	callq  1638 <_Z9move_fileRKNSt7__cxx1112basic_stringIcSt11char_traitsIcESaIcEEES6_+0x7e2>
    1638:	eb 07                	jmp    1641 <_Z9move_fileRKNSt7__cxx1112basic_stringIcSt11char_traitsIcESaIcEEES6_+0x7eb>
    163a:	f3 0f 1e fa          	endbr64 
    163e:	49 89 c4             	mov    %rax,%r12
    1641:	48 8d 85 60 fe ff ff 	lea    -0x1a0(%rbp),%rax
    1648:	48 89 c7             	mov    %rax,%rdi
    164b:	e8 00 00 00 00       	callq  1650 <_Z9move_fileRKNSt7__cxx1112basic_stringIcSt11char_traitsIcESaIcEEES6_+0x7fa>
    1650:	eb 07                	jmp    1659 <_Z9move_fileRKNSt7__cxx1112basic_stringIcSt11char_traitsIcESaIcEEES6_+0x803>
    1652:	f3 0f 1e fa          	endbr64 
    1656:	49 89 c4             	mov    %rax,%r12
    1659:	48 8d 85 1f fe ff ff 	lea    -0x1e1(%rbp),%rax
    1660:	48 89 c7             	mov    %rax,%rdi
    1663:	e8 00 00 00 00       	callq  1668 <_Z9move_fileRKNSt7__cxx1112basic_stringIcSt11char_traitsIcESaIcEEES6_+0x812>
    1668:	48 8d 85 a0 fe ff ff 	lea    -0x160(%rbp),%rax
    166f:	48 89 c7             	mov    %rax,%rdi
    1672:	e8 00 00 00 00       	callq  1677 <_Z9move_fileRKNSt7__cxx1112basic_stringIcSt11char_traitsIcESaIcEEES6_+0x821>
    1677:	eb 07                	jmp    1680 <_Z9move_fileRKNSt7__cxx1112basic_stringIcSt11char_traitsIcESaIcEEES6_+0x82a>
    1679:	f3 0f 1e fa          	endbr64 
    167d:	49 89 c4             	mov    %rax,%r12
    1680:	48 89 df             	mov    %rbx,%rdi
    1683:	e8 00 00 00 00       	callq  1688 <_Z9move_fileRKNSt7__cxx1112basic_stringIcSt11char_traitsIcESaIcEEES6_+0x832>
    1688:	4c 89 e0             	mov    %r12,%rax
    168b:	48 89 c7             	mov    %rax,%rdi
    168e:	e8 00 00 00 00       	callq  1693 <_Z9move_fileRKNSt7__cxx1112basic_stringIcSt11char_traitsIcESaIcEEES6_+0x83d>
    1693:	f3 0f 1e fa          	endbr64 
    1697:	49 89 c4             	mov    %rax,%r12
    169a:	48 8d 85 50 ff ff ff 	lea    -0xb0(%rbp),%rax
    16a1:	48 89 c7             	mov    %rax,%rdi
    16a4:	e8 00 00 00 00       	callq  16a9 <_Z9move_fileRKNSt7__cxx1112basic_stringIcSt11char_traitsIcESaIcEEES6_+0x853>
    16a9:	eb 07                	jmp    16b2 <_Z9move_fileRKNSt7__cxx1112basic_stringIcSt11char_traitsIcESaIcEEES6_+0x85c>
    16ab:	f3 0f 1e fa          	endbr64 
    16af:	49 89 c4             	mov    %rax,%r12
    16b2:	48 8d 85 80 fe ff ff 	lea    -0x180(%rbp),%rax
    16b9:	48 89 c7             	mov    %rax,%rdi
    16bc:	e8 00 00 00 00       	callq  16c1 <_Z9move_fileRKNSt7__cxx1112basic_stringIcSt11char_traitsIcESaIcEEES6_+0x86b>
    16c1:	eb 07                	jmp    16ca <_Z9move_fileRKNSt7__cxx1112basic_stringIcSt11char_traitsIcESaIcEEES6_+0x874>
    16c3:	f3 0f 1e fa          	endbr64 
    16c7:	49 89 c4             	mov    %rax,%r12
    16ca:	48 8d 85 60 fe ff ff 	lea    -0x1a0(%rbp),%rax
    16d1:	48 89 c7             	mov    %rax,%rdi
    16d4:	e8 00 00 00 00       	callq  16d9 <_Z9move_fileRKNSt7__cxx1112basic_stringIcSt11char_traitsIcESaIcEEES6_+0x883>
    16d9:	eb 07                	jmp    16e2 <_Z9move_fileRKNSt7__cxx1112basic_stringIcSt11char_traitsIcESaIcEEES6_+0x88c>
    16db:	f3 0f 1e fa          	endbr64 
    16df:	49 89 c4             	mov    %rax,%r12
    16e2:	48 8d 85 1f fe ff ff 	lea    -0x1e1(%rbp),%rax
    16e9:	48 89 c7             	mov    %rax,%rdi
    16ec:	e8 00 00 00 00       	callq  16f1 <_Z9move_fileRKNSt7__cxx1112basic_stringIcSt11char_traitsIcESaIcEEES6_+0x89b>
    16f1:	48 8d 85 a0 fe ff ff 	lea    -0x160(%rbp),%rax
    16f8:	48 89 c7             	mov    %rax,%rdi
    16fb:	e8 00 00 00 00       	callq  1700 <_Z9move_fileRKNSt7__cxx1112basic_stringIcSt11char_traitsIcESaIcEEES6_+0x8aa>
    1700:	eb 07                	jmp    1709 <_Z9move_fileRKNSt7__cxx1112basic_stringIcSt11char_traitsIcESaIcEEES6_+0x8b3>
    1702:	f3 0f 1e fa          	endbr64 
    1706:	49 89 c4             	mov    %rax,%r12
    1709:	48 89 df             	mov    %rbx,%rdi
    170c:	e8 00 00 00 00       	callq  1711 <_Z9move_fileRKNSt7__cxx1112basic_stringIcSt11char_traitsIcESaIcEEES6_+0x8bb>
    1711:	4c 89 e0             	mov    %r12,%rax
    1714:	48 89 c7             	mov    %rax,%rdi
    1717:	e8 00 00 00 00       	callq  171c <_Z9move_fileRKNSt7__cxx1112basic_stringIcSt11char_traitsIcESaIcEEES6_+0x8c6>
    171c:	f3 0f 1e fa          	endbr64 
    1720:	49 89 c4             	mov    %rax,%r12
    1723:	48 8d 85 a0 fe ff ff 	lea    -0x160(%rbp),%rax
    172a:	48 89 c7             	mov    %rax,%rdi
    172d:	e8 00 00 00 00       	callq  1732 <_Z9move_fileRKNSt7__cxx1112basic_stringIcSt11char_traitsIcESaIcEEES6_+0x8dc>
    1732:	eb 07                	jmp    173b <_Z9move_fileRKNSt7__cxx1112basic_stringIcSt11char_traitsIcESaIcEEES6_+0x8e5>
    1734:	f3 0f 1e fa          	endbr64 
    1738:	49 89 c4             	mov    %rax,%r12
    173b:	48 8d 85 60 fe ff ff 	lea    -0x1a0(%rbp),%rax
    1742:	48 89 c7             	mov    %rax,%rdi
    1745:	e8 00 00 00 00       	callq  174a <_Z9move_fileRKNSt7__cxx1112basic_stringIcSt11char_traitsIcESaIcEEES6_+0x8f4>
    174a:	eb 07                	jmp    1753 <_Z9move_fileRKNSt7__cxx1112basic_stringIcSt11char_traitsIcESaIcEEES6_+0x8fd>
    174c:	f3 0f 1e fa          	endbr64 
    1750:	49 89 c4             	mov    %rax,%r12
    1753:	48 8d 85 40 fe ff ff 	lea    -0x1c0(%rbp),%rax
    175a:	48 89 c7             	mov    %rax,%rdi
    175d:	e8 00 00 00 00       	callq  1762 <_Z9move_fileRKNSt7__cxx1112basic_stringIcSt11char_traitsIcESaIcEEES6_+0x90c>
    1762:	eb 07                	jmp    176b <_Z9move_fileRKNSt7__cxx1112basic_stringIcSt11char_traitsIcESaIcEEES6_+0x915>
    1764:	f3 0f 1e fa          	endbr64 
    1768:	49 89 c4             	mov    %rax,%r12
    176b:	48 8d 85 1f fe ff ff 	lea    -0x1e1(%rbp),%rax
    1772:	48 89 c7             	mov    %rax,%rdi
    1775:	e8 00 00 00 00       	callq  177a <_Z9move_fileRKNSt7__cxx1112basic_stringIcSt11char_traitsIcESaIcEEES6_+0x924>
    177a:	48 8d 85 80 fe ff ff 	lea    -0x180(%rbp),%rax
    1781:	48 89 c7             	mov    %rax,%rdi
    1784:	e8 00 00 00 00       	callq  1789 <_Z9move_fileRKNSt7__cxx1112basic_stringIcSt11char_traitsIcESaIcEEES6_+0x933>
    1789:	eb 07                	jmp    1792 <_Z9move_fileRKNSt7__cxx1112basic_stringIcSt11char_traitsIcESaIcEEES6_+0x93c>
    178b:	f3 0f 1e fa          	endbr64 
    178f:	49 89 c4             	mov    %rax,%r12
    1792:	48 89 df             	mov    %rbx,%rdi
    1795:	e8 00 00 00 00       	callq  179a <_Z9move_fileRKNSt7__cxx1112basic_stringIcSt11char_traitsIcESaIcEEES6_+0x944>
    179a:	4c 89 e0             	mov    %r12,%rax
    179d:	48 89 c7             	mov    %rax,%rdi
    17a0:	e8 00 00 00 00       	callq  17a5 <_Z9move_fileRKNSt7__cxx1112basic_stringIcSt11char_traitsIcESaIcEEES6_+0x94f>
    17a5:	f3 0f 1e fa          	endbr64 
    17a9:	48 89 c3             	mov    %rax,%rbx
    17ac:	48 8d 85 1f fe ff ff 	lea    -0x1e1(%rbp),%rax
    17b3:	48 89 c7             	mov    %rax,%rdi
    17b6:	e8 00 00 00 00       	callq  17bb <_Z9move_fileRKNSt7__cxx1112basic_stringIcSt11char_traitsIcESaIcEEES6_+0x965>
    17bb:	eb 16                	jmp    17d3 <_Z9move_fileRKNSt7__cxx1112basic_stringIcSt11char_traitsIcESaIcEEES6_+0x97d>
    17bd:	f3 0f 1e fa          	endbr64 
    17c1:	48 89 c3             	mov    %rax,%rbx
    17c4:	48 8d 85 80 fe ff ff 	lea    -0x180(%rbp),%rax
    17cb:	48 89 c7             	mov    %rax,%rdi
    17ce:	e8 00 00 00 00       	callq  17d3 <_Z9move_fileRKNSt7__cxx1112basic_stringIcSt11char_traitsIcESaIcEEES6_+0x97d>
    17d3:	48 8d 85 60 fe ff ff 	lea    -0x1a0(%rbp),%rax
    17da:	48 89 c7             	mov    %rax,%rdi
    17dd:	e8 00 00 00 00       	callq  17e2 <_Z9move_fileRKNSt7__cxx1112basic_stringIcSt11char_traitsIcESaIcEEES6_+0x98c>
    17e2:	e9 10 01 00 00       	jmpq   18f7 <_Z9move_fileRKNSt7__cxx1112basic_stringIcSt11char_traitsIcESaIcEEES6_+0xaa1>
    17e7:	f3 0f 1e fa          	endbr64 
    17eb:	49 89 c4             	mov    %rax,%r12
    17ee:	48 8d 85 a0 fe ff ff 	lea    -0x160(%rbp),%rax
    17f5:	48 89 c7             	mov    %rax,%rdi
    17f8:	e8 00 00 00 00       	callq  17fd <_Z9move_fileRKNSt7__cxx1112basic_stringIcSt11char_traitsIcESaIcEEES6_+0x9a7>
    17fd:	eb 07                	jmp    1806 <_Z9move_fileRKNSt7__cxx1112basic_stringIcSt11char_traitsIcESaIcEEES6_+0x9b0>
    17ff:	f3 0f 1e fa          	endbr64 
    1803:	49 89 c4             	mov    %rax,%r12
    1806:	48 8d 85 60 fe ff ff 	lea    -0x1a0(%rbp),%rax
    180d:	48 89 c7             	mov    %rax,%rdi
    1810:	e8 00 00 00 00       	callq  1815 <_Z9move_fileRKNSt7__cxx1112basic_stringIcSt11char_traitsIcESaIcEEES6_+0x9bf>
    1815:	eb 07                	jmp    181e <_Z9move_fileRKNSt7__cxx1112basic_stringIcSt11char_traitsIcESaIcEEES6_+0x9c8>
    1817:	f3 0f 1e fa          	endbr64 
    181b:	49 89 c4             	mov    %rax,%r12
    181e:	48 8d 85 40 fe ff ff 	lea    -0x1c0(%rbp),%rax
    1825:	48 89 c7             	mov    %rax,%rdi
    1828:	e8 00 00 00 00       	callq  182d <_Z9move_fileRKNSt7__cxx1112basic_stringIcSt11char_traitsIcESaIcEEES6_+0x9d7>
    182d:	eb 07                	jmp    1836 <_Z9move_fileRKNSt7__cxx1112basic_stringIcSt11char_traitsIcESaIcEEES6_+0x9e0>
    182f:	f3 0f 1e fa          	endbr64 
    1833:	49 89 c4             	mov    %rax,%r12
    1836:	48 8d 85 1f fe ff ff 	lea    -0x1e1(%rbp),%rax
    183d:	48 89 c7             	mov    %rax,%rdi
    1840:	e8 00 00 00 00       	callq  1845 <_Z9move_fileRKNSt7__cxx1112basic_stringIcSt11char_traitsIcESaIcEEES6_+0x9ef>
    1845:	48 8d 85 80 fe ff ff 	lea    -0x180(%rbp),%rax
    184c:	48 89 c7             	mov    %rax,%rdi
    184f:	e8 00 00 00 00       	callq  1854 <_Z9move_fileRKNSt7__cxx1112basic_stringIcSt11char_traitsIcESaIcEEES6_+0x9fe>
    1854:	eb 07                	jmp    185d <_Z9move_fileRKNSt7__cxx1112basic_stringIcSt11char_traitsIcESaIcEEES6_+0xa07>
    1856:	f3 0f 1e fa          	endbr64 
    185a:	49 89 c4             	mov    %rax,%r12
    185d:	48 89 df             	mov    %rbx,%rdi
    1860:	e8 00 00 00 00       	callq  1865 <_Z9move_fileRKNSt7__cxx1112basic_stringIcSt11char_traitsIcESaIcEEES6_+0xa0f>
    1865:	4c 89 e3             	mov    %r12,%rbx
    1868:	e9 8a 00 00 00       	jmpq   18f7 <_Z9move_fileRKNSt7__cxx1112basic_stringIcSt11char_traitsIcESaIcEEES6_+0xaa1>
    186d:	f3 0f 1e fa          	endbr64 
    1871:	49 89 c4             	mov    %rax,%r12
    1874:	48 8d 85 a0 fe ff ff 	lea    -0x160(%rbp),%rax
    187b:	48 89 c7             	mov    %rax,%rdi
    187e:	e8 00 00 00 00       	callq  1883 <_Z9move_fileRKNSt7__cxx1112basic_stringIcSt11char_traitsIcESaIcEEES6_+0xa2d>
    1883:	eb 07                	jmp    188c <_Z9move_fileRKNSt7__cxx1112basic_stringIcSt11char_traitsIcESaIcEEES6_+0xa36>
    1885:	f3 0f 1e fa          	endbr64 
    1889:	49 89 c4             	mov    %rax,%r12
    188c:	48 8d 85 60 fe ff ff 	lea    -0x1a0(%rbp),%rax
    1893:	48 89 c7             	mov    %rax,%rdi
    1896:	e8 00 00 00 00       	callq  189b <_Z9move_fileRKNSt7__cxx1112basic_stringIcSt11char_traitsIcESaIcEEES6_+0xa45>
    189b:	eb 07                	jmp    18a4 <_Z9move_fileRKNSt7__cxx1112basic_stringIcSt11char_traitsIcESaIcEEES6_+0xa4e>
    189d:	f3 0f 1e fa          	endbr64 
    18a1:	49 89 c4             	mov    %rax,%r12
    18a4:	48 8d 85 40 fe ff ff 	lea    -0x1c0(%rbp),%rax
    18ab:	48 89 c7             	mov    %rax,%rdi
    18ae:	e8 00 00 00 00       	callq  18b3 <_Z9move_fileRKNSt7__cxx1112basic_stringIcSt11char_traitsIcESaIcEEES6_+0xa5d>
    18b3:	eb 07                	jmp    18bc <_Z9move_fileRKNSt7__cxx1112basic_stringIcSt11char_traitsIcESaIcEEES6_+0xa66>
    18b5:	f3 0f 1e fa          	endbr64 
    18b9:	49 89 c4             	mov    %rax,%r12
    18bc:	48 8d 85 1f fe ff ff 	lea    -0x1e1(%rbp),%rax
    18c3:	48 89 c7             	mov    %rax,%rdi
    18c6:	e8 00 00 00 00       	callq  18cb <_Z9move_fileRKNSt7__cxx1112basic_stringIcSt11char_traitsIcESaIcEEES6_+0xa75>
    18cb:	48 8d 85 80 fe ff ff 	lea    -0x180(%rbp),%rax
    18d2:	48 89 c7             	mov    %rax,%rdi
    18d5:	e8 00 00 00 00       	callq  18da <_Z9move_fileRKNSt7__cxx1112basic_stringIcSt11char_traitsIcESaIcEEES6_+0xa84>
    18da:	eb 07                	jmp    18e3 <_Z9move_fileRKNSt7__cxx1112basic_stringIcSt11char_traitsIcESaIcEEES6_+0xa8d>
    18dc:	f3 0f 1e fa          	endbr64 
    18e0:	49 89 c4             	mov    %rax,%r12
    18e3:	48 89 df             	mov    %rbx,%rdi
    18e6:	e8 00 00 00 00       	callq  18eb <_Z9move_fileRKNSt7__cxx1112basic_stringIcSt11char_traitsIcESaIcEEES6_+0xa95>
    18eb:	4c 89 e3             	mov    %r12,%rbx
    18ee:	eb 07                	jmp    18f7 <_Z9move_fileRKNSt7__cxx1112basic_stringIcSt11char_traitsIcESaIcEEES6_+0xaa1>
    18f0:	f3 0f 1e fa          	endbr64 
    18f4:	48 89 c3             	mov    %rax,%rbx
    18f7:	48 8d 85 20 fe ff ff 	lea    -0x1e0(%rbp),%rax
    18fe:	48 89 c7             	mov    %rax,%rdi
    1901:	e8 00 00 00 00       	callq  1906 <_Z9move_fileRKNSt7__cxx1112basic_stringIcSt11char_traitsIcESaIcEEES6_+0xab0>
    1906:	48 89 d8             	mov    %rbx,%rax
    1909:	48 89 c7             	mov    %rax,%rdi
    190c:	e8 00 00 00 00       	callq  1911 <_Z9move_fileRKNSt7__cxx1112basic_stringIcSt11char_traitsIcESaIcEEES6_+0xabb>
    1911:	e8 00 00 00 00       	callq  1916 <_Z9move_fileRKNSt7__cxx1112basic_stringIcSt11char_traitsIcESaIcEEES6_+0xac0>
    1916:	48 81 c4 f0 01 00 00 	add    $0x1f0,%rsp
    191d:	5b                   	pop    %rbx
    191e:	41 5c                	pop    %r12
    1920:	5d                   	pop    %rbp
    1921:	c3                   	retq   

0000000000001922 <_Z12print_prompti>:
    1922:	f3 0f 1e fa          	endbr64 
    1926:	55                   	push   %rbp
    1927:	48 89 e5             	mov    %rsp,%rbp
    192a:	41 54                	push   %r12
    192c:	53                   	push   %rbx
    192d:	48 81 ec 30 01 00 00 	sub    $0x130,%rsp
    1934:	89 bd cc fe ff ff    	mov    %edi,-0x134(%rbp)
    193a:	64 48 8b 04 25 28 00 	mov    %fs:0x28,%rax
    1941:	00 00 
    1943:	48 89 45 e8          	mov    %rax,-0x18(%rbp)
    1947:	31 c0                	xor    %eax,%eax
    1949:	48 8d 85 e0 fe ff ff 	lea    -0x120(%rbp),%rax
    1950:	48 89 c7             	mov    %rax,%rdi
    1953:	e8 00 00 00 00       	callq  1958 <_Z12print_prompti+0x36>
    1958:	bf 00 00 00 00       	mov    $0x0,%edi
    195d:	e8 00 00 00 00       	callq  1962 <_Z12print_prompti+0x40>
    1962:	85 c0                	test   %eax,%eax
    1964:	0f 95 c0             	setne  %al
    1967:	84 c0                	test   %al,%al
    1969:	0f 84 04 02 00 00    	je     1b73 <_Z12print_prompti+0x251>
    196f:	48 8d 85 d7 fe ff ff 	lea    -0x129(%rbp),%rax
    1976:	48 89 c7             	mov    %rax,%rdi
    1979:	e8 00 00 00 00       	callq  197e <_Z12print_prompti+0x5c>
    197e:	e8 00 00 00 00       	callq  1983 <_Z12print_prompti+0x61>
    1983:	48 89 c1             	mov    %rax,%rcx
    1986:	48 8d 95 d7 fe ff ff 	lea    -0x129(%rbp),%rdx
    198d:	48 8d 85 00 ff ff ff 	lea    -0x100(%rbp),%rax
    1994:	48 89 ce             	mov    %rcx,%rsi
    1997:	48 89 c7             	mov    %rax,%rdi
    199a:	e8 00 00 00 00       	callq  199f <_Z12print_prompti+0x7d>
    199f:	48 8d 85 d7 fe ff ff 	lea    -0x129(%rbp),%rax
    19a6:	48 89 c7             	mov    %rax,%rdi
    19a9:	e8 00 00 00 00       	callq  19ae <_Z12print_prompti+0x8c>
    19ae:	48 8d 85 20 ff ff ff 	lea    -0xe0(%rbp),%rax
    19b5:	48 89 c7             	mov    %rax,%rdi
    19b8:	e8 00 00 00 00       	callq  19bd <_Z12print_prompti+0x9b>
    19bd:	48 8d 85 40 ff ff ff 	lea    -0xc0(%rbp),%rax
    19c4:	48 89 c7             	mov    %rax,%rdi
    19c7:	e8 00 00 00 00       	callq  19cc <_Z12print_prompti+0xaa>
    19cc:	48 8d 85 20 ff ff ff 	lea    -0xe0(%rbp),%rax
    19d3:	48 89 c7             	mov    %rax,%rdi
    19d6:	e8 00 00 00 00       	callq  19db <_Z12print_prompti+0xb9>
    19db:	48 89 c3             	mov    %rax,%rbx
    19de:	48 8d 85 20 ff ff ff 	lea    -0xe0(%rbp),%rax
    19e5:	48 89 c7             	mov    %rax,%rdi
    19e8:	e8 00 00 00 00       	callq  19ed <_Z12print_prompti+0xcb>
    19ed:	48 89 de             	mov    %rbx,%rsi
    19f0:	48 89 c7             	mov    %rax,%rdi
    19f3:	e8 00 00 00 00       	callq  19f8 <_Z12print_prompti+0xd6>
    19f8:	48 8d 85 40 ff ff ff 	lea    -0xc0(%rbp),%rax
    19ff:	48 89 c7             	mov    %rax,%rdi
    1a02:	e8 00 00 00 00       	callq  1a07 <_Z12print_prompti+0xe5>
    1a07:	48 89 c3             	mov    %rax,%rbx
    1a0a:	48 8d 85 40 ff ff ff 	lea    -0xc0(%rbp),%rax
    1a11:	48 89 c7             	mov    %rax,%rdi
    1a14:	e8 00 00 00 00       	callq  1a19 <_Z12print_prompti+0xf7>
    1a19:	48 89 de             	mov    %rbx,%rsi
    1a1c:	48 89 c7             	mov    %rax,%rdi
    1a1f:	e8 00 00 00 00       	callq  1a24 <_Z12print_prompti+0x102>
    1a24:	48 8d 85 60 ff ff ff 	lea    -0xa0(%rbp),%rax
    1a2b:	48 8d 8d 00 ff ff ff 	lea    -0x100(%rbp),%rcx
    1a32:	48 8d 15 00 00 00 00 	lea    0x0(%rip),%rdx        # 1a39 <_Z12print_prompti+0x117>
    1a39:	48 89 ce             	mov    %rcx,%rsi
    1a3c:	48 89 c7             	mov    %rax,%rdi
    1a3f:	e8 00 00 00 00       	callq  1a44 <_Z12print_prompti+0x122>
    1a44:	48 8d 45 80          	lea    -0x80(%rbp),%rax
    1a48:	48 8d 95 20 ff ff ff 	lea    -0xe0(%rbp),%rdx
    1a4f:	48 8d 8d 60 ff ff ff 	lea    -0xa0(%rbp),%rcx
    1a56:	48 89 ce             	mov    %rcx,%rsi
    1a59:	48 89 c7             	mov    %rax,%rdi
    1a5c:	e8 00 00 00 00       	callq  1a61 <_Z12print_prompti+0x13f>
    1a61:	48 8d 45 a0          	lea    -0x60(%rbp),%rax
    1a65:	48 8d 4d 80          	lea    -0x80(%rbp),%rcx
    1a69:	48 8d 15 00 00 00 00 	lea    0x0(%rip),%rdx        # 1a70 <_Z12print_prompti+0x14e>
    1a70:	48 89 ce             	mov    %rcx,%rsi
    1a73:	48 89 c7             	mov    %rax,%rdi
    1a76:	e8 00 00 00 00       	callq  1a7b <_Z12print_prompti+0x159>
    1a7b:	48 8d 45 c0          	lea    -0x40(%rbp),%rax
    1a7f:	48 8d 95 40 ff ff ff 	lea    -0xc0(%rbp),%rdx
    1a86:	48 8d 4d a0          	lea    -0x60(%rbp),%rcx
    1a8a:	48 89 ce             	mov    %rcx,%rsi
    1a8d:	48 89 c7             	mov    %rax,%rdi
    1a90:	e8 00 00 00 00       	callq  1a95 <_Z12print_prompti+0x173>
    1a95:	48 8d 55 c0          	lea    -0x40(%rbp),%rdx
    1a99:	48 8d 85 e0 fe ff ff 	lea    -0x120(%rbp),%rax
    1aa0:	48 89 d6             	mov    %rdx,%rsi
    1aa3:	48 89 c7             	mov    %rax,%rdi
    1aa6:	e8 00 00 00 00       	callq  1aab <_Z12print_prompti+0x189>
    1aab:	48 8d 45 c0          	lea    -0x40(%rbp),%rax
    1aaf:	48 89 c7             	mov    %rax,%rdi
    1ab2:	e8 00 00 00 00       	callq  1ab7 <_Z12print_prompti+0x195>
    1ab7:	48 8d 45 a0          	lea    -0x60(%rbp),%rax
    1abb:	48 89 c7             	mov    %rax,%rdi
    1abe:	e8 00 00 00 00       	callq  1ac3 <_Z12print_prompti+0x1a1>
    1ac3:	48 8d 45 80          	lea    -0x80(%rbp),%rax
    1ac7:	48 89 c7             	mov    %rax,%rdi
    1aca:	e8 00 00 00 00       	callq  1acf <_Z12print_prompti+0x1ad>
    1acf:	48 8d 85 60 ff ff ff 	lea    -0xa0(%rbp),%rax
    1ad6:	48 89 c7             	mov    %rax,%rdi
    1ad9:	e8 00 00 00 00       	callq  1ade <_Z12print_prompti+0x1bc>
    1ade:	83 bd cc fe ff ff 00 	cmpl   $0x0,-0x134(%rbp)
    1ae5:	75 18                	jne    1aff <_Z12print_prompti+0x1dd>
    1ae7:	48 8d 85 e0 fe ff ff 	lea    -0x120(%rbp),%rax
    1aee:	48 8d 35 00 00 00 00 	lea    0x0(%rip),%rsi        # 1af5 <_Z12print_prompti+0x1d3>
    1af5:	48 89 c7             	mov    %rax,%rdi
    1af8:	e8 00 00 00 00       	callq  1afd <_Z12print_prompti+0x1db>
    1afd:	eb 16                	jmp    1b15 <_Z12print_prompti+0x1f3>
    1aff:	48 8d 85 e0 fe ff ff 	lea    -0x120(%rbp),%rax
    1b06:	48 8d 35 00 00 00 00 	lea    0x0(%rip),%rsi        # 1b0d <_Z12print_prompti+0x1eb>
    1b0d:	48 89 c7             	mov    %rax,%rdi
    1b10:	e8 00 00 00 00       	callq  1b15 <_Z12print_prompti+0x1f3>
    1b15:	48 8d 85 e0 fe ff ff 	lea    -0x120(%rbp),%rax
    1b1c:	48 89 c7             	mov    %rax,%rdi
    1b1f:	e8 00 00 00 00       	callq  1b24 <_Z12print_prompti+0x202>
    1b24:	48 89 c3             	mov    %rax,%rbx
    1b27:	48 8d 85 e0 fe ff ff 	lea    -0x120(%rbp),%rax
    1b2e:	48 89 c7             	mov    %rax,%rdi
    1b31:	e8 00 00 00 00       	callq  1b36 <_Z12print_prompti+0x214>
    1b36:	48 89 da             	mov    %rbx,%rdx
    1b39:	48 89 c6             	mov    %rax,%rsi
    1b3c:	bf 00 00 00 00       	mov    $0x0,%edi
    1b41:	e8 00 00 00 00       	callq  1b46 <_Z12print_prompti+0x224>
    1b46:	48 8d 85 40 ff ff ff 	lea    -0xc0(%rbp),%rax
    1b4d:	48 89 c7             	mov    %rax,%rdi
    1b50:	e8 00 00 00 00       	callq  1b55 <_Z12print_prompti+0x233>
    1b55:	48 8d 85 20 ff ff ff 	lea    -0xe0(%rbp),%rax
    1b5c:	48 89 c7             	mov    %rax,%rdi
    1b5f:	e8 00 00 00 00       	callq  1b64 <_Z12print_prompti+0x242>
    1b64:	48 8d 85 00 ff ff ff 	lea    -0x100(%rbp),%rax
    1b6b:	48 89 c7             	mov    %rax,%rdi
    1b6e:	e8 00 00 00 00       	callq  1b73 <_Z12print_prompti+0x251>
    1b73:	48 8d 85 e0 fe ff ff 	lea    -0x120(%rbp),%rax
    1b7a:	48 89 c7             	mov    %rax,%rdi
    1b7d:	e8 00 00 00 00       	callq  1b82 <_Z12print_prompti+0x260>
    1b82:	90                   	nop
    1b83:	48 8b 45 e8          	mov    -0x18(%rbp),%rax
    1b87:	64 48 33 04 25 28 00 	xor    %fs:0x28,%rax
    1b8e:	00 00 
    1b90:	0f 84 53 01 00 00    	je     1ce9 <_Z12print_prompti+0x3c7>
    1b96:	e9 49 01 00 00       	jmpq   1ce4 <_Z12print_prompti+0x3c2>
    1b9b:	f3 0f 1e fa          	endbr64 
    1b9f:	49 89 c4             	mov    %rax,%r12
    1ba2:	48 89 d3             	mov    %rdx,%rbx
    1ba5:	48 8d 85 d7 fe ff ff 	lea    -0x129(%rbp),%rax
    1bac:	48 89 c7             	mov    %rax,%rdi
    1baf:	e8 00 00 00 00       	callq  1bb4 <_Z12print_prompti+0x292>
    1bb4:	4c 89 e0             	mov    %r12,%rax
    1bb7:	48 89 da             	mov    %rbx,%rdx
    1bba:	e9 88 00 00 00       	jmpq   1c47 <_Z12print_prompti+0x325>
    1bbf:	f3 0f 1e fa          	endbr64 
    1bc3:	49 89 c4             	mov    %rax,%r12
    1bc6:	48 89 d3             	mov    %rdx,%rbx
    1bc9:	48 8d 45 a0          	lea    -0x60(%rbp),%rax
    1bcd:	48 89 c7             	mov    %rax,%rdi
    1bd0:	e8 00 00 00 00       	callq  1bd5 <_Z12print_prompti+0x2b3>
    1bd5:	eb 0a                	jmp    1be1 <_Z12print_prompti+0x2bf>
    1bd7:	f3 0f 1e fa          	endbr64 
    1bdb:	49 89 c4             	mov    %rax,%r12
    1bde:	48 89 d3             	mov    %rdx,%rbx
    1be1:	48 8d 45 80          	lea    -0x80(%rbp),%rax
    1be5:	48 89 c7             	mov    %rax,%rdi
    1be8:	e8 00 00 00 00       	callq  1bed <_Z12print_prompti+0x2cb>
    1bed:	eb 0a                	jmp    1bf9 <_Z12print_prompti+0x2d7>
    1bef:	f3 0f 1e fa          	endbr64 
    1bf3:	49 89 c4             	mov    %rax,%r12
    1bf6:	48 89 d3             	mov    %rdx,%rbx
    1bf9:	48 8d 85 60 ff ff ff 	lea    -0xa0(%rbp),%rax
    1c00:	48 89 c7             	mov    %rax,%rdi
    1c03:	e8 00 00 00 00       	callq  1c08 <_Z12print_prompti+0x2e6>
    1c08:	eb 0a                	jmp    1c14 <_Z12print_prompti+0x2f2>
    1c0a:	f3 0f 1e fa          	endbr64 
    1c0e:	49 89 c4             	mov    %rax,%r12
    1c11:	48 89 d3             	mov    %rdx,%rbx
    1c14:	48 8d 85 40 ff ff ff 	lea    -0xc0(%rbp),%rax
    1c1b:	48 89 c7             	mov    %rax,%rdi
    1c1e:	e8 00 00 00 00       	callq  1c23 <_Z12print_prompti+0x301>
    1c23:	48 8d 85 20 ff ff ff 	lea    -0xe0(%rbp),%rax
    1c2a:	48 89 c7             	mov    %rax,%rdi
    1c2d:	e8 00 00 00 00       	callq  1c32 <_Z12print_prompti+0x310>
    1c32:	48 8d 85 00 ff ff ff 	lea    -0x100(%rbp),%rax
    1c39:	48 89 c7             	mov    %rax,%rdi
    1c3c:	e8 00 00 00 00       	callq  1c41 <_Z12print_prompti+0x31f>
    1c41:	4c 89 e0             	mov    %r12,%rax
    1c44:	48 89 da             	mov    %rbx,%rdx
    1c47:	48 83 fa 01          	cmp    $0x1,%rdx
    1c4b:	74 05                	je     1c52 <_Z12print_prompti+0x330>
    1c4d:	48 89 c3             	mov    %rax,%rbx
    1c50:	eb 78                	jmp    1cca <_Z12print_prompti+0x3a8>
    1c52:	48 89 c7             	mov    %rax,%rdi
    1c55:	e8 00 00 00 00       	callq  1c5a <_Z12print_prompti+0x338>
    1c5a:	48 89 85 d8 fe ff ff 	mov    %rax,-0x128(%rbp)
    1c61:	48 8d 35 00 00 00 00 	lea    0x0(%rip),%rsi        # 1c68 <_Z12print_prompti+0x346>
    1c68:	48 8d 3d 00 00 00 00 	lea    0x0(%rip),%rdi        # 1c6f <_Z12print_prompti+0x34d>
    1c6f:	e8 00 00 00 00       	callq  1c74 <_Z12print_prompti+0x352>
    1c74:	48 89 c3             	mov    %rax,%rbx
    1c77:	48 8b 85 d8 fe ff ff 	mov    -0x128(%rbp),%rax
    1c7e:	48 8b 95 d8 fe ff ff 	mov    -0x128(%rbp),%rdx
    1c85:	48 8b 12             	mov    (%rdx),%rdx
    1c88:	48 83 c2 10          	add    $0x10,%rdx
    1c8c:	48 8b 12             	mov    (%rdx),%rdx
    1c8f:	48 89 c7             	mov    %rax,%rdi
    1c92:	ff d2                	callq  *%rdx
    1c94:	48 89 c6             	mov    %rax,%rsi
    1c97:	48 89 df             	mov    %rbx,%rdi
    1c9a:	e8 00 00 00 00       	callq  1c9f <_Z12print_prompti+0x37d>
    1c9f:	48 89 c2             	mov    %rax,%rdx
    1ca2:	48 8b 05 00 00 00 00 	mov    0x0(%rip),%rax        # 1ca9 <_Z12print_prompti+0x387>
    1ca9:	48 89 c6             	mov    %rax,%rsi
    1cac:	48 89 d7             	mov    %rdx,%rdi
    1caf:	e8 00 00 00 00       	callq  1cb4 <_Z12print_prompti+0x392>
    1cb4:	e8 00 00 00 00       	callq  1cb9 <_Z12print_prompti+0x397>
    1cb9:	e9 b5 fe ff ff       	jmpq   1b73 <_Z12print_prompti+0x251>
    1cbe:	f3 0f 1e fa          	endbr64 
    1cc2:	48 89 c3             	mov    %rax,%rbx
    1cc5:	e8 00 00 00 00       	callq  1cca <_Z12print_prompti+0x3a8>
    1cca:	48 8d 85 e0 fe ff ff 	lea    -0x120(%rbp),%rax
    1cd1:	48 89 c7             	mov    %rax,%rdi
    1cd4:	e8 00 00 00 00       	callq  1cd9 <_Z12print_prompti+0x3b7>
    1cd9:	48 89 d8             	mov    %rbx,%rax
    1cdc:	48 89 c7             	mov    %rax,%rdi
    1cdf:	e8 00 00 00 00       	callq  1ce4 <_Z12print_prompti+0x3c2>
    1ce4:	e8 00 00 00 00       	callq  1ce9 <_Z12print_prompti+0x3c7>
    1ce9:	48 81 c4 30 01 00 00 	add    $0x130,%rsp
    1cf0:	5b                   	pop    %rbx
    1cf1:	41 5c                	pop    %r12
    1cf3:	5d                   	pop    %rbp
    1cf4:	c3                   	retq   

0000000000001cf5 <_Z9read_lineiRNSt7__cxx1112basic_stringIcSt11char_traitsIcESaIcEEE>:
    1cf5:	f3 0f 1e fa          	endbr64 
    1cf9:	55                   	push   %rbp
    1cfa:	48 89 e5             	mov    %rsp,%rbp
    1cfd:	41 56                	push   %r14
    1cff:	41 55                	push   %r13
    1d01:	41 54                	push   %r12
    1d03:	53                   	push   %rbx
    1d04:	48 81 ec 90 00 00 00 	sub    $0x90,%rsp
    1d0b:	89 bd 5c ff ff ff    	mov    %edi,-0xa4(%rbp)
    1d11:	48 89 b5 50 ff ff ff 	mov    %rsi,-0xb0(%rbp)
    1d18:	64 48 8b 04 25 28 00 	mov    %fs:0x28,%rax
    1d1f:	00 00 
    1d21:	48 89 45 d8          	mov    %rax,-0x28(%rbp)
    1d25:	31 c0                	xor    %eax,%eax
    1d27:	48 8d 45 a0          	lea    -0x60(%rbp),%rax
    1d2b:	48 89 c7             	mov    %rax,%rdi
    1d2e:	e8 00 00 00 00       	callq  1d33 <_Z9read_lineiRNSt7__cxx1112basic_stringIcSt11char_traitsIcESaIcEEE+0x3e>
    1d33:	c6 45 c0 0a          	movb   $0xa,-0x40(%rbp)
    1d37:	48 8d 45 a0          	lea    -0x60(%rbp),%rax
    1d3b:	48 89 c7             	mov    %rax,%rdi
    1d3e:	e8 00 00 00 00       	callq  1d43 <_Z9read_lineiRNSt7__cxx1112basic_stringIcSt11char_traitsIcESaIcEEE+0x4e>
    1d43:	48 89 c3             	mov    %rax,%rbx
    1d46:	48 8d 45 a0          	lea    -0x60(%rbp),%rax
    1d4a:	48 89 c7             	mov    %rax,%rdi
    1d4d:	e8 00 00 00 00       	callq  1d52 <_Z9read_lineiRNSt7__cxx1112basic_stringIcSt11char_traitsIcESaIcEEE+0x5d>
    1d52:	48 89 c1             	mov    %rax,%rcx
    1d55:	48 8d 45 c0          	lea    -0x40(%rbp),%rax
    1d59:	48 89 c2             	mov    %rax,%rdx
    1d5c:	48 89 de             	mov    %rbx,%rsi
    1d5f:	48 89 cf             	mov    %rcx,%rdi
    1d62:	e8 00 00 00 00       	callq  1d67 <_Z9read_lineiRNSt7__cxx1112basic_stringIcSt11char_traitsIcESaIcEEE+0x72>
    1d67:	48 89 85 68 ff ff ff 	mov    %rax,-0x98(%rbp)
    1d6e:	48 8d 45 a0          	lea    -0x60(%rbp),%rax
    1d72:	48 89 c7             	mov    %rax,%rdi
    1d75:	e8 00 00 00 00       	callq  1d7a <_Z9read_lineiRNSt7__cxx1112basic_stringIcSt11char_traitsIcESaIcEEE+0x85>
    1d7a:	48 89 45 c0          	mov    %rax,-0x40(%rbp)
    1d7e:	48 8d 55 c0          	lea    -0x40(%rbp),%rdx
    1d82:	48 8d 85 68 ff ff ff 	lea    -0x98(%rbp),%rax
    1d89:	48 89 d6             	mov    %rdx,%rsi
    1d8c:	48 89 c7             	mov    %rax,%rdi
    1d8f:	e8 00 00 00 00       	callq  1d94 <_Z9read_lineiRNSt7__cxx1112basic_stringIcSt11char_traitsIcESaIcEEE+0x9f>
    1d94:	84 c0                	test   %al,%al
    1d96:	0f 84 c5 00 00 00    	je     1e61 <_Z9read_lineiRNSt7__cxx1112basic_stringIcSt11char_traitsIcESaIcEEE+0x16c>
    1d9c:	48 8d 85 68 ff ff ff 	lea    -0x98(%rbp),%rax
    1da3:	be 01 00 00 00       	mov    $0x1,%esi
    1da8:	48 89 c7             	mov    %rax,%rdi
    1dab:	e8 00 00 00 00       	callq  1db0 <_Z9read_lineiRNSt7__cxx1112basic_stringIcSt11char_traitsIcESaIcEEE+0xbb>
    1db0:	48 89 c3             	mov    %rax,%rbx
    1db3:	48 8d 45 a0          	lea    -0x60(%rbp),%rax
    1db7:	48 89 c7             	mov    %rax,%rdi
    1dba:	e8 00 00 00 00       	callq  1dbf <_Z9read_lineiRNSt7__cxx1112basic_stringIcSt11char_traitsIcESaIcEEE+0xca>
    1dbf:	48 89 c1             	mov    %rax,%rcx
    1dc2:	48 8b 85 50 ff ff ff 	mov    -0xb0(%rbp),%rax
    1dc9:	48 89 da             	mov    %rbx,%rdx
    1dcc:	48 89 ce             	mov    %rcx,%rsi
    1dcf:	48 89 c7             	mov    %rax,%rdi
    1dd2:	e8 00 00 00 00       	callq  1dd7 <_Z9read_lineiRNSt7__cxx1112basic_stringIcSt11char_traitsIcESaIcEEE+0xe2>
    1dd7:	48 8d 85 68 ff ff ff 	lea    -0x98(%rbp),%rax
    1dde:	be 01 00 00 00       	mov    $0x1,%esi
    1de3:	48 89 c7             	mov    %rax,%rdi
    1de6:	e8 00 00 00 00       	callq  1deb <_Z9read_lineiRNSt7__cxx1112basic_stringIcSt11char_traitsIcESaIcEEE+0xf6>
    1deb:	48 89 85 78 ff ff ff 	mov    %rax,-0x88(%rbp)
    1df2:	48 8d 95 78 ff ff ff 	lea    -0x88(%rbp),%rdx
    1df9:	48 8d 45 c0          	lea    -0x40(%rbp),%rax
    1dfd:	48 89 d6             	mov    %rdx,%rsi
    1e00:	48 89 c7             	mov    %rax,%rdi
    1e03:	e8 00 00 00 00       	callq  1e08 <_Z9read_lineiRNSt7__cxx1112basic_stringIcSt11char_traitsIcESaIcEEE+0x113>
    1e08:	48 8d 45 a0          	lea    -0x60(%rbp),%rax
    1e0c:	48 89 c7             	mov    %rax,%rdi
    1e0f:	e8 00 00 00 00       	callq  1e14 <_Z9read_lineiRNSt7__cxx1112basic_stringIcSt11char_traitsIcESaIcEEE+0x11f>
    1e14:	48 89 85 70 ff ff ff 	mov    %rax,-0x90(%rbp)
    1e1b:	48 8d 95 70 ff ff ff 	lea    -0x90(%rbp),%rdx
    1e22:	48 8d 45 90          	lea    -0x70(%rbp),%rax
    1e26:	48 89 d6             	mov    %rdx,%rsi
    1e29:	48 89 c7             	mov    %rax,%rdi
    1e2c:	e8 00 00 00 00       	callq  1e31 <_Z9read_lineiRNSt7__cxx1112basic_stringIcSt11char_traitsIcESaIcEEE+0x13c>
    1e31:	48 8b 55 c0          	mov    -0x40(%rbp),%rdx
    1e35:	48 8b 4d 90          	mov    -0x70(%rbp),%rcx
    1e39:	48 8d 45 a0          	lea    -0x60(%rbp),%rax
    1e3d:	48 89 ce             	mov    %rcx,%rsi
    1e40:	48 89 c7             	mov    %rax,%rdi
    1e43:	e8 00 00 00 00       	callq  1e48 <_Z9read_lineiRNSt7__cxx1112basic_stringIcSt11char_traitsIcESaIcEEE+0x153>
    1e48:	48 8d 45 c0          	lea    -0x40(%rbp),%rax
    1e4c:	48 89 c7             	mov    %rax,%rdi
    1e4f:	e8 00 00 00 00       	callq  1e54 <_Z9read_lineiRNSt7__cxx1112basic_stringIcSt11char_traitsIcESaIcEEE+0x15f>
    1e54:	4c 8b 65 c0          	mov    -0x40(%rbp),%r12
    1e58:	4c 8b 6d c8          	mov    -0x38(%rbp),%r13
    1e5c:	e9 c6 01 00 00       	jmpq   2027 <_Z9read_lineiRNSt7__cxx1112basic_stringIcSt11char_traitsIcESaIcEEE+0x332>
    1e61:	48 8d 45 90          	lea    -0x70(%rbp),%rax
    1e65:	48 89 c7             	mov    %rax,%rdi
    1e68:	e8 00 00 00 00       	callq  1e6d <_Z9read_lineiRNSt7__cxx1112basic_stringIcSt11char_traitsIcESaIcEEE+0x178>
    1e6d:	48 8d 55 90          	lea    -0x70(%rbp),%rdx
    1e71:	48 8d 45 c0          	lea    -0x40(%rbp),%rax
    1e75:	be 00 00 00 01       	mov    $0x1000000,%esi
    1e7a:	48 89 c7             	mov    %rax,%rdi
    1e7d:	e8 00 00 00 00       	callq  1e82 <_Z9read_lineiRNSt7__cxx1112basic_stringIcSt11char_traitsIcESaIcEEE+0x18d>
    1e82:	48 8d 45 90          	lea    -0x70(%rbp),%rax
    1e86:	48 89 c7             	mov    %rax,%rdi
    1e89:	e8 00 00 00 00       	callq  1e8e <_Z9read_lineiRNSt7__cxx1112basic_stringIcSt11char_traitsIcESaIcEEE+0x199>
    1e8e:	48 8d 45 c0          	lea    -0x40(%rbp),%rax
    1e92:	48 89 c7             	mov    %rax,%rdi
    1e95:	e8 00 00 00 00       	callq  1e9a <_Z9read_lineiRNSt7__cxx1112basic_stringIcSt11char_traitsIcESaIcEEE+0x1a5>
    1e9a:	48 89 c3             	mov    %rax,%rbx
    1e9d:	48 8d 45 c0          	lea    -0x40(%rbp),%rax
    1ea1:	48 89 c7             	mov    %rax,%rdi
    1ea4:	e8 00 00 00 00       	callq  1ea9 <_Z9read_lineiRNSt7__cxx1112basic_stringIcSt11char_traitsIcESaIcEEE+0x1b4>
    1ea9:	48 89 c1             	mov    %rax,%rcx
    1eac:	8b 85 5c ff ff ff    	mov    -0xa4(%rbp),%eax
    1eb2:	48 89 da             	mov    %rbx,%rdx
    1eb5:	48 89 ce             	mov    %rcx,%rsi
    1eb8:	89 c7                	mov    %eax,%edi
    1eba:	e8 00 00 00 00       	callq  1ebf <_Z9read_lineiRNSt7__cxx1112basic_stringIcSt11char_traitsIcESaIcEEE+0x1ca>
    1ebf:	48 89 45 80          	mov    %rax,-0x80(%rbp)
    1ec3:	48 83 7d 80 ff       	cmpq   $0xffffffffffffffff,-0x80(%rbp)
    1ec8:	0f 94 c0             	sete   %al
    1ecb:	84 c0                	test   %al,%al
    1ecd:	74 2f                	je     1efe <_Z9read_lineiRNSt7__cxx1112basic_stringIcSt11char_traitsIcESaIcEEE+0x209>
    1ecf:	e8 00 00 00 00       	callq  1ed4 <_Z9read_lineiRNSt7__cxx1112basic_stringIcSt11char_traitsIcESaIcEEE+0x1df>
    1ed4:	8b 18                	mov    (%rax),%ebx
    1ed6:	e8 00 00 00 00       	callq  1edb <_Z9read_lineiRNSt7__cxx1112basic_stringIcSt11char_traitsIcESaIcEEE+0x1e6>
    1edb:	48 89 c2             	mov    %rax,%rdx
    1ede:	48 8d 45 90          	lea    -0x70(%rbp),%rax
    1ee2:	89 de                	mov    %ebx,%esi
    1ee4:	48 89 c7             	mov    %rax,%rdi
    1ee7:	e8 00 00 00 00       	callq  1eec <_Z9read_lineiRNSt7__cxx1112basic_stringIcSt11char_traitsIcESaIcEEE+0x1f7>
    1eec:	4c 8b 65 90          	mov    -0x70(%rbp),%r12
    1ef0:	4c 8b 6d 98          	mov    -0x68(%rbp),%r13
    1ef4:	bb 00 00 00 00       	mov    $0x0,%ebx
    1ef9:	e9 14 01 00 00       	jmpq   2012 <_Z9read_lineiRNSt7__cxx1112basic_stringIcSt11char_traitsIcESaIcEEE+0x31d>
    1efe:	48 8d 45 c0          	lea    -0x40(%rbp),%rax
    1f02:	48 89 c7             	mov    %rax,%rdi
    1f05:	e8 00 00 00 00       	callq  1f0a <_Z9read_lineiRNSt7__cxx1112basic_stringIcSt11char_traitsIcESaIcEEE+0x215>
    1f0a:	84 c0                	test   %al,%al
    1f0c:	0f 84 81 00 00 00    	je     1f93 <_Z9read_lineiRNSt7__cxx1112basic_stringIcSt11char_traitsIcESaIcEEE+0x29e>
    1f12:	48 8d 45 a0          	lea    -0x60(%rbp),%rax
    1f16:	48 89 c7             	mov    %rax,%rdi
    1f19:	e8 00 00 00 00       	callq  1f1e <_Z9read_lineiRNSt7__cxx1112basic_stringIcSt11char_traitsIcESaIcEEE+0x229>
    1f1e:	83 f0 01             	xor    $0x1,%eax
    1f21:	84 c0                	test   %al,%al
    1f23:	74 53                	je     1f78 <_Z9read_lineiRNSt7__cxx1112basic_stringIcSt11char_traitsIcESaIcEEE+0x283>
    1f25:	48 8d 45 a0          	lea    -0x60(%rbp),%rax
    1f29:	48 89 c7             	mov    %rax,%rdi
    1f2c:	e8 00 00 00 00       	callq  1f31 <_Z9read_lineiRNSt7__cxx1112basic_stringIcSt11char_traitsIcESaIcEEE+0x23c>
    1f31:	48 89 c3             	mov    %rax,%rbx
    1f34:	48 8d 45 a0          	lea    -0x60(%rbp),%rax
    1f38:	48 89 c7             	mov    %rax,%rdi
    1f3b:	e8 00 00 00 00       	callq  1f40 <_Z9read_lineiRNSt7__cxx1112basic_stringIcSt11char_traitsIcESaIcEEE+0x24b>
    1f40:	48 89 c1             	mov    %rax,%rcx
    1f43:	48 8b 85 50 ff ff ff 	mov    -0xb0(%rbp),%rax
    1f4a:	48 89 da             	mov    %rbx,%rdx
    1f4d:	48 89 ce             	mov    %rcx,%rsi
    1f50:	48 89 c7             	mov    %rax,%rdi
    1f53:	e8 00 00 00 00       	callq  1f58 <_Z9read_lineiRNSt7__cxx1112basic_stringIcSt11char_traitsIcESaIcEEE+0x263>
    1f58:	48 8b 85 50 ff ff ff 	mov    -0xb0(%rbp),%rax
    1f5f:	be 0a 00 00 00       	mov    $0xa,%esi
    1f64:	48 89 c7             	mov    %rax,%rdi
    1f67:	e8 00 00 00 00       	callq  1f6c <_Z9read_lineiRNSt7__cxx1112basic_stringIcSt11char_traitsIcESaIcEEE+0x277>
    1f6c:	48 8d 45 a0          	lea    -0x60(%rbp),%rax
    1f70:	48 89 c7             	mov    %rax,%rdi
    1f73:	e8 00 00 00 00       	callq  1f78 <_Z9read_lineiRNSt7__cxx1112basic_stringIcSt11char_traitsIcESaIcEEE+0x283>
    1f78:	48 8d 45 90          	lea    -0x70(%rbp),%rax
    1f7c:	48 89 c7             	mov    %rax,%rdi
    1f7f:	e8 00 00 00 00       	callq  1f84 <_Z9read_lineiRNSt7__cxx1112basic_stringIcSt11char_traitsIcESaIcEEE+0x28f>
    1f84:	4c 8b 65 90          	mov    -0x70(%rbp),%r12
    1f88:	4c 8b 6d 98          	mov    -0x68(%rbp),%r13
    1f8c:	bb 00 00 00 00       	mov    $0x0,%ebx
    1f91:	eb 7f                	jmp    2012 <_Z9read_lineiRNSt7__cxx1112basic_stringIcSt11char_traitsIcESaIcEEE+0x31d>
    1f93:	48 8d 45 c0          	lea    -0x40(%rbp),%rax
    1f97:	48 89 c7             	mov    %rax,%rdi
    1f9a:	e8 00 00 00 00       	callq  1f9f <_Z9read_lineiRNSt7__cxx1112basic_stringIcSt11char_traitsIcESaIcEEE+0x2aa>
    1f9f:	48 89 85 78 ff ff ff 	mov    %rax,-0x88(%rbp)
    1fa6:	48 8b 55 80          	mov    -0x80(%rbp),%rdx
    1faa:	48 8d 85 78 ff ff ff 	lea    -0x88(%rbp),%rax
    1fb1:	48 89 d6             	mov    %rdx,%rsi
    1fb4:	48 89 c7             	mov    %rax,%rdi
    1fb7:	e8 00 00 00 00       	callq  1fbc <_Z9read_lineiRNSt7__cxx1112basic_stringIcSt11char_traitsIcESaIcEEE+0x2c7>
    1fbc:	49 89 c6             	mov    %rax,%r14
    1fbf:	48 8d 45 c0          	lea    -0x40(%rbp),%rax
    1fc3:	48 89 c7             	mov    %rax,%rdi
    1fc6:	e8 00 00 00 00       	callq  1fcb <_Z9read_lineiRNSt7__cxx1112basic_stringIcSt11char_traitsIcESaIcEEE+0x2d6>
    1fcb:	48 89 c3             	mov    %rax,%rbx
    1fce:	48 8d 45 a0          	lea    -0x60(%rbp),%rax
    1fd2:	48 89 c7             	mov    %rax,%rdi
    1fd5:	e8 00 00 00 00       	callq  1fda <_Z9read_lineiRNSt7__cxx1112basic_stringIcSt11char_traitsIcESaIcEEE+0x2e5>
    1fda:	48 89 85 70 ff ff ff 	mov    %rax,-0x90(%rbp)
    1fe1:	48 8d 95 70 ff ff ff 	lea    -0x90(%rbp),%rdx
    1fe8:	48 8d 45 90          	lea    -0x70(%rbp),%rax
    1fec:	48 89 d6             	mov    %rdx,%rsi
    1fef:	48 89 c7             	mov    %rax,%rdi
    1ff2:	e8 00 00 00 00       	callq  1ff7 <_Z9read_lineiRNSt7__cxx1112basic_stringIcSt11char_traitsIcESaIcEEE+0x302>
    1ff7:	48 8b 75 90          	mov    -0x70(%rbp),%rsi
    1ffb:	48 8d 45 a0          	lea    -0x60(%rbp),%rax
    1fff:	4c 89 f1             	mov    %r14,%rcx
    2002:	48 89 da             	mov    %rbx,%rdx
    2005:	48 89 c7             	mov    %rax,%rdi
    2008:	e8 00 00 00 00       	callq  200d <_Z9read_lineiRNSt7__cxx1112basic_stringIcSt11char_traitsIcESaIcEEE+0x318>
    200d:	bb 01 00 00 00       	mov    $0x1,%ebx
    2012:	48 8d 45 c0          	lea    -0x40(%rbp),%rax
    2016:	48 89 c7             	mov    %rax,%rdi
    2019:	e8 00 00 00 00       	callq  201e <_Z9read_lineiRNSt7__cxx1112basic_stringIcSt11char_traitsIcESaIcEEE+0x329>
    201e:	83 fb 01             	cmp    $0x1,%ebx
    2021:	0f 84 0c fd ff ff    	je     1d33 <_Z9read_lineiRNSt7__cxx1112basic_stringIcSt11char_traitsIcESaIcEEE+0x3e>
    2027:	48 8d 45 a0          	lea    -0x60(%rbp),%rax
    202b:	48 89 c7             	mov    %rax,%rdi
    202e:	e8 00 00 00 00       	callq  2033 <_Z9read_lineiRNSt7__cxx1112basic_stringIcSt11char_traitsIcESaIcEEE+0x33e>
    2033:	4c 89 e1             	mov    %r12,%rcx
    2036:	4c 89 eb             	mov    %r13,%rbx
    2039:	4c 89 e0             	mov    %r12,%rax
    203c:	4c 89 ea             	mov    %r13,%rdx
    203f:	48 8b 45 d8          	mov    -0x28(%rbp),%rax
    2043:	64 48 33 04 25 28 00 	xor    %fs:0x28,%rax
    204a:	00 00 
    204c:	0f 84 db 00 00 00    	je     212d <_Z9read_lineiRNSt7__cxx1112basic_stringIcSt11char_traitsIcESaIcEEE+0x438>
    2052:	e9 d1 00 00 00       	jmpq   2128 <_Z9read_lineiRNSt7__cxx1112basic_stringIcSt11char_traitsIcESaIcEEE+0x433>
    2057:	f3 0f 1e fa          	endbr64 
    205b:	49 89 c6             	mov    %rax,%r14
    205e:	48 89 d3             	mov    %rdx,%rbx
    2061:	48 8d 45 90          	lea    -0x70(%rbp),%rax
    2065:	48 89 c7             	mov    %rax,%rdi
    2068:	e8 00 00 00 00       	callq  206d <_Z9read_lineiRNSt7__cxx1112basic_stringIcSt11char_traitsIcESaIcEEE+0x378>
    206d:	4c 89 f0             	mov    %r14,%rax
    2070:	48 89 da             	mov    %rbx,%rdx
    2073:	eb 22                	jmp    2097 <_Z9read_lineiRNSt7__cxx1112basic_stringIcSt11char_traitsIcESaIcEEE+0x3a2>
    2075:	f3 0f 1e fa          	endbr64 
    2079:	49 89 c6             	mov    %rax,%r14
    207c:	48 89 d3             	mov    %rdx,%rbx
    207f:	48 8d 45 c0          	lea    -0x40(%rbp),%rax
    2083:	48 89 c7             	mov    %rax,%rdi
    2086:	e8 00 00 00 00       	callq  208b <_Z9read_lineiRNSt7__cxx1112basic_stringIcSt11char_traitsIcESaIcEEE+0x396>
    208b:	4c 89 f0             	mov    %r14,%rax
    208e:	48 89 da             	mov    %rbx,%rdx
    2091:	eb 04                	jmp    2097 <_Z9read_lineiRNSt7__cxx1112basic_stringIcSt11char_traitsIcESaIcEEE+0x3a2>
    2093:	f3 0f 1e fa          	endbr64 
    2097:	48 83 fa 01          	cmp    $0x1,%rdx
    209b:	74 05                	je     20a2 <_Z9read_lineiRNSt7__cxx1112basic_stringIcSt11char_traitsIcESaIcEEE+0x3ad>
    209d:	48 89 c3             	mov    %rax,%rbx
    20a0:	eb 6f                	jmp    2111 <_Z9read_lineiRNSt7__cxx1112basic_stringIcSt11char_traitsIcESaIcEEE+0x41c>
    20a2:	48 89 c7             	mov    %rax,%rdi
    20a5:	e8 00 00 00 00       	callq  20aa <_Z9read_lineiRNSt7__cxx1112basic_stringIcSt11char_traitsIcESaIcEEE+0x3b5>
    20aa:	48 89 45 88          	mov    %rax,-0x78(%rbp)
    20ae:	48 8d 35 00 00 00 00 	lea    0x0(%rip),%rsi        # 20b5 <_Z9read_lineiRNSt7__cxx1112basic_stringIcSt11char_traitsIcESaIcEEE+0x3c0>
    20b5:	48 8d 3d 00 00 00 00 	lea    0x0(%rip),%rdi        # 20bc <_Z9read_lineiRNSt7__cxx1112basic_stringIcSt11char_traitsIcESaIcEEE+0x3c7>
    20bc:	e8 00 00 00 00       	callq  20c1 <_Z9read_lineiRNSt7__cxx1112basic_stringIcSt11char_traitsIcESaIcEEE+0x3cc>
    20c1:	48 89 c3             	mov    %rax,%rbx
    20c4:	48 8b 45 88          	mov    -0x78(%rbp),%rax
    20c8:	48 8b 55 88          	mov    -0x78(%rbp),%rdx
    20cc:	48 8b 12             	mov    (%rdx),%rdx
    20cf:	48 83 c2 10          	add    $0x10,%rdx
    20d3:	48 8b 12             	mov    (%rdx),%rdx
    20d6:	48 89 c7             	mov    %rax,%rdi
    20d9:	ff d2                	callq  *%rdx
    20db:	48 89 c6             	mov    %rax,%rsi
    20de:	48 89 df             	mov    %rbx,%rdi
    20e1:	e8 00 00 00 00       	callq  20e6 <_Z9read_lineiRNSt7__cxx1112basic_stringIcSt11char_traitsIcESaIcEEE+0x3f1>
    20e6:	48 89 c2             	mov    %rax,%rdx
    20e9:	48 8b 05 00 00 00 00 	mov    0x0(%rip),%rax        # 20f0 <_Z9read_lineiRNSt7__cxx1112basic_stringIcSt11char_traitsIcESaIcEEE+0x3fb>
    20f0:	48 89 c6             	mov    %rax,%rsi
    20f3:	48 89 d7             	mov    %rdx,%rdi
    20f6:	e8 00 00 00 00       	callq  20fb <_Z9read_lineiRNSt7__cxx1112basic_stringIcSt11char_traitsIcESaIcEEE+0x406>
    20fb:	e8 00 00 00 00       	callq  2100 <_Z9read_lineiRNSt7__cxx1112basic_stringIcSt11char_traitsIcESaIcEEE+0x40b>
    2100:	e9 2e fc ff ff       	jmpq   1d33 <_Z9read_lineiRNSt7__cxx1112basic_stringIcSt11char_traitsIcESaIcEEE+0x3e>
    2105:	f3 0f 1e fa          	endbr64 
    2109:	48 89 c3             	mov    %rax,%rbx
    210c:	e8 00 00 00 00       	callq  2111 <_Z9read_lineiRNSt7__cxx1112basic_stringIcSt11char_traitsIcESaIcEEE+0x41c>
    2111:	48 8d 45 a0          	lea    -0x60(%rbp),%rax
    2115:	48 89 c7             	mov    %rax,%rdi
    2118:	e8 00 00 00 00       	callq  211d <_Z9read_lineiRNSt7__cxx1112basic_stringIcSt11char_traitsIcESaIcEEE+0x428>
    211d:	48 89 d8             	mov    %rbx,%rax
    2120:	48 89 c7             	mov    %rax,%rdi
    2123:	e8 00 00 00 00       	callq  2128 <_Z9read_lineiRNSt7__cxx1112basic_stringIcSt11char_traitsIcESaIcEEE+0x433>
    2128:	e8 00 00 00 00       	callq  212d <_Z9read_lineiRNSt7__cxx1112basic_stringIcSt11char_traitsIcESaIcEEE+0x438>
    212d:	89 c8                	mov    %ecx,%eax
    212f:	48 81 c4 90 00 00 00 	add    $0x90,%rsp
    2136:	5b                   	pop    %rbx
    2137:	41 5c                	pop    %r12
    2139:	41 5d                	pop    %r13
    213b:	41 5e                	pop    %r14
    213d:	5d                   	pop    %rbp
    213e:	c3                   	retq   

000000000000213f <_Z10parse_lineRKNSt7__cxx1112basic_stringIcSt11char_traitsIcESaIcEEE>:
    213f:	f3 0f 1e fa          	endbr64 
    2143:	55                   	push   %rbp
    2144:	48 89 e5             	mov    %rsp,%rbp
    2147:	53                   	push   %rbx
    2148:	48 81 ec 18 02 00 00 	sub    $0x218,%rsp
    214f:	48 89 bd e8 fd ff ff 	mov    %rdi,-0x218(%rbp)
    2156:	48 89 b5 e0 fd ff ff 	mov    %rsi,-0x220(%rbp)
    215d:	64 48 8b 04 25 28 00 	mov    %fs:0x28,%rax
    2164:	00 00 
    2166:	48 89 45 e8          	mov    %rax,-0x18(%rbp)
    216a:	31 c0                	xor    %eax,%eax
    216c:	48 8b 85 e8 fd ff ff 	mov    -0x218(%rbp),%rax
    2173:	48 89 c7             	mov    %rax,%rdi
    2176:	e8 00 00 00 00       	callq  217b <_Z10parse_lineRKNSt7__cxx1112basic_stringIcSt11char_traitsIcESaIcEEE+0x3c>
    217b:	48 8b 8d e0 fd ff ff 	mov    -0x220(%rbp),%rcx
    2182:	48 8d 85 60 fe ff ff 	lea    -0x1a0(%rbp),%rax
    2189:	ba 08 00 00 00       	mov    $0x8,%edx
    218e:	48 89 ce             	mov    %rcx,%rsi
    2191:	48 89 c7             	mov    %rax,%rdi
    2194:	e8 00 00 00 00       	callq  2199 <_Z10parse_lineRKNSt7__cxx1112basic_stringIcSt11char_traitsIcESaIcEEE+0x5a>
    2199:	48 8d 85 00 fe ff ff 	lea    -0x200(%rbp),%rax
    21a0:	48 89 c7             	mov    %rax,%rdi
    21a3:	e8 00 00 00 00       	callq  21a8 <_Z10parse_lineRKNSt7__cxx1112basic_stringIcSt11char_traitsIcESaIcEEE+0x69>
    21a8:	48 8d 85 60 fe ff ff 	lea    -0x1a0(%rbp),%rax
    21af:	48 83 c0 78          	add    $0x78,%rax
    21b3:	48 89 c7             	mov    %rax,%rdi
    21b6:	e8 00 00 00 00       	callq  21bb <_Z10parse_lineRKNSt7__cxx1112basic_stringIcSt11char_traitsIcESaIcEEE+0x7c>
    21bb:	83 f0 01             	xor    $0x1,%eax
    21be:	84 c0                	test   %al,%al
    21c0:	0f 84 bf 01 00 00    	je     2385 <_Z10parse_lineRKNSt7__cxx1112basic_stringIcSt11char_traitsIcESaIcEEE+0x246>
    21c6:	48 8d 85 20 fe ff ff 	lea    -0x1e0(%rbp),%rax
    21cd:	48 89 c7             	mov    %rax,%rdi
    21d0:	e8 00 00 00 00       	callq  21d5 <_Z10parse_lineRKNSt7__cxx1112basic_stringIcSt11char_traitsIcESaIcEEE+0x96>
    21d5:	48 8d 95 20 fe ff ff 	lea    -0x1e0(%rbp),%rdx
    21dc:	48 8d 85 60 fe ff ff 	lea    -0x1a0(%rbp),%rax
    21e3:	48 89 d6             	mov    %rdx,%rsi
    21e6:	48 89 c7             	mov    %rax,%rdi
    21e9:	e8 00 00 00 00       	callq  21ee <_Z10parse_lineRKNSt7__cxx1112basic_stringIcSt11char_traitsIcESaIcEEE+0xaf>
    21ee:	48 8d 85 20 fe ff ff 	lea    -0x1e0(%rbp),%rax
    21f5:	48 89 c7             	mov    %rax,%rdi
    21f8:	e8 00 00 00 00       	callq  21fd <_Z10parse_lineRKNSt7__cxx1112basic_stringIcSt11char_traitsIcESaIcEEE+0xbe>
    21fd:	48 8d 50 ff          	lea    -0x1(%rax),%rdx
    2201:	48 8d 85 20 fe ff ff 	lea    -0x1e0(%rbp),%rax
    2208:	48 89 d6             	mov    %rdx,%rsi
    220b:	48 89 c7             	mov    %rax,%rdi
    220e:	e8 00 00 00 00       	callq  2213 <_Z10parse_lineRKNSt7__cxx1112basic_stringIcSt11char_traitsIcESaIcEEE+0xd4>
    2213:	0f b6 00             	movzbl (%rax),%eax
    2216:	88 85 ff fd ff ff    	mov    %al,-0x201(%rbp)
    221c:	48 8d 85 20 fe ff ff 	lea    -0x1e0(%rbp),%rax
    2223:	be 00 00 00 00       	mov    $0x0,%esi
    2228:	48 89 c7             	mov    %rax,%rdi
    222b:	e8 00 00 00 00       	callq  2230 <_Z10parse_lineRKNSt7__cxx1112basic_stringIcSt11char_traitsIcESaIcEEE+0xf1>
    2230:	0f b6 00             	movzbl (%rax),%eax
    2233:	3c 23                	cmp    $0x23,%al
    2235:	0f 94 c0             	sete   %al
    2238:	84 c0                	test   %al,%al
    223a:	74 0a                	je     2246 <_Z10parse_lineRKNSt7__cxx1112basic_stringIcSt11char_traitsIcESaIcEEE+0x107>
    223c:	bb 00 00 00 00       	mov    $0x0,%ebx
    2241:	e9 26 01 00 00       	jmpq   236c <_Z10parse_lineRKNSt7__cxx1112basic_stringIcSt11char_traitsIcESaIcEEE+0x22d>
    2246:	80 bd ff fd ff ff 26 	cmpb   $0x26,-0x201(%rbp)
    224d:	74 16                	je     2265 <_Z10parse_lineRKNSt7__cxx1112basic_stringIcSt11char_traitsIcESaIcEEE+0x126>
    224f:	80 bd ff fd ff ff 3b 	cmpb   $0x3b,-0x201(%rbp)
    2256:	74 0d                	je     2265 <_Z10parse_lineRKNSt7__cxx1112basic_stringIcSt11char_traitsIcESaIcEEE+0x126>
    2258:	80 bd ff fd ff ff 7c 	cmpb   $0x7c,-0x201(%rbp)
    225f:	0f 85 ba 00 00 00    	jne    231f <_Z10parse_lineRKNSt7__cxx1112basic_stringIcSt11char_traitsIcESaIcEEE+0x1e0>
    2265:	48 8d 85 20 fe ff ff 	lea    -0x1e0(%rbp),%rax
    226c:	48 89 c7             	mov    %rax,%rdi
    226f:	e8 00 00 00 00       	callq  2274 <_Z10parse_lineRKNSt7__cxx1112basic_stringIcSt11char_traitsIcESaIcEEE+0x135>
    2274:	48 8d 95 20 fe ff ff 	lea    -0x1e0(%rbp),%rdx
    227b:	48 8d 85 00 fe ff ff 	lea    -0x200(%rbp),%rax
    2282:	48 89 d6             	mov    %rdx,%rsi
    2285:	48 89 c7             	mov    %rax,%rdi
    2288:	e8 00 00 00 00       	callq  228d <_Z10parse_lineRKNSt7__cxx1112basic_stringIcSt11char_traitsIcESaIcEEE+0x14e>
    228d:	48 8d 85 fe fd ff ff 	lea    -0x202(%rbp),%rax
    2294:	48 89 c7             	mov    %rax,%rdi
    2297:	e8 00 00 00 00       	callq  229c <_Z10parse_lineRKNSt7__cxx1112basic_stringIcSt11char_traitsIcESaIcEEE+0x15d>
    229c:	0f be 95 ff fd ff ff 	movsbl -0x201(%rbp),%edx
    22a3:	48 8d 8d fe fd ff ff 	lea    -0x202(%rbp),%rcx
    22aa:	48 8d 85 40 fe ff ff 	lea    -0x1c0(%rbp),%rax
    22b1:	be 01 00 00 00       	mov    $0x1,%esi
    22b6:	48 89 c7             	mov    %rax,%rdi
    22b9:	e8 00 00 00 00       	callq  22be <_Z10parse_lineRKNSt7__cxx1112basic_stringIcSt11char_traitsIcESaIcEEE+0x17f>
    22be:	48 8d 95 40 fe ff ff 	lea    -0x1c0(%rbp),%rdx
    22c5:	48 8d 85 00 fe ff ff 	lea    -0x200(%rbp),%rax
    22cc:	48 89 d6             	mov    %rdx,%rsi
    22cf:	48 89 c7             	mov    %rax,%rdi
    22d2:	e8 00 00 00 00       	callq  22d7 <_Z10parse_lineRKNSt7__cxx1112basic_stringIcSt11char_traitsIcESaIcEEE+0x198>
    22d7:	48 8d 85 40 fe ff ff 	lea    -0x1c0(%rbp),%rax
    22de:	48 89 c7             	mov    %rax,%rdi
    22e1:	e8 00 00 00 00       	callq  22e6 <_Z10parse_lineRKNSt7__cxx1112basic_stringIcSt11char_traitsIcESaIcEEE+0x1a7>
    22e6:	48 8d 85 fe fd ff ff 	lea    -0x202(%rbp),%rax
    22ed:	48 89 c7             	mov    %rax,%rdi
    22f0:	e8 00 00 00 00       	callq  22f5 <_Z10parse_lineRKNSt7__cxx1112basic_stringIcSt11char_traitsIcESaIcEEE+0x1b6>
    22f5:	48 8d 95 00 fe ff ff 	lea    -0x200(%rbp),%rdx
    22fc:	48 8b 85 e8 fd ff ff 	mov    -0x218(%rbp),%rax
    2303:	48 89 d6             	mov    %rdx,%rsi
    2306:	48 89 c7             	mov    %rax,%rdi
    2309:	e8 00 00 00 00       	callq  230e <_Z10parse_lineRKNSt7__cxx1112basic_stringIcSt11char_traitsIcESaIcEEE+0x1cf>
    230e:	48 8d 85 00 fe ff ff 	lea    -0x200(%rbp),%rax
    2315:	48 89 c7             	mov    %rax,%rdi
    2318:	e8 00 00 00 00       	callq  231d <_Z10parse_lineRKNSt7__cxx1112basic_stringIcSt11char_traitsIcESaIcEEE+0x1de>
    231d:	eb 19                	jmp    2338 <_Z10parse_lineRKNSt7__cxx1112basic_stringIcSt11char_traitsIcESaIcEEE+0x1f9>
    231f:	48 8d 95 20 fe ff ff 	lea    -0x1e0(%rbp),%rdx
    2326:	48 8d 85 00 fe ff ff 	lea    -0x200(%rbp),%rax
    232d:	48 89 d6             	mov    %rdx,%rsi
    2330:	48 89 c7             	mov    %rax,%rdi
    2333:	e8 00 00 00 00       	callq  2338 <_Z10parse_lineRKNSt7__cxx1112basic_stringIcSt11char_traitsIcESaIcEEE+0x1f9>
    2338:	48 8d 85 00 fe ff ff 	lea    -0x200(%rbp),%rax
    233f:	48 89 c7             	mov    %rax,%rdi
    2342:	e8 00 00 00 00       	callq  2347 <_Z10parse_lineRKNSt7__cxx1112basic_stringIcSt11char_traitsIcESaIcEEE+0x208>
    2347:	83 f0 01             	xor    $0x1,%eax
    234a:	84 c0                	test   %al,%al
    234c:	74 19                	je     2367 <_Z10parse_lineRKNSt7__cxx1112basic_stringIcSt11char_traitsIcESaIcEEE+0x228>
    234e:	48 8d 95 00 fe ff ff 	lea    -0x200(%rbp),%rdx
    2355:	48 8b 85 e8 fd ff ff 	mov    -0x218(%rbp),%rax
    235c:	48 89 d6             	mov    %rdx,%rsi
    235f:	48 89 c7             	mov    %rax,%rdi
    2362:	e8 00 00 00 00       	callq  2367 <_Z10parse_lineRKNSt7__cxx1112basic_stringIcSt11char_traitsIcESaIcEEE+0x228>
    2367:	bb 01 00 00 00       	mov    $0x1,%ebx
    236c:	48 8d 85 20 fe ff ff 	lea    -0x1e0(%rbp),%rax
    2373:	48 89 c7             	mov    %rax,%rdi
    2376:	e8 00 00 00 00       	callq  237b <_Z10parse_lineRKNSt7__cxx1112basic_stringIcSt11char_traitsIcESaIcEEE+0x23c>
    237b:	83 fb 01             	cmp    $0x1,%ebx
    237e:	75 06                	jne    2386 <_Z10parse_lineRKNSt7__cxx1112basic_stringIcSt11char_traitsIcESaIcEEE+0x247>
    2380:	e9 23 fe ff ff       	jmpq   21a8 <_Z10parse_lineRKNSt7__cxx1112basic_stringIcSt11char_traitsIcESaIcEEE+0x69>
    2385:	90                   	nop
    2386:	48 8d 85 00 fe ff ff 	lea    -0x200(%rbp),%rax
    238d:	48 89 c7             	mov    %rax,%rdi
    2390:	e8 00 00 00 00       	callq  2395 <_Z10parse_lineRKNSt7__cxx1112basic_stringIcSt11char_traitsIcESaIcEEE+0x256>
    2395:	48 8d 85 60 fe ff ff 	lea    -0x1a0(%rbp),%rax
    239c:	48 89 c7             	mov    %rax,%rdi
    239f:	e8 00 00 00 00       	callq  23a4 <_Z10parse_lineRKNSt7__cxx1112basic_stringIcSt11char_traitsIcESaIcEEE+0x265>
    23a4:	48 8b 45 e8          	mov    -0x18(%rbp),%rax
    23a8:	64 48 33 04 25 28 00 	xor    %fs:0x28,%rax
    23af:	00 00 
    23b1:	0f 84 9a 00 00 00    	je     2451 <_Z10parse_lineRKNSt7__cxx1112basic_stringIcSt11char_traitsIcESaIcEEE+0x312>
    23b7:	e9 90 00 00 00       	jmpq   244c <_Z10parse_lineRKNSt7__cxx1112basic_stringIcSt11char_traitsIcESaIcEEE+0x30d>
    23bc:	f3 0f 1e fa          	endbr64 
    23c0:	48 89 c3             	mov    %rax,%rbx
    23c3:	48 8d 85 40 fe ff ff 	lea    -0x1c0(%rbp),%rax
    23ca:	48 89 c7             	mov    %rax,%rdi
    23cd:	e8 00 00 00 00       	callq  23d2 <_Z10parse_lineRKNSt7__cxx1112basic_stringIcSt11char_traitsIcESaIcEEE+0x293>
    23d2:	eb 07                	jmp    23db <_Z10parse_lineRKNSt7__cxx1112basic_stringIcSt11char_traitsIcESaIcEEE+0x29c>
    23d4:	f3 0f 1e fa          	endbr64 
    23d8:	48 89 c3             	mov    %rax,%rbx
    23db:	48 8d 85 fe fd ff ff 	lea    -0x202(%rbp),%rax
    23e2:	48 89 c7             	mov    %rax,%rdi
    23e5:	e8 00 00 00 00       	callq  23ea <_Z10parse_lineRKNSt7__cxx1112basic_stringIcSt11char_traitsIcESaIcEEE+0x2ab>
    23ea:	eb 07                	jmp    23f3 <_Z10parse_lineRKNSt7__cxx1112basic_stringIcSt11char_traitsIcESaIcEEE+0x2b4>
    23ec:	f3 0f 1e fa          	endbr64 
    23f0:	48 89 c3             	mov    %rax,%rbx
    23f3:	48 8d 85 20 fe ff ff 	lea    -0x1e0(%rbp),%rax
    23fa:	48 89 c7             	mov    %rax,%rdi
    23fd:	e8 00 00 00 00       	callq  2402 <_Z10parse_lineRKNSt7__cxx1112basic_stringIcSt11char_traitsIcESaIcEEE+0x2c3>
    2402:	eb 07                	jmp    240b <_Z10parse_lineRKNSt7__cxx1112basic_stringIcSt11char_traitsIcESaIcEEE+0x2cc>
    2404:	f3 0f 1e fa          	endbr64 
    2408:	48 89 c3             	mov    %rax,%rbx
    240b:	48 8d 85 00 fe ff ff 	lea    -0x200(%rbp),%rax
    2412:	48 89 c7             	mov    %rax,%rdi
    2415:	e8 00 00 00 00       	callq  241a <_Z10parse_lineRKNSt7__cxx1112basic_stringIcSt11char_traitsIcESaIcEEE+0x2db>
    241a:	48 8d 85 60 fe ff ff 	lea    -0x1a0(%rbp),%rax
    2421:	48 89 c7             	mov    %rax,%rdi
    2424:	e8 00 00 00 00       	callq  2429 <_Z10parse_lineRKNSt7__cxx1112basic_stringIcSt11char_traitsIcESaIcEEE+0x2ea>
    2429:	eb 07                	jmp    2432 <_Z10parse_lineRKNSt7__cxx1112basic_stringIcSt11char_traitsIcESaIcEEE+0x2f3>
    242b:	f3 0f 1e fa          	endbr64 
    242f:	48 89 c3             	mov    %rax,%rbx
    2432:	48 8b 85 e8 fd ff ff 	mov    -0x218(%rbp),%rax
    2439:	48 89 c7             	mov    %rax,%rdi
    243c:	e8 00 00 00 00       	callq  2441 <_Z10parse_lineRKNSt7__cxx1112basic_stringIcSt11char_traitsIcESaIcEEE+0x302>
    2441:	48 89 d8             	mov    %rbx,%rax
    2444:	48 89 c7             	mov    %rax,%rdi
    2447:	e8 00 00 00 00       	callq  244c <_Z10parse_lineRKNSt7__cxx1112basic_stringIcSt11char_traitsIcESaIcEEE+0x30d>
    244c:	e8 00 00 00 00       	callq  2451 <_Z10parse_lineRKNSt7__cxx1112basic_stringIcSt11char_traitsIcESaIcEEE+0x312>
    2451:	48 8b 85 e8 fd ff ff 	mov    -0x218(%rbp),%rax
    2458:	48 81 c4 18 02 00 00 	add    $0x218,%rsp
    245f:	5b                   	pop    %rbx
    2460:	5d                   	pop    %rbp
    2461:	c3                   	retq   

0000000000002462 <_ZN5scope6detail10scope_exitIZ9copy_fileRKNSt7__cxx1112basic_stringIcSt11char_traitsIcESaIcEEES9_bEUlvE_ECI1NS0_11scope_guardISA_NS0_13strategy_exitEEEISA_LDn0ELDn0EEEOT_>:
    2462:	55                   	push   %rbp
    2463:	48 89 e5             	mov    %rsp,%rbp
    2466:	48 83 ec 10          	sub    $0x10,%rsp
    246a:	48 89 7d f8          	mov    %rdi,-0x8(%rbp)
    246e:	48 89 75 f0          	mov    %rsi,-0x10(%rbp)
    2472:	48 8b 45 f8          	mov    -0x8(%rbp),%rax
    2476:	48 8b 55 f0          	mov    -0x10(%rbp),%rdx
    247a:	48 89 d6             	mov    %rdx,%rsi
    247d:	48 89 c7             	mov    %rax,%rdi
    2480:	e8 43 01 00 00       	callq  25c8 <_ZN5scope6detail11scope_guardIZ9copy_fileRKNSt7__cxx1112basic_stringIcSt11char_traitsIcESaIcEEES9_bEUlvE_NS0_13strategy_exitEEC2ISA_LDn0ELDn0EEEOT_>
    2485:	90                   	nop
    2486:	c9                   	leaveq 
    2487:	c3                   	retq   

0000000000002488 <_ZN5scope6detail15make_scope_exitIZ9copy_fileRKNSt7__cxx1112basic_stringIcSt11char_traitsIcESaIcEEES9_bEUlvE_EENS0_10scope_exitIT_EEOSC_>:
    2488:	f3 0f 1e fa          	endbr64 
    248c:	55                   	push   %rbp
    248d:	48 89 e5             	mov    %rsp,%rbp
    2490:	48 83 ec 10          	sub    $0x10,%rsp
    2494:	48 89 7d f8          	mov    %rdi,-0x8(%rbp)
    2498:	48 89 75 f0          	mov    %rsi,-0x10(%rbp)
    249c:	48 8b 45 f0          	mov    -0x10(%rbp),%rax
    24a0:	48 89 c7             	mov    %rax,%rdi
    24a3:	e8 12 01 00 00       	callq  25ba <_ZSt7forwardIZ9copy_fileRKNSt7__cxx1112basic_stringIcSt11char_traitsIcESaIcEEES7_bEUlvE_EOT_RNSt16remove_referenceIS9_E4typeE>
    24a8:	48 89 c2             	mov    %rax,%rdx
    24ab:	48 8b 45 f8          	mov    -0x8(%rbp),%rax
    24af:	48 89 d6             	mov    %rdx,%rsi
    24b2:	48 89 c7             	mov    %rax,%rdi
    24b5:	e8 a8 ff ff ff       	callq  2462 <_ZN5scope6detail10scope_exitIZ9copy_fileRKNSt7__cxx1112basic_stringIcSt11char_traitsIcESaIcEEES9_bEUlvE_ECI1NS0_11scope_guardISA_NS0_13strategy_exitEEEISA_LDn0ELDn0EEEOT_>
    24ba:	48 8b 45 f8          	mov    -0x8(%rbp),%rax
    24be:	c9                   	leaveq 
    24bf:	c3                   	retq   

00000000000024c0 <_ZN5scope6detail11scope_guardIZ9copy_fileRKNSt7__cxx1112basic_stringIcSt11char_traitsIcESaIcEEES9_bEUlvE_NS0_13strategy_exitEED2Ev>:
    24c0:	55                   	push   %rbp
    24c1:	48 89 e5             	mov    %rsp,%rbp
    24c4:	48 83 ec 10          	sub    $0x10,%rsp
    24c8:	48 89 7d f8          	mov    %rdi,-0x8(%rbp)
    24cc:	48 8b 45 f8          	mov    -0x8(%rbp),%rax
    24d0:	0f b6 00             	movzbl (%rax),%eax
    24d3:	84 c0                	test   %al,%al
    24d5:	74 1b                	je     24f2 <_ZN5scope6detail11scope_guardIZ9copy_fileRKNSt7__cxx1112basic_stringIcSt11char_traitsIcESaIcEEES9_bEUlvE_NS0_13strategy_exitEED2Ev+0x32>
    24d7:	48 8b 45 f8          	mov    -0x8(%rbp),%rax
    24db:	48 83 c0 01          	add    $0x1,%rax
    24df:	48 89 c7             	mov    %rax,%rdi
    24e2:	e8 00 00 00 00       	callq  24e7 <_ZN5scope6detail11scope_guardIZ9copy_fileRKNSt7__cxx1112basic_stringIcSt11char_traitsIcESaIcEEES9_bEUlvE_NS0_13strategy_exitEED2Ev+0x27>
    24e7:	84 c0                	test   %al,%al
    24e9:	74 07                	je     24f2 <_ZN5scope6detail11scope_guardIZ9copy_fileRKNSt7__cxx1112basic_stringIcSt11char_traitsIcESaIcEEES9_bEUlvE_NS0_13strategy_exitEED2Ev+0x32>
    24eb:	b8 01 00 00 00       	mov    $0x1,%eax
    24f0:	eb 05                	jmp    24f7 <_ZN5scope6detail11scope_guardIZ9copy_fileRKNSt7__cxx1112basic_stringIcSt11char_traitsIcESaIcEEES9_bEUlvE_NS0_13strategy_exitEED2Ev+0x37>
    24f2:	b8 00 00 00 00       	mov    $0x0,%eax
    24f7:	84 c0                	test   %al,%al
    24f9:	74 10                	je     250b <_ZN5scope6detail11scope_guardIZ9copy_fileRKNSt7__cxx1112basic_stringIcSt11char_traitsIcESaIcEEES9_bEUlvE_NS0_13strategy_exitEED2Ev+0x4b>
    24fb:	48 8b 45 f8          	mov    -0x8(%rbp),%rax
    24ff:	48 83 c0 04          	add    $0x4,%rax
    2503:	48 89 c7             	mov    %rax,%rdi
    2506:	e8 f5 da ff ff       	callq  0 <_ZZ9copy_fileRKNSt7__cxx1112basic_stringIcSt11char_traitsIcESaIcEEES6_bENKUlvE_clEv>
    250b:	90                   	nop
    250c:	c9                   	leaveq 
    250d:	c3                   	retq   

000000000000250e <_ZN5scope6detail10scope_exitIZ9copy_fileRKNSt7__cxx1112basic_stringIcSt11char_traitsIcESaIcEEES9_bEUlvE0_ECI1NS0_11scope_guardISA_NS0_13strategy_exitEEEISA_LDn0ELDn0EEEOT_>:
    250e:	55                   	push   %rbp
    250f:	48 89 e5             	mov    %rsp,%rbp
    2512:	48 83 ec 10          	sub    $0x10,%rsp
    2516:	48 89 7d f8          	mov    %rdi,-0x8(%rbp)
    251a:	48 89 75 f0          	mov    %rsi,-0x10(%rbp)
    251e:	48 8b 45 f8          	mov    -0x8(%rbp),%rax
    2522:	48 8b 55 f0          	mov    -0x10(%rbp),%rdx
    2526:	48 89 d6             	mov    %rdx,%rsi
    2529:	48 89 c7             	mov    %rax,%rdi
    252c:	e8 d5 00 00 00       	callq  2606 <_ZN5scope6detail11scope_guardIZ9copy_fileRKNSt7__cxx1112basic_stringIcSt11char_traitsIcESaIcEEES9_bEUlvE0_NS0_13strategy_exitEEC2ISA_LDn0ELDn0EEEOT_>
    2531:	90                   	nop
    2532:	c9                   	leaveq 
    2533:	c3                   	retq   

0000000000002534 <_ZN5scope6detail15make_scope_exitIZ9copy_fileRKNSt7__cxx1112basic_stringIcSt11char_traitsIcESaIcEEES9_bEUlvE0_EENS0_10scope_exitIT_EEOSC_>:
    2534:	f3 0f 1e fa          	endbr64 
    2538:	55                   	push   %rbp
    2539:	48 89 e5             	mov    %rsp,%rbp
    253c:	48 83 ec 10          	sub    $0x10,%rsp
    2540:	48 89 7d f8          	mov    %rdi,-0x8(%rbp)
    2544:	48 89 75 f0          	mov    %rsi,-0x10(%rbp)
    2548:	48 8b 45 f0          	mov    -0x10(%rbp),%rax
    254c:	48 89 c7             	mov    %rax,%rdi
    254f:	e8 a3 00 00 00       	callq  25f7 <_ZSt7forwardIZ9copy_fileRKNSt7__cxx1112basic_stringIcSt11char_traitsIcESaIcEEES7_bEUlvE0_EOT_RNSt16remove_referenceIS9_E4typeE>
    2554:	48 89 c2             	mov    %rax,%rdx
    2557:	48 8b 45 f8          	mov    -0x8(%rbp),%rax
    255b:	48 89 d6             	mov    %rdx,%rsi
    255e:	48 89 c7             	mov    %rax,%rdi
    2561:	e8 a8 ff ff ff       	callq  250e <_ZN5scope6detail10scope_exitIZ9copy_fileRKNSt7__cxx1112basic_stringIcSt11char_traitsIcESaIcEEES9_bEUlvE0_ECI1NS0_11scope_guardISA_NS0_13strategy_exitEEEISA_LDn0ELDn0EEEOT_>
    2566:	48 8b 45 f8          	mov    -0x8(%rbp),%rax
    256a:	c9                   	leaveq 
    256b:	c3                   	retq   

000000000000256c <_ZN5scope6detail11scope_guardIZ9copy_fileRKNSt7__cxx1112basic_stringIcSt11char_traitsIcESaIcEEES9_bEUlvE0_NS0_13strategy_exitEED2Ev>:
    256c:	55                   	push   %rbp
    256d:	48 89 e5             	mov    %rsp,%rbp
    2570:	48 83 ec 10          	sub    $0x10,%rsp
    2574:	48 89 7d f8          	mov    %rdi,-0x8(%rbp)
    2578:	48 8b 45 f8          	mov    -0x8(%rbp),%rax
    257c:	0f b6 00             	movzbl (%rax),%eax
    257f:	84 c0                	test   %al,%al
    2581:	74 1b                	je     259e <_ZN5scope6detail11scope_guardIZ9copy_fileRKNSt7__cxx1112basic_stringIcSt11char_traitsIcESaIcEEES9_bEUlvE0_NS0_13strategy_exitEED2Ev+0x32>
    2583:	48 8b 45 f8          	mov    -0x8(%rbp),%rax
    2587:	48 83 c0 01          	add    $0x1,%rax
    258b:	48 89 c7             	mov    %rax,%rdi
    258e:	e8 00 00 00 00       	callq  2593 <_ZN5scope6detail11scope_guardIZ9copy_fileRKNSt7__cxx1112basic_stringIcSt11char_traitsIcESaIcEEES9_bEUlvE0_NS0_13strategy_exitEED2Ev+0x27>
    2593:	84 c0                	test   %al,%al
    2595:	74 07                	je     259e <_ZN5scope6detail11scope_guardIZ9copy_fileRKNSt7__cxx1112basic_stringIcSt11char_traitsIcESaIcEEES9_bEUlvE0_NS0_13strategy_exitEED2Ev+0x32>
    2597:	b8 01 00 00 00       	mov    $0x1,%eax
    259c:	eb 05                	jmp    25a3 <_ZN5scope6detail11scope_guardIZ9copy_fileRKNSt7__cxx1112basic_stringIcSt11char_traitsIcESaIcEEES9_bEUlvE0_NS0_13strategy_exitEED2Ev+0x37>
    259e:	b8 00 00 00 00       	mov    $0x0,%eax
    25a3:	84 c0                	test   %al,%al
    25a5:	74 10                	je     25b7 <_ZN5scope6detail11scope_guardIZ9copy_fileRKNSt7__cxx1112basic_stringIcSt11char_traitsIcESaIcEEES9_bEUlvE0_NS0_13strategy_exitEED2Ev+0x4b>
    25a7:	48 8b 45 f8          	mov    -0x8(%rbp),%rax
    25ab:	48 83 c0 04          	add    $0x4,%rax
    25af:	48 89 c7             	mov    %rax,%rdi
    25b2:	e8 81 da ff ff       	callq  38 <_ZZ9copy_fileRKNSt7__cxx1112basic_stringIcSt11char_traitsIcESaIcEEES6_bENKUlvE0_clEv>
    25b7:	90                   	nop
    25b8:	c9                   	leaveq 
    25b9:	c3                   	retq   

00000000000025ba <_ZSt7forwardIZ9copy_fileRKNSt7__cxx1112basic_stringIcSt11char_traitsIcESaIcEEES7_bEUlvE_EOT_RNSt16remove_referenceIS9_E4typeE>:
    25ba:	55                   	push   %rbp
    25bb:	48 89 e5             	mov    %rsp,%rbp
    25be:	48 89 7d f8          	mov    %rdi,-0x8(%rbp)
    25c2:	48 8b 45 f8          	mov    -0x8(%rbp),%rax
    25c6:	5d                   	pop    %rbp
    25c7:	c3                   	retq   

00000000000025c8 <_ZN5scope6detail11scope_guardIZ9copy_fileRKNSt7__cxx1112basic_stringIcSt11char_traitsIcESaIcEEES9_bEUlvE_NS0_13strategy_exitEEC2ISA_LDn0ELDn0EEEOT_>:
    25c8:	55                   	push   %rbp
    25c9:	48 89 e5             	mov    %rsp,%rbp
    25cc:	48 83 ec 10          	sub    $0x10,%rsp
    25d0:	48 89 7d f8          	mov    %rdi,-0x8(%rbp)
    25d4:	48 89 75 f0          	mov    %rsi,-0x10(%rbp)
    25d8:	48 8b 45 f8          	mov    -0x8(%rbp),%rax
    25dc:	c6 00 01             	movb   $0x1,(%rax)
    25df:	48 8b 45 f0          	mov    -0x10(%rbp),%rax
    25e3:	48 89 c7             	mov    %rax,%rdi
    25e6:	e8 cf ff ff ff       	callq  25ba <_ZSt7forwardIZ9copy_fileRKNSt7__cxx1112basic_stringIcSt11char_traitsIcESaIcEEES7_bEUlvE_EOT_RNSt16remove_referenceIS9_E4typeE>
    25eb:	48 8b 55 f8          	mov    -0x8(%rbp),%rdx
    25ef:	8b 00                	mov    (%rax),%eax
    25f1:	89 42 04             	mov    %eax,0x4(%rdx)
    25f4:	90                   	nop
    25f5:	c9                   	leaveq 
    25f6:	c3                   	retq   

00000000000025f7 <_ZSt7forwardIZ9copy_fileRKNSt7__cxx1112basic_stringIcSt11char_traitsIcESaIcEEES7_bEUlvE0_EOT_RNSt16remove_referenceIS9_E4typeE>:
    25f7:	55                   	push   %rbp
    25f8:	48 89 e5             	mov    %rsp,%rbp
    25fb:	48 89 7d f8          	mov    %rdi,-0x8(%rbp)
    25ff:	48 8b 45 f8          	mov    -0x8(%rbp),%rax
    2603:	5d                   	pop    %rbp
    2604:	c3                   	retq   
    2605:	90                   	nop

0000000000002606 <_ZN5scope6detail11scope_guardIZ9copy_fileRKNSt7__cxx1112basic_stringIcSt11char_traitsIcESaIcEEES9_bEUlvE0_NS0_13strategy_exitEEC2ISA_LDn0ELDn0EEEOT_>:
    2606:	55                   	push   %rbp
    2607:	48 89 e5             	mov    %rsp,%rbp
    260a:	48 83 ec 10          	sub    $0x10,%rsp
    260e:	48 89 7d f8          	mov    %rdi,-0x8(%rbp)
    2612:	48 89 75 f0          	mov    %rsi,-0x10(%rbp)
    2616:	48 8b 45 f8          	mov    -0x8(%rbp),%rax
    261a:	c6 00 01             	movb   $0x1,(%rax)
    261d:	48 8b 45 f0          	mov    -0x10(%rbp),%rax
    2621:	48 89 c7             	mov    %rax,%rdi
    2624:	e8 ce ff ff ff       	callq  25f7 <_ZSt7forwardIZ9copy_fileRKNSt7__cxx1112basic_stringIcSt11char_traitsIcESaIcEEES7_bEUlvE0_EOT_RNSt16remove_referenceIS9_E4typeE>
    2629:	48 8b 55 f8          	mov    -0x8(%rbp),%rdx
    262d:	8b 00                	mov    (%rax),%eax
    262f:	89 42 04             	mov    %eax,0x4(%rdx)
    2632:	90                   	nop
    2633:	c9                   	leaveq 
    2634:	c3                   	retq   

0000000000002635 <_Z41__static_initialization_and_destruction_0ii>:
    2635:	f3 0f 1e fa          	endbr64 
    2639:	55                   	push   %rbp
    263a:	48 89 e5             	mov    %rsp,%rbp
    263d:	48 83 ec 10          	sub    $0x10,%rsp
    2641:	89 7d fc             	mov    %edi,-0x4(%rbp)
    2644:	89 75 f8             	mov    %esi,-0x8(%rbp)
    2647:	83 7d fc 01          	cmpl   $0x1,-0x4(%rbp)
    264b:	75 32                	jne    267f <_Z41__static_initialization_and_destruction_0ii+0x4a>
    264d:	81 7d f8 ff ff 00 00 	cmpl   $0xffff,-0x8(%rbp)
    2654:	75 29                	jne    267f <_Z41__static_initialization_and_destruction_0ii+0x4a>
    2656:	48 8d 3d 00 00 00 00 	lea    0x0(%rip),%rdi        # 265d <_Z41__static_initialization_and_destruction_0ii+0x28>
    265d:	e8 00 00 00 00       	callq  2662 <_Z41__static_initialization_and_destruction_0ii+0x2d>
    2662:	48 8d 15 00 00 00 00 	lea    0x0(%rip),%rdx        # 2669 <_Z41__static_initialization_and_destruction_0ii+0x34>
    2669:	48 8d 35 00 00 00 00 	lea    0x0(%rip),%rsi        # 2670 <_Z41__static_initialization_and_destruction_0ii+0x3b>
    2670:	48 8b 05 00 00 00 00 	mov    0x0(%rip),%rax        # 2677 <_Z41__static_initialization_and_destruction_0ii+0x42>
    2677:	48 89 c7             	mov    %rax,%rdi
    267a:	e8 00 00 00 00       	callq  267f <_Z41__static_initialization_and_destruction_0ii+0x4a>
    267f:	90                   	nop
    2680:	c9                   	leaveq 
    2681:	c3                   	retq   

0000000000002682 <_GLOBAL__sub_I__Z9copy_fileRKNSt7__cxx1112basic_stringIcSt11char_traitsIcESaIcEEES6_b>:
    2682:	f3 0f 1e fa          	endbr64 
    2686:	55                   	push   %rbp
    2687:	48 89 e5             	mov    %rsp,%rbp
    268a:	be ff ff 00 00       	mov    $0xffff,%esi
    268f:	bf 01 00 00 00       	mov    $0x1,%edi
    2694:	e8 9c ff ff ff       	callq  2635 <_Z41__static_initialization_and_destruction_0ii>
    2699:	5d                   	pop    %rbp
    269a:	c3                   	retq   

Disassembly of section .text._ZNSt11char_traitsIcE6assignERcRKc:

0000000000000000 <_ZNSt11char_traitsIcE6assignERcRKc>:
   0:	f3 0f 1e fa          	endbr64 
   4:	55                   	push   %rbp
   5:	48 89 e5             	mov    %rsp,%rbp
   8:	48 89 7d f8          	mov    %rdi,-0x8(%rbp)
   c:	48 89 75 f0          	mov    %rsi,-0x10(%rbp)
  10:	48 8b 45 f0          	mov    -0x10(%rbp),%rax
  14:	0f b6 10             	movzbl (%rax),%edx
  17:	48 8b 45 f8          	mov    -0x8(%rbp),%rax
  1b:	88 10                	mov    %dl,(%rax)
  1d:	90                   	nop
  1e:	5d                   	pop    %rbp
  1f:	c3                   	retq   

Disassembly of section .text._ZnwmPv:

0000000000000000 <_ZnwmPv>:
   0:	f3 0f 1e fa          	endbr64 
   4:	55                   	push   %rbp
   5:	48 89 e5             	mov    %rsp,%rbp
   8:	48 89 7d f8          	mov    %rdi,-0x8(%rbp)
   c:	48 89 75 f0          	mov    %rsi,-0x10(%rbp)
  10:	48 8b 45 f0          	mov    -0x10(%rbp),%rax
  14:	5d                   	pop    %rbp
  15:	c3                   	retq   

Disassembly of section .text._ZdlPvS_:

0000000000000000 <_ZdlPvS_>:
   0:	f3 0f 1e fa          	endbr64 
   4:	55                   	push   %rbp
   5:	48 89 e5             	mov    %rsp,%rbp
   8:	48 89 7d f8          	mov    %rdi,-0x8(%rbp)
   c:	48 89 75 f0          	mov    %rsi,-0x10(%rbp)
  10:	90                   	nop
  11:	5d                   	pop    %rbp
  12:	c3                   	retq   

Disassembly of section .text._ZNSt7__cxx119to_stringEi:

0000000000000000 <_ZNSt7__cxx119to_stringEi>:
   0:	f3 0f 1e fa          	endbr64 
   4:	55                   	push   %rbp
   5:	48 89 e5             	mov    %rsp,%rbp
   8:	48 83 ec 20          	sub    $0x20,%rsp
   c:	48 89 7d e8          	mov    %rdi,-0x18(%rbp)
  10:	89 75 e4             	mov    %esi,-0x1c(%rbp)
  13:	64 48 8b 04 25 28 00 	mov    %fs:0x28,%rax
  1a:	00 00 
  1c:	48 89 45 f8          	mov    %rax,-0x8(%rbp)
  20:	31 c0                	xor    %eax,%eax
  22:	48 8b 45 e8          	mov    -0x18(%rbp),%rax
  26:	8b 55 e4             	mov    -0x1c(%rbp),%edx
  29:	41 89 d0             	mov    %edx,%r8d
  2c:	48 8d 0d 00 00 00 00 	lea    0x0(%rip),%rcx        # 33 <_ZNSt7__cxx119to_stringEi+0x33>
  33:	ba 10 00 00 00       	mov    $0x10,%edx
  38:	48 8b 35 00 00 00 00 	mov    0x0(%rip),%rsi        # 3f <_ZNSt7__cxx119to_stringEi+0x3f>
  3f:	48 89 c7             	mov    %rax,%rdi
  42:	b8 00 00 00 00       	mov    $0x0,%eax
  47:	e8 00 00 00 00       	callq  4c <_ZNSt7__cxx119to_stringEi+0x4c>
  4c:	48 8b 45 f8          	mov    -0x8(%rbp),%rax
  50:	64 48 33 04 25 28 00 	xor    %fs:0x28,%rax
  57:	00 00 
  59:	74 05                	je     60 <_ZNSt7__cxx119to_stringEi+0x60>
  5b:	e8 00 00 00 00       	callq  60 <_ZNSt7__cxx119to_stringEi+0x60>
  60:	48 8b 45 e8          	mov    -0x18(%rbp),%rax
  64:	c9                   	leaveq 
  65:	c3                   	retq   

Disassembly of section .text._ZNSt10error_codeC2Ev:

0000000000000000 <_ZNSt10error_codeC1Ev>:
   0:	f3 0f 1e fa          	endbr64 
   4:	55                   	push   %rbp
   5:	48 89 e5             	mov    %rsp,%rbp
   8:	48 83 ec 10          	sub    $0x10,%rsp
   c:	48 89 7d f8          	mov    %rdi,-0x8(%rbp)
  10:	48 8b 45 f8          	mov    -0x8(%rbp),%rax
  14:	c7 00 00 00 00 00    	movl   $0x0,(%rax)
  1a:	e8 00 00 00 00       	callq  1f <_ZNSt10error_codeC1Ev+0x1f>
  1f:	48 8b 55 f8          	mov    -0x8(%rbp),%rdx
  23:	48 89 42 08          	mov    %rax,0x8(%rdx)
  27:	90                   	nop
  28:	c9                   	leaveq 
  29:	c3                   	retq   

Disassembly of section .text._ZNSt10error_codeC2EiRKNSt3_V214error_categoryE:

0000000000000000 <_ZNSt10error_codeC1EiRKNSt3_V214error_categoryE>:
   0:	f3 0f 1e fa          	endbr64 
   4:	55                   	push   %rbp
   5:	48 89 e5             	mov    %rsp,%rbp
   8:	48 89 7d f8          	mov    %rdi,-0x8(%rbp)
   c:	89 75 f4             	mov    %esi,-0xc(%rbp)
   f:	48 89 55 e8          	mov    %rdx,-0x18(%rbp)
  13:	48 8b 45 f8          	mov    -0x8(%rbp),%rax
  17:	8b 55 f4             	mov    -0xc(%rbp),%edx
  1a:	89 10                	mov    %edx,(%rax)
  1c:	48 8b 45 f8          	mov    -0x8(%rbp),%rax
  20:	48 8b 55 e8          	mov    -0x18(%rbp),%rdx
  24:	48 89 50 08          	mov    %rdx,0x8(%rax)
  28:	90                   	nop
  29:	5d                   	pop    %rbp
  2a:	c3                   	retq   

Disassembly of section .text._ZNKSt10error_code5valueEv:

0000000000000000 <_ZNKSt10error_code5valueEv>:
   0:	f3 0f 1e fa          	endbr64 
   4:	55                   	push   %rbp
   5:	48 89 e5             	mov    %rsp,%rbp
   8:	48 89 7d f8          	mov    %rdi,-0x8(%rbp)
   c:	48 8b 45 f8          	mov    -0x8(%rbp),%rax
  10:	8b 00                	mov    (%rax),%eax
  12:	5d                   	pop    %rbp
  13:	c3                   	retq   

Disassembly of section .text._ZNKSt10error_code8categoryEv:

0000000000000000 <_ZNKSt10error_code8categoryEv>:
   0:	f3 0f 1e fa          	endbr64 
   4:	55                   	push   %rbp
   5:	48 89 e5             	mov    %rsp,%rbp
   8:	48 89 7d f8          	mov    %rdi,-0x8(%rbp)
   c:	48 8b 45 f8          	mov    -0x8(%rbp),%rax
  10:	48 8b 40 08          	mov    0x8(%rax),%rax
  14:	5d                   	pop    %rbp
  15:	c3                   	retq   

Disassembly of section .text._ZNKSt10error_code7messageB5cxx11Ev:

0000000000000000 <_ZNKSt10error_code7messageB5cxx11Ev>:
   0:	f3 0f 1e fa          	endbr64 
   4:	55                   	push   %rbp
   5:	48 89 e5             	mov    %rsp,%rbp
   8:	41 54                	push   %r12
   a:	53                   	push   %rbx
   b:	48 83 ec 20          	sub    $0x20,%rsp
   f:	48 89 7d d8          	mov    %rdi,-0x28(%rbp)
  13:	48 89 75 d0          	mov    %rsi,-0x30(%rbp)
  17:	64 48 8b 04 25 28 00 	mov    %fs:0x28,%rax
  1e:	00 00 
  20:	48 89 45 e8          	mov    %rax,-0x18(%rbp)
  24:	31 c0                	xor    %eax,%eax
  26:	48 8b 45 d0          	mov    -0x30(%rbp),%rax
  2a:	48 89 c7             	mov    %rax,%rdi
  2d:	e8 00 00 00 00       	callq  32 <_ZNKSt10error_code7messageB5cxx11Ev+0x32>
  32:	48 89 c3             	mov    %rax,%rbx
  35:	48 8b 03             	mov    (%rbx),%rax
  38:	48 83 c0 20          	add    $0x20,%rax
  3c:	4c 8b 20             	mov    (%rax),%r12
  3f:	48 8b 45 d0          	mov    -0x30(%rbp),%rax
  43:	48 89 c7             	mov    %rax,%rdi
  46:	e8 00 00 00 00       	callq  4b <_ZNKSt10error_code7messageB5cxx11Ev+0x4b>
  4b:	89 c2                	mov    %eax,%edx
  4d:	48 8b 45 d8          	mov    -0x28(%rbp),%rax
  51:	48 89 de             	mov    %rbx,%rsi
  54:	48 89 c7             	mov    %rax,%rdi
  57:	41 ff d4             	callq  *%r12
  5a:	48 8b 45 e8          	mov    -0x18(%rbp),%rax
  5e:	64 48 33 04 25 28 00 	xor    %fs:0x28,%rax
  65:	00 00 
  67:	74 05                	je     6e <_ZNKSt10error_code7messageB5cxx11Ev+0x6e>
  69:	e8 00 00 00 00       	callq  6e <_ZNKSt10error_code7messageB5cxx11Ev+0x6e>
  6e:	48 8b 45 d8          	mov    -0x28(%rbp),%rax
  72:	48 83 c4 20          	add    $0x20,%rsp
  76:	5b                   	pop    %rbx
  77:	41 5c                	pop    %r12
  79:	5d                   	pop    %rbp
  7a:	c3                   	retq   

Disassembly of section .text._ZNSt12system_errorC2EiRKNSt3_V214error_categoryE:

0000000000000000 <_ZNSt12system_errorC1EiRKNSt3_V214error_categoryE>:
   0:	f3 0f 1e fa          	endbr64 
   4:	55                   	push   %rbp
   5:	48 89 e5             	mov    %rsp,%rbp
   8:	53                   	push   %rbx
   9:	48 83 ec 68          	sub    $0x68,%rsp
   d:	48 89 7d a8          	mov    %rdi,-0x58(%rbp)
  11:	89 75 a4             	mov    %esi,-0x5c(%rbp)
  14:	48 89 55 98          	mov    %rdx,-0x68(%rbp)
  18:	64 48 8b 04 25 28 00 	mov    %fs:0x28,%rax
  1f:	00 00 
  21:	48 89 45 e8          	mov    %rax,-0x18(%rbp)
  25:	31 c0                	xor    %eax,%eax
  27:	48 8b 5d a8          	mov    -0x58(%rbp),%rbx
  2b:	48 8b 55 98          	mov    -0x68(%rbp),%rdx
  2f:	8b 4d a4             	mov    -0x5c(%rbp),%ecx
  32:	48 8d 45 b0          	lea    -0x50(%rbp),%rax
  36:	89 ce                	mov    %ecx,%esi
  38:	48 89 c7             	mov    %rax,%rdi
  3b:	e8 00 00 00 00       	callq  40 <_ZNSt12system_errorC1EiRKNSt3_V214error_categoryE+0x40>
  40:	48 8d 45 c0          	lea    -0x40(%rbp),%rax
  44:	48 8d 55 b0          	lea    -0x50(%rbp),%rdx
  48:	48 89 d6             	mov    %rdx,%rsi
  4b:	48 89 c7             	mov    %rax,%rdi
  4e:	e8 00 00 00 00       	callq  53 <_ZNSt12system_errorC1EiRKNSt3_V214error_categoryE+0x53>
  53:	48 8d 45 c0          	lea    -0x40(%rbp),%rax
  57:	48 89 c6             	mov    %rax,%rsi
  5a:	48 89 df             	mov    %rbx,%rdi
  5d:	e8 00 00 00 00       	callq  62 <_ZNSt12system_errorC1EiRKNSt3_V214error_categoryE+0x62>
  62:	48 8d 45 c0          	lea    -0x40(%rbp),%rax
  66:	48 89 c7             	mov    %rax,%rdi
  69:	e8 00 00 00 00       	callq  6e <_ZNSt12system_errorC1EiRKNSt3_V214error_categoryE+0x6e>
  6e:	48 8d 15 00 00 00 00 	lea    0x0(%rip),%rdx        # 75 <_ZNSt12system_errorC1EiRKNSt3_V214error_categoryE+0x75>
  75:	48 8b 45 a8          	mov    -0x58(%rbp),%rax
  79:	48 89 10             	mov    %rdx,(%rax)
  7c:	48 8b 45 a8          	mov    -0x58(%rbp),%rax
  80:	48 8d 48 10          	lea    0x10(%rax),%rcx
  84:	48 8b 55 98          	mov    -0x68(%rbp),%rdx
  88:	8b 45 a4             	mov    -0x5c(%rbp),%eax
  8b:	89 c6                	mov    %eax,%esi
  8d:	48 89 cf             	mov    %rcx,%rdi
  90:	e8 00 00 00 00       	callq  95 <_ZNSt12system_errorC1EiRKNSt3_V214error_categoryE+0x95>
  95:	90                   	nop
  96:	48 8b 45 e8          	mov    -0x18(%rbp),%rax
  9a:	64 48 33 04 25 28 00 	xor    %fs:0x28,%rax
  a1:	00 00 
  a3:	74 25                	je     ca <_ZNSt12system_errorC1EiRKNSt3_V214error_categoryE+0xca>
  a5:	eb 1e                	jmp    c5 <_ZNSt12system_errorC1EiRKNSt3_V214error_categoryE+0xc5>
  a7:	f3 0f 1e fa          	endbr64 
  ab:	48 89 c3             	mov    %rax,%rbx
  ae:	48 8d 45 c0          	lea    -0x40(%rbp),%rax
  b2:	48 89 c7             	mov    %rax,%rdi
  b5:	e8 00 00 00 00       	callq  ba <_ZNSt12system_errorC1EiRKNSt3_V214error_categoryE+0xba>
  ba:	48 89 d8             	mov    %rbx,%rax
  bd:	48 89 c7             	mov    %rax,%rdi
  c0:	e8 00 00 00 00       	callq  c5 <_ZNSt12system_errorC1EiRKNSt3_V214error_categoryE+0xc5>
  c5:	e8 00 00 00 00       	callq  ca <_ZNSt12system_errorC1EiRKNSt3_V214error_categoryE+0xca>
  ca:	48 83 c4 68          	add    $0x68,%rsp
  ce:	5b                   	pop    %rbx
  cf:	5d                   	pop    %rbp
  d0:	c3                   	retq   

Disassembly of section .text._ZNSt12system_errorC2EiRKNSt3_V214error_categoryERKNSt7__cxx1112basic_stringIcSt11char_traitsIcESaIcEEE:

0000000000000000 <_ZNSt12system_errorC1EiRKNSt3_V214error_categoryERKNSt7__cxx1112basic_stringIcSt11char_traitsIcESaIcEEE>:
   0:	f3 0f 1e fa          	endbr64 
   4:	55                   	push   %rbp
   5:	48 89 e5             	mov    %rsp,%rbp
   8:	53                   	push   %rbx
   9:	48 81 ec a8 00 00 00 	sub    $0xa8,%rsp
  10:	48 89 bd 68 ff ff ff 	mov    %rdi,-0x98(%rbp)
  17:	89 b5 64 ff ff ff    	mov    %esi,-0x9c(%rbp)
  1d:	48 89 95 58 ff ff ff 	mov    %rdx,-0xa8(%rbp)
  24:	48 89 8d 50 ff ff ff 	mov    %rcx,-0xb0(%rbp)
  2b:	64 48 8b 04 25 28 00 	mov    %fs:0x28,%rax
  32:	00 00 
  34:	48 89 45 e8          	mov    %rax,-0x18(%rbp)
  38:	31 c0                	xor    %eax,%eax
  3a:	48 8b 9d 68 ff ff ff 	mov    -0x98(%rbp),%rbx
  41:	48 8b 95 58 ff ff ff 	mov    -0xa8(%rbp),%rdx
  48:	8b 8d 64 ff ff ff    	mov    -0x9c(%rbp),%ecx
  4e:	48 8d 85 70 ff ff ff 	lea    -0x90(%rbp),%rax
  55:	89 ce                	mov    %ecx,%esi
  57:	48 89 c7             	mov    %rax,%rdi
  5a:	e8 00 00 00 00       	callq  5f <_ZNSt12system_errorC1EiRKNSt3_V214error_categoryERKNSt7__cxx1112basic_stringIcSt11char_traitsIcESaIcEEE+0x5f>
  5f:	48 8d 45 c0          	lea    -0x40(%rbp),%rax
  63:	48 8d 95 70 ff ff ff 	lea    -0x90(%rbp),%rdx
  6a:	48 89 d6             	mov    %rdx,%rsi
  6d:	48 89 c7             	mov    %rax,%rdi
  70:	e8 00 00 00 00       	callq  75 <_ZNSt12system_errorC1EiRKNSt3_V214error_categoryERKNSt7__cxx1112basic_stringIcSt11char_traitsIcESaIcEEE+0x75>
  75:	48 8d 45 a0          	lea    -0x60(%rbp),%rax
  79:	48 8b 8d 50 ff ff ff 	mov    -0xb0(%rbp),%rcx
  80:	48 8d 15 00 00 00 00 	lea    0x0(%rip),%rdx        # 87 <_ZNSt12system_errorC1EiRKNSt3_V214error_categoryERKNSt7__cxx1112basic_stringIcSt11char_traitsIcESaIcEEE+0x87>
  87:	48 89 ce             	mov    %rcx,%rsi
  8a:	48 89 c7             	mov    %rax,%rdi
  8d:	e8 00 00 00 00       	callq  92 <_ZNSt12system_errorC1EiRKNSt3_V214error_categoryERKNSt7__cxx1112basic_stringIcSt11char_traitsIcESaIcEEE+0x92>
  92:	48 8d 45 80          	lea    -0x80(%rbp),%rax
  96:	48 8d 55 c0          	lea    -0x40(%rbp),%rdx
  9a:	48 8d 4d a0          	lea    -0x60(%rbp),%rcx
  9e:	48 89 ce             	mov    %rcx,%rsi
  a1:	48 89 c7             	mov    %rax,%rdi
  a4:	e8 00 00 00 00       	callq  a9 <_ZNSt12system_errorC1EiRKNSt3_V214error_categoryERKNSt7__cxx1112basic_stringIcSt11char_traitsIcESaIcEEE+0xa9>
  a9:	48 8d 45 80          	lea    -0x80(%rbp),%rax
  ad:	48 89 c6             	mov    %rax,%rsi
  b0:	48 89 df             	mov    %rbx,%rdi
  b3:	e8 00 00 00 00       	callq  b8 <_ZNSt12system_errorC1EiRKNSt3_V214error_categoryERKNSt7__cxx1112basic_stringIcSt11char_traitsIcESaIcEEE+0xb8>
  b8:	48 8d 45 80          	lea    -0x80(%rbp),%rax
  bc:	48 89 c7             	mov    %rax,%rdi
  bf:	e8 00 00 00 00       	callq  c4 <_ZNSt12system_errorC1EiRKNSt3_V214error_categoryERKNSt7__cxx1112basic_stringIcSt11char_traitsIcESaIcEEE+0xc4>
  c4:	48 8d 45 a0          	lea    -0x60(%rbp),%rax
  c8:	48 89 c7             	mov    %rax,%rdi
  cb:	e8 00 00 00 00       	callq  d0 <_ZNSt12system_errorC1EiRKNSt3_V214error_categoryERKNSt7__cxx1112basic_stringIcSt11char_traitsIcESaIcEEE+0xd0>
  d0:	48 8d 45 c0          	lea    -0x40(%rbp),%rax
  d4:	48 89 c7             	mov    %rax,%rdi
  d7:	e8 00 00 00 00       	callq  dc <_ZNSt12system_errorC1EiRKNSt3_V214error_categoryERKNSt7__cxx1112basic_stringIcSt11char_traitsIcESaIcEEE+0xdc>
  dc:	48 8d 15 00 00 00 00 	lea    0x0(%rip),%rdx        # e3 <_ZNSt12system_errorC1EiRKNSt3_V214error_categoryERKNSt7__cxx1112basic_stringIcSt11char_traitsIcESaIcEEE+0xe3>
  e3:	48 8b 85 68 ff ff ff 	mov    -0x98(%rbp),%rax
  ea:	48 89 10             	mov    %rdx,(%rax)
  ed:	48 8b 85 68 ff ff ff 	mov    -0x98(%rbp),%rax
  f4:	48 8d 48 10          	lea    0x10(%rax),%rcx
  f8:	48 8b 95 58 ff ff ff 	mov    -0xa8(%rbp),%rdx
  ff:	8b 85 64 ff ff ff    	mov    -0x9c(%rbp),%eax
 105:	89 c6                	mov    %eax,%esi
 107:	48 89 cf             	mov    %rcx,%rdi
 10a:	e8 00 00 00 00       	callq  10f <_ZNSt12system_errorC1EiRKNSt3_V214error_categoryERKNSt7__cxx1112basic_stringIcSt11char_traitsIcESaIcEEE+0x10f>
 10f:	90                   	nop
 110:	48 8b 45 e8          	mov    -0x18(%rbp),%rax
 114:	64 48 33 04 25 28 00 	xor    %fs:0x28,%rax
 11b:	00 00 
 11d:	74 4f                	je     16e <_ZNSt12system_errorC1EiRKNSt3_V214error_categoryERKNSt7__cxx1112basic_stringIcSt11char_traitsIcESaIcEEE+0x16e>
 11f:	eb 48                	jmp    169 <_ZNSt12system_errorC1EiRKNSt3_V214error_categoryERKNSt7__cxx1112basic_stringIcSt11char_traitsIcESaIcEEE+0x169>
 121:	f3 0f 1e fa          	endbr64 
 125:	48 89 c3             	mov    %rax,%rbx
 128:	48 8d 45 80          	lea    -0x80(%rbp),%rax
 12c:	48 89 c7             	mov    %rax,%rdi
 12f:	e8 00 00 00 00       	callq  134 <_ZNSt12system_errorC1EiRKNSt3_V214error_categoryERKNSt7__cxx1112basic_stringIcSt11char_traitsIcESaIcEEE+0x134>
 134:	eb 07                	jmp    13d <_ZNSt12system_errorC1EiRKNSt3_V214error_categoryERKNSt7__cxx1112basic_stringIcSt11char_traitsIcESaIcEEE+0x13d>
 136:	f3 0f 1e fa          	endbr64 
 13a:	48 89 c3             	mov    %rax,%rbx
 13d:	48 8d 45 a0          	lea    -0x60(%rbp),%rax
 141:	48 89 c7             	mov    %rax,%rdi
 144:	e8 00 00 00 00       	callq  149 <_ZNSt12system_errorC1EiRKNSt3_V214error_categoryERKNSt7__cxx1112basic_stringIcSt11char_traitsIcESaIcEEE+0x149>
 149:	eb 07                	jmp    152 <_ZNSt12system_errorC1EiRKNSt3_V214error_categoryERKNSt7__cxx1112basic_stringIcSt11char_traitsIcESaIcEEE+0x152>
 14b:	f3 0f 1e fa          	endbr64 
 14f:	48 89 c3             	mov    %rax,%rbx
 152:	48 8d 45 c0          	lea    -0x40(%rbp),%rax
 156:	48 89 c7             	mov    %rax,%rdi
 159:	e8 00 00 00 00       	callq  15e <_ZNSt12system_errorC1EiRKNSt3_V214error_categoryERKNSt7__cxx1112basic_stringIcSt11char_traitsIcESaIcEEE+0x15e>
 15e:	48 89 d8             	mov    %rbx,%rax
 161:	48 89 c7             	mov    %rax,%rdi
 164:	e8 00 00 00 00       	callq  169 <_ZNSt12system_errorC1EiRKNSt3_V214error_categoryERKNSt7__cxx1112basic_stringIcSt11char_traitsIcESaIcEEE+0x169>
 169:	e8 00 00 00 00       	callq  16e <_ZNSt12system_errorC1EiRKNSt3_V214error_categoryERKNSt7__cxx1112basic_stringIcSt11char_traitsIcESaIcEEE+0x16e>
 16e:	48 81 c4 a8 00 00 00 	add    $0xa8,%rsp
 175:	5b                   	pop    %rbx
 176:	5d                   	pop    %rbp
 177:	c3                   	retq   

Disassembly of section .text._ZNK5scope6detail13strategy_exit14call_when_dtorEv:

0000000000000000 <_ZNK5scope6detail13strategy_exit14call_when_dtorEv>:
   0:	f3 0f 1e fa          	endbr64 
   4:	55                   	push   %rbp
   5:	48 89 e5             	mov    %rsp,%rbp
   8:	48 89 7d f8          	mov    %rdi,-0x8(%rbp)
   c:	b8 01 00 00 00       	mov    $0x1,%eax
  11:	5d                   	pop    %rbp
  12:	c3                   	retq   

Disassembly of section .text._ZNSt12_Vector_baseIhSaIhEE12_Vector_implD2Ev:

0000000000000000 <_ZNSt12_Vector_baseIhSaIhEE12_Vector_implD1Ev>:
   0:	f3 0f 1e fa          	endbr64 
   4:	55                   	push   %rbp
   5:	48 89 e5             	mov    %rsp,%rbp
   8:	48 83 ec 10          	sub    $0x10,%rsp
   c:	48 89 7d f8          	mov    %rdi,-0x8(%rbp)
  10:	48 8b 45 f8          	mov    -0x8(%rbp),%rax
  14:	48 89 c7             	mov    %rax,%rdi
  17:	e8 00 00 00 00       	callq  1c <_ZNSt12_Vector_baseIhSaIhEE12_Vector_implD1Ev+0x1c>
  1c:	90                   	nop
  1d:	c9                   	leaveq 
  1e:	c3                   	retq   

Disassembly of section .text._ZNSt12_Vector_baseIhSaIhEEC2Ev:

0000000000000000 <_ZNSt12_Vector_baseIhSaIhEEC1Ev>:
   0:	f3 0f 1e fa          	endbr64 
   4:	55                   	push   %rbp
   5:	48 89 e5             	mov    %rsp,%rbp
   8:	48 83 ec 10          	sub    $0x10,%rsp
   c:	48 89 7d f8          	mov    %rdi,-0x8(%rbp)
  10:	48 8b 45 f8          	mov    -0x8(%rbp),%rax
  14:	48 89 c7             	mov    %rax,%rdi
  17:	e8 00 00 00 00       	callq  1c <_ZNSt12_Vector_baseIhSaIhEEC1Ev+0x1c>
  1c:	90                   	nop
  1d:	c9                   	leaveq 
  1e:	c3                   	retq   

Disassembly of section .text._ZNSt6vectorIhSaIhEEC2Ev:

0000000000000000 <_ZNSt6vectorIhSaIhEEC1Ev>:
   0:	f3 0f 1e fa          	endbr64 
   4:	55                   	push   %rbp
   5:	48 89 e5             	mov    %rsp,%rbp
   8:	48 83 ec 10          	sub    $0x10,%rsp
   c:	48 89 7d f8          	mov    %rdi,-0x8(%rbp)
  10:	48 8b 45 f8          	mov    -0x8(%rbp),%rax
  14:	48 89 c7             	mov    %rax,%rdi
  17:	e8 00 00 00 00       	callq  1c <_ZNSt6vectorIhSaIhEEC1Ev+0x1c>
  1c:	90                   	nop
  1d:	c9                   	leaveq 
  1e:	c3                   	retq   

Disassembly of section .text._ZNSt12_Vector_baseISt6vectorINSt7__cxx1112basic_stringIcSt11char_traitsIcESaIcEEESaIS6_EESaIS8_EE12_Vector_implD2Ev:

0000000000000000 <_ZNSt12_Vector_baseISt6vectorINSt7__cxx1112basic_stringIcSt11char_traitsIcESaIcEEESaIS6_EESaIS8_EE12_Vector_implD1Ev>:
   0:	f3 0f 1e fa          	endbr64 
   4:	55                   	push   %rbp
   5:	48 89 e5             	mov    %rsp,%rbp
   8:	48 83 ec 10          	sub    $0x10,%rsp
   c:	48 89 7d f8          	mov    %rdi,-0x8(%rbp)
  10:	48 8b 45 f8          	mov    -0x8(%rbp),%rax
  14:	48 89 c7             	mov    %rax,%rdi
  17:	e8 00 00 00 00       	callq  1c <_ZNSt12_Vector_baseISt6vectorINSt7__cxx1112basic_stringIcSt11char_traitsIcESaIcEEESaIS6_EESaIS8_EE12_Vector_implD1Ev+0x1c>
  1c:	90                   	nop
  1d:	c9                   	leaveq 
  1e:	c3                   	retq   

Disassembly of section .text._ZNSt12_Vector_baseISt6vectorINSt7__cxx1112basic_stringIcSt11char_traitsIcESaIcEEESaIS6_EESaIS8_EEC2Ev:

0000000000000000 <_ZNSt12_Vector_baseISt6vectorINSt7__cxx1112basic_stringIcSt11char_traitsIcESaIcEEESaIS6_EESaIS8_EEC1Ev>:
   0:	f3 0f 1e fa          	endbr64 
   4:	55                   	push   %rbp
   5:	48 89 e5             	mov    %rsp,%rbp
   8:	48 83 ec 10          	sub    $0x10,%rsp
   c:	48 89 7d f8          	mov    %rdi,-0x8(%rbp)
  10:	48 8b 45 f8          	mov    -0x8(%rbp),%rax
  14:	48 89 c7             	mov    %rax,%rdi
  17:	e8 00 00 00 00       	callq  1c <_ZNSt12_Vector_baseISt6vectorINSt7__cxx1112basic_stringIcSt11char_traitsIcESaIcEEESaIS6_EESaIS8_EEC1Ev+0x1c>
  1c:	90                   	nop
  1d:	c9                   	leaveq 
  1e:	c3                   	retq   

Disassembly of section .text._ZNSt6vectorIS_INSt7__cxx1112basic_stringIcSt11char_traitsIcESaIcEEESaIS5_EESaIS7_EEC2Ev:

0000000000000000 <_ZNSt6vectorIS_INSt7__cxx1112basic_stringIcSt11char_traitsIcESaIcEEESaIS5_EESaIS7_EEC1Ev>:
   0:	f3 0f 1e fa          	endbr64 
   4:	55                   	push   %rbp
   5:	48 89 e5             	mov    %rsp,%rbp
   8:	48 83 ec 10          	sub    $0x10,%rsp
   c:	48 89 7d f8          	mov    %rdi,-0x8(%rbp)
  10:	48 8b 45 f8          	mov    -0x8(%rbp),%rax
  14:	48 89 c7             	mov    %rax,%rdi
  17:	e8 00 00 00 00       	callq  1c <_ZNSt6vectorIS_INSt7__cxx1112basic_stringIcSt11char_traitsIcESaIcEEESaIS5_EESaIS7_EEC1Ev+0x1c>
  1c:	90                   	nop
  1d:	c9                   	leaveq 
  1e:	c3                   	retq   

Disassembly of section .text._ZNSt12_Vector_baseINSt7__cxx1112basic_stringIcSt11char_traitsIcESaIcEEESaIS5_EE12_Vector_implD2Ev:

0000000000000000 <_ZNSt12_Vector_baseINSt7__cxx1112basic_stringIcSt11char_traitsIcESaIcEEESaIS5_EE12_Vector_implD1Ev>:
   0:	f3 0f 1e fa          	endbr64 
   4:	55                   	push   %rbp
   5:	48 89 e5             	mov    %rsp,%rbp
   8:	48 83 ec 10          	sub    $0x10,%rsp
   c:	48 89 7d f8          	mov    %rdi,-0x8(%rbp)
  10:	48 8b 45 f8          	mov    -0x8(%rbp),%rax
  14:	48 89 c7             	mov    %rax,%rdi
  17:	e8 00 00 00 00       	callq  1c <_ZNSt12_Vector_baseINSt7__cxx1112basic_stringIcSt11char_traitsIcESaIcEEESaIS5_EE12_Vector_implD1Ev+0x1c>
  1c:	90                   	nop
  1d:	c9                   	leaveq 
  1e:	c3                   	retq   

Disassembly of section .text._ZNSt12_Vector_baseINSt7__cxx1112basic_stringIcSt11char_traitsIcESaIcEEESaIS5_EEC2Ev:

0000000000000000 <_ZNSt12_Vector_baseINSt7__cxx1112basic_stringIcSt11char_traitsIcESaIcEEESaIS5_EEC1Ev>:
   0:	f3 0f 1e fa          	endbr64 
   4:	55                   	push   %rbp
   5:	48 89 e5             	mov    %rsp,%rbp
   8:	48 83 ec 10          	sub    $0x10,%rsp
   c:	48 89 7d f8          	mov    %rdi,-0x8(%rbp)
  10:	48 8b 45 f8          	mov    -0x8(%rbp),%rax
  14:	48 89 c7             	mov    %rax,%rdi
  17:	e8 00 00 00 00       	callq  1c <_ZNSt12_Vector_baseINSt7__cxx1112basic_stringIcSt11char_traitsIcESaIcEEESaIS5_EEC1Ev+0x1c>
  1c:	90                   	nop
  1d:	c9                   	leaveq 
  1e:	c3                   	retq   

Disassembly of section .text._ZNSt6vectorINSt7__cxx1112basic_stringIcSt11char_traitsIcESaIcEEESaIS5_EEC2Ev:

0000000000000000 <_ZNSt6vectorINSt7__cxx1112basic_stringIcSt11char_traitsIcESaIcEEESaIS5_EEC1Ev>:
   0:	f3 0f 1e fa          	endbr64 
   4:	55                   	push   %rbp
   5:	48 89 e5             	mov    %rsp,%rbp
   8:	48 83 ec 10          	sub    $0x10,%rsp
   c:	48 89 7d f8          	mov    %rdi,-0x8(%rbp)
  10:	48 8b 45 f8          	mov    -0x8(%rbp),%rax
  14:	48 89 c7             	mov    %rax,%rdi
  17:	e8 00 00 00 00       	callq  1c <_ZNSt6vectorINSt7__cxx1112basic_stringIcSt11char_traitsIcESaIcEEESaIS5_EEC1Ev+0x1c>
  1c:	90                   	nop
  1d:	c9                   	leaveq 
  1e:	c3                   	retq   

Disassembly of section .text._ZN9__gnu_cxx12__to_xstringINSt7__cxx1112basic_stringIcSt11char_traitsIcESaIcEEEcEET_PFiPT0_mPKS8_P13__va_list_tagEmSB_z:

0000000000000000 <_ZN9__gnu_cxx12__to_xstringINSt7__cxx1112basic_stringIcSt11char_traitsIcESaIcEEEcEET_PFiPT0_mPKS8_P13__va_list_tagEmSB_z>:
   0:	f3 0f 1e fa          	endbr64 
   4:	55                   	push   %rbp
   5:	48 89 e5             	mov    %rsp,%rbp
   8:	53                   	push   %rbx
   9:	48 81 ec 08 01 00 00 	sub    $0x108,%rsp
  10:	48 89 bd 08 ff ff ff 	mov    %rdi,-0xf8(%rbp)
  17:	48 89 b5 00 ff ff ff 	mov    %rsi,-0x100(%rbp)
  1e:	48 89 95 f8 fe ff ff 	mov    %rdx,-0x108(%rbp)
  25:	48 89 8d f0 fe ff ff 	mov    %rcx,-0x110(%rbp)
  2c:	4c 89 85 60 ff ff ff 	mov    %r8,-0xa0(%rbp)
  33:	4c 89 8d 68 ff ff ff 	mov    %r9,-0x98(%rbp)
  3a:	84 c0                	test   %al,%al
  3c:	74 23                	je     61 <_ZN9__gnu_cxx12__to_xstringINSt7__cxx1112basic_stringIcSt11char_traitsIcESaIcEEEcEET_PFiPT0_mPKS8_P13__va_list_tagEmSB_z+0x61>
  3e:	0f 29 85 70 ff ff ff 	movaps %xmm0,-0x90(%rbp)
  45:	0f 29 4d 80          	movaps %xmm1,-0x80(%rbp)
  49:	0f 29 55 90          	movaps %xmm2,-0x70(%rbp)
  4d:	0f 29 5d a0          	movaps %xmm3,-0x60(%rbp)
  51:	0f 29 65 b0          	movaps %xmm4,-0x50(%rbp)
  55:	0f 29 6d c0          	movaps %xmm5,-0x40(%rbp)
  59:	0f 29 75 d0          	movaps %xmm6,-0x30(%rbp)
  5d:	0f 29 7d e0          	movaps %xmm7,-0x20(%rbp)
  61:	64 48 8b 04 25 28 00 	mov    %fs:0x28,%rax
  68:	00 00 
  6a:	48 89 85 38 ff ff ff 	mov    %rax,-0xc8(%rbp)
  71:	31 c0                	xor    %eax,%eax
  73:	48 8b 85 f8 fe ff ff 	mov    -0x108(%rbp),%rax
  7a:	48 8d 50 08          	lea    0x8(%rax),%rdx
  7e:	b8 10 00 00 00       	mov    $0x10,%eax
  83:	48 83 e8 01          	sub    $0x1,%rax
  87:	48 01 d0             	add    %rdx,%rax
  8a:	b9 10 00 00 00       	mov    $0x10,%ecx
  8f:	ba 00 00 00 00       	mov    $0x0,%edx
  94:	48 f7 f1             	div    %rcx
  97:	48 6b c0 10          	imul   $0x10,%rax,%rax
  9b:	48 89 c2             	mov    %rax,%rdx
  9e:	48 81 e2 00 f0 ff ff 	and    $0xfffffffffffff000,%rdx
  a5:	48 89 e3             	mov    %rsp,%rbx
  a8:	48 29 d3             	sub    %rdx,%rbx
  ab:	48 89 da             	mov    %rbx,%rdx
  ae:	48 39 d4             	cmp    %rdx,%rsp
  b1:	74 12                	je     c5 <_ZN9__gnu_cxx12__to_xstringINSt7__cxx1112basic_stringIcSt11char_traitsIcESaIcEEEcEET_PFiPT0_mPKS8_P13__va_list_tagEmSB_z+0xc5>
  b3:	48 81 ec 00 10 00 00 	sub    $0x1000,%rsp
  ba:	48 83 8c 24 f8 0f 00 	orq    $0x0,0xff8(%rsp)
  c1:	00 00 
  c3:	eb e9                	jmp    ae <_ZN9__gnu_cxx12__to_xstringINSt7__cxx1112basic_stringIcSt11char_traitsIcESaIcEEEcEET_PFiPT0_mPKS8_P13__va_list_tagEmSB_z+0xae>
  c5:	48 89 c2             	mov    %rax,%rdx
  c8:	81 e2 ff 0f 00 00    	and    $0xfff,%edx
  ce:	48 29 d4             	sub    %rdx,%rsp
  d1:	48 89 c2             	mov    %rax,%rdx
  d4:	81 e2 ff 0f 00 00    	and    $0xfff,%edx
  da:	48 85 d2             	test   %rdx,%rdx
  dd:	74 10                	je     ef <_ZN9__gnu_cxx12__to_xstringINSt7__cxx1112basic_stringIcSt11char_traitsIcESaIcEEEcEET_PFiPT0_mPKS8_P13__va_list_tagEmSB_z+0xef>
  df:	25 ff 0f 00 00       	and    $0xfff,%eax
  e4:	48 83 e8 08          	sub    $0x8,%rax
  e8:	48 01 e0             	add    %rsp,%rax
  eb:	48 83 08 00          	orq    $0x0,(%rax)
  ef:	48 89 e0             	mov    %rsp,%rax
  f2:	48 83 c0 0f          	add    $0xf,%rax
  f6:	48 c1 e8 04          	shr    $0x4,%rax
  fa:	48 c1 e0 04          	shl    $0x4,%rax
  fe:	48 89 85 18 ff ff ff 	mov    %rax,-0xe8(%rbp)
 105:	c7 85 20 ff ff ff 20 	movl   $0x20,-0xe0(%rbp)
 10c:	00 00 00 
 10f:	c7 85 24 ff ff ff 30 	movl   $0x30,-0xdc(%rbp)
 116:	00 00 00 
 119:	48 8d 45 10          	lea    0x10(%rbp),%rax
 11d:	48 89 85 28 ff ff ff 	mov    %rax,-0xd8(%rbp)
 124:	48 8d 85 40 ff ff ff 	lea    -0xc0(%rbp),%rax
 12b:	48 89 85 30 ff ff ff 	mov    %rax,-0xd0(%rbp)
 132:	48 8d 8d 20 ff ff ff 	lea    -0xe0(%rbp),%rcx
 139:	48 8b 95 f0 fe ff ff 	mov    -0x110(%rbp),%rdx
 140:	48 8b b5 f8 fe ff ff 	mov    -0x108(%rbp),%rsi
 147:	48 8b 85 18 ff ff ff 	mov    -0xe8(%rbp),%rax
 14e:	4c 8b 85 00 ff ff ff 	mov    -0x100(%rbp),%r8
 155:	48 89 c7             	mov    %rax,%rdi
 158:	41 ff d0             	callq  *%r8
 15b:	89 85 14 ff ff ff    	mov    %eax,-0xec(%rbp)
 161:	48 8d 85 13 ff ff ff 	lea    -0xed(%rbp),%rax
 168:	48 89 c7             	mov    %rax,%rdi
 16b:	e8 00 00 00 00       	callq  170 <_ZN9__gnu_cxx12__to_xstringINSt7__cxx1112basic_stringIcSt11char_traitsIcESaIcEEEcEET_PFiPT0_mPKS8_P13__va_list_tagEmSB_z+0x170>
 170:	8b 85 14 ff ff ff    	mov    -0xec(%rbp),%eax
 176:	48 63 d0             	movslq %eax,%rdx
 179:	48 8b 85 18 ff ff ff 	mov    -0xe8(%rbp),%rax
 180:	48 8d 3c 02          	lea    (%rdx,%rax,1),%rdi
 184:	48 8d 95 13 ff ff ff 	lea    -0xed(%rbp),%rdx
 18b:	48 8b b5 18 ff ff ff 	mov    -0xe8(%rbp),%rsi
 192:	48 8b 85 08 ff ff ff 	mov    -0xf8(%rbp),%rax
 199:	48 89 d1             	mov    %rdx,%rcx
 19c:	48 89 fa             	mov    %rdi,%rdx
 19f:	48 89 c7             	mov    %rax,%rdi
 1a2:	e8 00 00 00 00       	callq  1a7 <_ZN9__gnu_cxx12__to_xstringINSt7__cxx1112basic_stringIcSt11char_traitsIcESaIcEEEcEET_PFiPT0_mPKS8_P13__va_list_tagEmSB_z+0x1a7>
 1a7:	48 8d 85 13 ff ff ff 	lea    -0xed(%rbp),%rax
 1ae:	48 89 c7             	mov    %rax,%rdi
 1b1:	e8 00 00 00 00       	callq  1b6 <_ZN9__gnu_cxx12__to_xstringINSt7__cxx1112basic_stringIcSt11char_traitsIcESaIcEEEcEET_PFiPT0_mPKS8_P13__va_list_tagEmSB_z+0x1b6>
 1b6:	48 8b 85 38 ff ff ff 	mov    -0xc8(%rbp),%rax
 1bd:	64 48 33 04 25 28 00 	xor    %fs:0x28,%rax
 1c4:	00 00 
 1c6:	74 28                	je     1f0 <_ZN9__gnu_cxx12__to_xstringINSt7__cxx1112basic_stringIcSt11char_traitsIcESaIcEEEcEET_PFiPT0_mPKS8_P13__va_list_tagEmSB_z+0x1f0>
 1c8:	eb 21                	jmp    1eb <_ZN9__gnu_cxx12__to_xstringINSt7__cxx1112basic_stringIcSt11char_traitsIcESaIcEEEcEET_PFiPT0_mPKS8_P13__va_list_tagEmSB_z+0x1eb>
 1ca:	f3 0f 1e fa          	endbr64 
 1ce:	48 89 c3             	mov    %rax,%rbx
 1d1:	48 8d 85 13 ff ff ff 	lea    -0xed(%rbp),%rax
 1d8:	48 89 c7             	mov    %rax,%rdi
 1db:	e8 00 00 00 00       	callq  1e0 <_ZN9__gnu_cxx12__to_xstringINSt7__cxx1112basic_stringIcSt11char_traitsIcESaIcEEEcEET_PFiPT0_mPKS8_P13__va_list_tagEmSB_z+0x1e0>
 1e0:	48 89 d8             	mov    %rbx,%rax
 1e3:	48 89 c7             	mov    %rax,%rdi
 1e6:	e8 00 00 00 00       	callq  1eb <_ZN9__gnu_cxx12__to_xstringINSt7__cxx1112basic_stringIcSt11char_traitsIcESaIcEEEcEET_PFiPT0_mPKS8_P13__va_list_tagEmSB_z+0x1eb>
 1eb:	e8 00 00 00 00       	callq  1f0 <_ZN9__gnu_cxx12__to_xstringINSt7__cxx1112basic_stringIcSt11char_traitsIcESaIcEEEcEET_PFiPT0_mPKS8_P13__va_list_tagEmSB_z+0x1f0>
 1f0:	48 8b 85 08 ff ff ff 	mov    -0xf8(%rbp),%rax
 1f7:	48 8b 5d f8          	mov    -0x8(%rbp),%rbx
 1fb:	c9                   	leaveq 
 1fc:	c3                   	retq   

Disassembly of section .text._ZNSt7__cxx1112basic_stringIcSt11char_traitsIcESaIcEE12_Alloc_hiderD2Ev:

0000000000000000 <_ZNSt7__cxx1112basic_stringIcSt11char_traitsIcESaIcEE12_Alloc_hiderD1Ev>:
   0:	f3 0f 1e fa          	endbr64 
   4:	55                   	push   %rbp
   5:	48 89 e5             	mov    %rsp,%rbp
   8:	48 83 ec 10          	sub    $0x10,%rsp
   c:	48 89 7d f8          	mov    %rdi,-0x8(%rbp)
  10:	48 8b 45 f8          	mov    -0x8(%rbp),%rax
  14:	48 89 c7             	mov    %rax,%rdi
  17:	e8 00 00 00 00       	callq  1c <_ZNSt7__cxx1112basic_stringIcSt11char_traitsIcESaIcEE12_Alloc_hiderD1Ev+0x1c>
  1c:	90                   	nop
  1d:	c9                   	leaveq 
  1e:	c3                   	retq   

Disassembly of section .text._ZStplIcSt11char_traitsIcESaIcEENSt7__cxx1112basic_stringIT_T0_T1_EERKS8_PKS5_:

0000000000000000 <_ZStplIcSt11char_traitsIcESaIcEENSt7__cxx1112basic_stringIT_T0_T1_EERKS8_PKS5_>:
   0:	f3 0f 1e fa          	endbr64 
   4:	55                   	push   %rbp
   5:	48 89 e5             	mov    %rsp,%rbp
   8:	53                   	push   %rbx
   9:	48 83 ec 38          	sub    $0x38,%rsp
   d:	48 89 7d d8          	mov    %rdi,-0x28(%rbp)
  11:	48 89 75 d0          	mov    %rsi,-0x30(%rbp)
  15:	48 89 55 c8          	mov    %rdx,-0x38(%rbp)
  19:	64 48 8b 04 25 28 00 	mov    %fs:0x28,%rax
  20:	00 00 
  22:	48 89 45 e8          	mov    %rax,-0x18(%rbp)
  26:	31 c0                	xor    %eax,%eax
  28:	48 8b 55 d0          	mov    -0x30(%rbp),%rdx
  2c:	48 8b 45 d8          	mov    -0x28(%rbp),%rax
  30:	48 89 d6             	mov    %rdx,%rsi
  33:	48 89 c7             	mov    %rax,%rdi
  36:	e8 00 00 00 00       	callq  3b <_ZStplIcSt11char_traitsIcESaIcEENSt7__cxx1112basic_stringIT_T0_T1_EERKS8_PKS5_+0x3b>
  3b:	48 8b 55 c8          	mov    -0x38(%rbp),%rdx
  3f:	48 8b 45 d8          	mov    -0x28(%rbp),%rax
  43:	48 89 d6             	mov    %rdx,%rsi
  46:	48 89 c7             	mov    %rax,%rdi
  49:	e8 00 00 00 00       	callq  4e <_ZStplIcSt11char_traitsIcESaIcEENSt7__cxx1112basic_stringIT_T0_T1_EERKS8_PKS5_+0x4e>
  4e:	eb 1e                	jmp    6e <_ZStplIcSt11char_traitsIcESaIcEENSt7__cxx1112basic_stringIT_T0_T1_EERKS8_PKS5_+0x6e>
  50:	f3 0f 1e fa          	endbr64 
  54:	48 89 c3             	mov    %rax,%rbx
  57:	48 8b 45 d8          	mov    -0x28(%rbp),%rax
  5b:	48 89 c7             	mov    %rax,%rdi
  5e:	e8 00 00 00 00       	callq  63 <_ZStplIcSt11char_traitsIcESaIcEENSt7__cxx1112basic_stringIT_T0_T1_EERKS8_PKS5_+0x63>
  63:	48 89 d8             	mov    %rbx,%rax
  66:	48 89 c7             	mov    %rax,%rdi
  69:	e8 00 00 00 00       	callq  6e <_ZStplIcSt11char_traitsIcESaIcEENSt7__cxx1112basic_stringIT_T0_T1_EERKS8_PKS5_+0x6e>
  6e:	48 8b 45 e8          	mov    -0x18(%rbp),%rax
  72:	64 48 33 04 25 28 00 	xor    %fs:0x28,%rax
  79:	00 00 
  7b:	74 05                	je     82 <_ZStplIcSt11char_traitsIcESaIcEENSt7__cxx1112basic_stringIT_T0_T1_EERKS8_PKS5_+0x82>
  7d:	e8 00 00 00 00       	callq  82 <_ZStplIcSt11char_traitsIcESaIcEENSt7__cxx1112basic_stringIT_T0_T1_EERKS8_PKS5_+0x82>
  82:	48 8b 45 d8          	mov    -0x28(%rbp),%rax
  86:	48 83 c4 38          	add    $0x38,%rsp
  8a:	5b                   	pop    %rbx
  8b:	5d                   	pop    %rbp
  8c:	c3                   	retq   

Disassembly of section .text._ZStplIcSt11char_traitsIcESaIcEENSt7__cxx1112basic_stringIT_T0_T1_EEOS8_S9_:

0000000000000000 <_ZStplIcSt11char_traitsIcESaIcEENSt7__cxx1112basic_stringIT_T0_T1_EEOS8_S9_>:
   0:	f3 0f 1e fa          	endbr64 
   4:	55                   	push   %rbp
   5:	48 89 e5             	mov    %rsp,%rbp
   8:	53                   	push   %rbx
   9:	48 83 ec 38          	sub    $0x38,%rsp
   d:	48 89 7d d8          	mov    %rdi,-0x28(%rbp)
  11:	48 89 75 d0          	mov    %rsi,-0x30(%rbp)
  15:	48 89 55 c8          	mov    %rdx,-0x38(%rbp)
  19:	48 8b 45 d0          	mov    -0x30(%rbp),%rax
  1d:	48 89 c7             	mov    %rax,%rdi
  20:	e8 00 00 00 00       	callq  25 <_ZStplIcSt11char_traitsIcESaIcEENSt7__cxx1112basic_stringIT_T0_T1_EEOS8_S9_+0x25>
  25:	48 89 c3             	mov    %rax,%rbx
  28:	48 8b 45 c8          	mov    -0x38(%rbp),%rax
  2c:	48 89 c7             	mov    %rax,%rdi
  2f:	e8 00 00 00 00       	callq  34 <_ZStplIcSt11char_traitsIcESaIcEENSt7__cxx1112basic_stringIT_T0_T1_EEOS8_S9_+0x34>
  34:	48 01 d8             	add    %rbx,%rax
  37:	48 89 45 e8          	mov    %rax,-0x18(%rbp)
  3b:	48 8b 45 d0          	mov    -0x30(%rbp),%rax
  3f:	48 89 c7             	mov    %rax,%rdi
  42:	e8 00 00 00 00       	callq  47 <_ZStplIcSt11char_traitsIcESaIcEENSt7__cxx1112basic_stringIT_T0_T1_EEOS8_S9_+0x47>
  47:	48 39 45 e8          	cmp    %rax,-0x18(%rbp)
  4b:	76 19                	jbe    66 <_ZStplIcSt11char_traitsIcESaIcEENSt7__cxx1112basic_stringIT_T0_T1_EEOS8_S9_+0x66>
  4d:	48 8b 45 c8          	mov    -0x38(%rbp),%rax
  51:	48 89 c7             	mov    %rax,%rdi
  54:	e8 00 00 00 00       	callq  59 <_ZStplIcSt11char_traitsIcESaIcEENSt7__cxx1112basic_stringIT_T0_T1_EEOS8_S9_+0x59>
  59:	48 39 45 e8          	cmp    %rax,-0x18(%rbp)
  5d:	77 07                	ja     66 <_ZStplIcSt11char_traitsIcESaIcEENSt7__cxx1112basic_stringIT_T0_T1_EEOS8_S9_+0x66>
  5f:	b8 01 00 00 00       	mov    $0x1,%eax
  64:	eb 05                	jmp    6b <_ZStplIcSt11char_traitsIcESaIcEENSt7__cxx1112basic_stringIT_T0_T1_EEOS8_S9_+0x6b>
  66:	b8 00 00 00 00       	mov    $0x0,%eax
  6b:	88 45 e7             	mov    %al,-0x19(%rbp)
  6e:	80 7d e7 00          	cmpb   $0x0,-0x19(%rbp)
  72:	74 1f                	je     93 <_ZStplIcSt11char_traitsIcESaIcEENSt7__cxx1112basic_stringIT_T0_T1_EEOS8_S9_+0x93>
  74:	48 8b 55 d0          	mov    -0x30(%rbp),%rdx
  78:	48 8b 45 c8          	mov    -0x38(%rbp),%rax
  7c:	be 00 00 00 00       	mov    $0x0,%esi
  81:	48 89 c7             	mov    %rax,%rdi
  84:	e8 00 00 00 00       	callq  89 <_ZStplIcSt11char_traitsIcESaIcEENSt7__cxx1112basic_stringIT_T0_T1_EEOS8_S9_+0x89>
  89:	48 89 c7             	mov    %rax,%rdi
  8c:	e8 00 00 00 00       	callq  91 <_ZStplIcSt11char_traitsIcESaIcEENSt7__cxx1112basic_stringIT_T0_T1_EEOS8_S9_+0x91>
  91:	eb 1b                	jmp    ae <_ZStplIcSt11char_traitsIcESaIcEENSt7__cxx1112basic_stringIT_T0_T1_EEOS8_S9_+0xae>
  93:	48 8b 55 c8          	mov    -0x38(%rbp),%rdx
  97:	48 8b 45 d0          	mov    -0x30(%rbp),%rax
  9b:	48 89 d6             	mov    %rdx,%rsi
  9e:	48 89 c7             	mov    %rax,%rdi
  a1:	e8 00 00 00 00       	callq  a6 <_ZStplIcSt11char_traitsIcESaIcEENSt7__cxx1112basic_stringIT_T0_T1_EEOS8_S9_+0xa6>
  a6:	48 89 c7             	mov    %rax,%rdi
  a9:	e8 00 00 00 00       	callq  ae <_ZStplIcSt11char_traitsIcESaIcEENSt7__cxx1112basic_stringIT_T0_T1_EEOS8_S9_+0xae>
  ae:	48 8b 55 d8          	mov    -0x28(%rbp),%rdx
  b2:	48 89 c6             	mov    %rax,%rsi
  b5:	48 89 d7             	mov    %rdx,%rdi
  b8:	e8 00 00 00 00       	callq  bd <_ZStplIcSt11char_traitsIcESaIcEENSt7__cxx1112basic_stringIT_T0_T1_EEOS8_S9_+0xbd>
  bd:	48 8b 45 d8          	mov    -0x28(%rbp),%rax
  c1:	48 83 c4 38          	add    $0x38,%rsp
  c5:	5b                   	pop    %rbx
  c6:	5d                   	pop    %rbp
  c7:	c3                   	retq   

Disassembly of section .text._ZSt3minImERKT_S2_S2_:

0000000000000000 <_ZSt3minImERKT_S2_S2_>:
   0:	f3 0f 1e fa          	endbr64 
   4:	55                   	push   %rbp
   5:	48 89 e5             	mov    %rsp,%rbp
   8:	48 89 7d f8          	mov    %rdi,-0x8(%rbp)
   c:	48 89 75 f0          	mov    %rsi,-0x10(%rbp)
  10:	48 8b 45 f0          	mov    -0x10(%rbp),%rax
  14:	48 8b 10             	mov    (%rax),%rdx
  17:	48 8b 45 f8          	mov    -0x8(%rbp),%rax
  1b:	48 8b 00             	mov    (%rax),%rax
  1e:	48 39 c2             	cmp    %rax,%rdx
  21:	73 06                	jae    29 <_ZSt3minImERKT_S2_S2_+0x29>
  23:	48 8b 45 f0          	mov    -0x10(%rbp),%rax
  27:	eb 04                	jmp    2d <_ZSt3minImERKT_S2_S2_+0x2d>
  29:	48 8b 45 f8          	mov    -0x8(%rbp),%rax
  2d:	5d                   	pop    %rbp
  2e:	c3                   	retq   

Disassembly of section .text._ZSt3maxImERKT_S2_S2_:

0000000000000000 <_ZSt3maxImERKT_S2_S2_>:
   0:	f3 0f 1e fa          	endbr64 
   4:	55                   	push   %rbp
   5:	48 89 e5             	mov    %rsp,%rbp
   8:	48 89 7d f8          	mov    %rdi,-0x8(%rbp)
   c:	48 89 75 f0          	mov    %rsi,-0x10(%rbp)
  10:	48 8b 45 f8          	mov    -0x8(%rbp),%rax
  14:	48 8b 10             	mov    (%rax),%rdx
  17:	48 8b 45 f0          	mov    -0x10(%rbp),%rax
  1b:	48 8b 00             	mov    (%rax),%rax
  1e:	48 39 c2             	cmp    %rax,%rdx
  21:	73 06                	jae    29 <_ZSt3maxImERKT_S2_S2_+0x29>
  23:	48 8b 45 f0          	mov    -0x10(%rbp),%rax
  27:	eb 04                	jmp    2d <_ZSt3maxImERKT_S2_S2_+0x2d>
  29:	48 8b 45 f8          	mov    -0x8(%rbp),%rax
  2d:	5d                   	pop    %rbp
  2e:	c3                   	retq   

Disassembly of section .text._ZStplIcSt11char_traitsIcESaIcEENSt7__cxx1112basic_stringIT_T0_T1_EEOS8_PKS5_:

0000000000000000 <_ZStplIcSt11char_traitsIcESaIcEENSt7__cxx1112basic_stringIT_T0_T1_EEOS8_PKS5_>:
   0:	f3 0f 1e fa          	endbr64 
   4:	55                   	push   %rbp
   5:	48 89 e5             	mov    %rsp,%rbp
   8:	48 83 ec 20          	sub    $0x20,%rsp
   c:	48 89 7d f8          	mov    %rdi,-0x8(%rbp)
  10:	48 89 75 f0          	mov    %rsi,-0x10(%rbp)
  14:	48 89 55 e8          	mov    %rdx,-0x18(%rbp)
  18:	48 8b 55 e8          	mov    -0x18(%rbp),%rdx
  1c:	48 8b 45 f0          	mov    -0x10(%rbp),%rax
  20:	48 89 d6             	mov    %rdx,%rsi
  23:	48 89 c7             	mov    %rax,%rdi
  26:	e8 00 00 00 00       	callq  2b <_ZStplIcSt11char_traitsIcESaIcEENSt7__cxx1112basic_stringIT_T0_T1_EEOS8_PKS5_+0x2b>
  2b:	48 89 c7             	mov    %rax,%rdi
  2e:	e8 00 00 00 00       	callq  33 <_ZStplIcSt11char_traitsIcESaIcEENSt7__cxx1112basic_stringIT_T0_T1_EEOS8_PKS5_+0x33>
  33:	48 89 c2             	mov    %rax,%rdx
  36:	48 8b 45 f8          	mov    -0x8(%rbp),%rax
  3a:	48 89 d6             	mov    %rdx,%rsi
  3d:	48 89 c7             	mov    %rax,%rdi
  40:	e8 00 00 00 00       	callq  45 <_ZStplIcSt11char_traitsIcESaIcEENSt7__cxx1112basic_stringIT_T0_T1_EEOS8_PKS5_+0x45>
  45:	48 8b 45 f8          	mov    -0x8(%rbp),%rax
  49:	c9                   	leaveq 
  4a:	c3                   	retq   

Disassembly of section .text._ZStplIcSt11char_traitsIcESaIcEENSt7__cxx1112basic_stringIT_T0_T1_EERKS8_SA_:

0000000000000000 <_ZStplIcSt11char_traitsIcESaIcEENSt7__cxx1112basic_stringIT_T0_T1_EERKS8_SA_>:
   0:	f3 0f 1e fa          	endbr64 
   4:	55                   	push   %rbp
   5:	48 89 e5             	mov    %rsp,%rbp
   8:	53                   	push   %rbx
   9:	48 83 ec 38          	sub    $0x38,%rsp
   d:	48 89 7d d8          	mov    %rdi,-0x28(%rbp)
  11:	48 89 75 d0          	mov    %rsi,-0x30(%rbp)
  15:	48 89 55 c8          	mov    %rdx,-0x38(%rbp)
  19:	64 48 8b 04 25 28 00 	mov    %fs:0x28,%rax
  20:	00 00 
  22:	48 89 45 e8          	mov    %rax,-0x18(%rbp)
  26:	31 c0                	xor    %eax,%eax
  28:	48 8b 55 d0          	mov    -0x30(%rbp),%rdx
  2c:	48 8b 45 d8          	mov    -0x28(%rbp),%rax
  30:	48 89 d6             	mov    %rdx,%rsi
  33:	48 89 c7             	mov    %rax,%rdi
  36:	e8 00 00 00 00       	callq  3b <_ZStplIcSt11char_traitsIcESaIcEENSt7__cxx1112basic_stringIT_T0_T1_EERKS8_SA_+0x3b>
  3b:	48 8b 55 c8          	mov    -0x38(%rbp),%rdx
  3f:	48 8b 45 d8          	mov    -0x28(%rbp),%rax
  43:	48 89 d6             	mov    %rdx,%rsi
  46:	48 89 c7             	mov    %rax,%rdi
  49:	e8 00 00 00 00       	callq  4e <_ZStplIcSt11char_traitsIcESaIcEENSt7__cxx1112basic_stringIT_T0_T1_EERKS8_SA_+0x4e>
  4e:	eb 1e                	jmp    6e <_ZStplIcSt11char_traitsIcESaIcEENSt7__cxx1112basic_stringIT_T0_T1_EERKS8_SA_+0x6e>
  50:	f3 0f 1e fa          	endbr64 
  54:	48 89 c3             	mov    %rax,%rbx
  57:	48 8b 45 d8          	mov    -0x28(%rbp),%rax
  5b:	48 89 c7             	mov    %rax,%rdi
  5e:	e8 00 00 00 00       	callq  63 <_ZStplIcSt11char_traitsIcESaIcEENSt7__cxx1112basic_stringIT_T0_T1_EERKS8_SA_+0x63>
  63:	48 89 d8             	mov    %rbx,%rax
  66:	48 89 c7             	mov    %rax,%rdi
  69:	e8 00 00 00 00       	callq  6e <_ZStplIcSt11char_traitsIcESaIcEENSt7__cxx1112basic_stringIT_T0_T1_EERKS8_SA_+0x6e>
  6e:	48 8b 45 e8          	mov    -0x18(%rbp),%rax
  72:	64 48 33 04 25 28 00 	xor    %fs:0x28,%rax
  79:	00 00 
  7b:	74 05                	je     82 <_ZStplIcSt11char_traitsIcESaIcEENSt7__cxx1112basic_stringIT_T0_T1_EERKS8_SA_+0x82>
  7d:	e8 00 00 00 00       	callq  82 <_ZStplIcSt11char_traitsIcESaIcEENSt7__cxx1112basic_stringIT_T0_T1_EERKS8_SA_+0x82>
  82:	48 8b 45 d8          	mov    -0x28(%rbp),%rax
  86:	48 83 c4 38          	add    $0x38,%rsp
  8a:	5b                   	pop    %rbx
  8b:	5d                   	pop    %rbp
  8c:	c3                   	retq   

Disassembly of section .text._ZNSaIhEC2Ev:

0000000000000000 <_ZNSaIhEC1Ev>:
   0:	f3 0f 1e fa          	endbr64 
   4:	55                   	push   %rbp
   5:	48 89 e5             	mov    %rsp,%rbp
   8:	48 83 ec 10          	sub    $0x10,%rsp
   c:	48 89 7d f8          	mov    %rdi,-0x8(%rbp)
  10:	48 8b 45 f8          	mov    -0x8(%rbp),%rax
  14:	48 89 c7             	mov    %rax,%rdi
  17:	e8 00 00 00 00       	callq  1c <_ZNSaIhEC1Ev+0x1c>
  1c:	90                   	nop
  1d:	c9                   	leaveq 
  1e:	c3                   	retq   

Disassembly of section .text._ZNSaIhED2Ev:

0000000000000000 <_ZNSaIhED1Ev>:
   0:	f3 0f 1e fa          	endbr64 
   4:	55                   	push   %rbp
   5:	48 89 e5             	mov    %rsp,%rbp
   8:	48 83 ec 10          	sub    $0x10,%rsp
   c:	48 89 7d f8          	mov    %rdi,-0x8(%rbp)
  10:	48 8b 45 f8          	mov    -0x8(%rbp),%rax
  14:	48 89 c7             	mov    %rax,%rdi
  17:	e8 00 00 00 00       	callq  1c <_ZNSaIhED1Ev+0x1c>
  1c:	90                   	nop
  1d:	c9                   	leaveq 
  1e:	c3                   	retq   

Disassembly of section .text._ZNSt6vectorIhSaIhEEC2EmRKS0_:

0000000000000000 <_ZNSt6vectorIhSaIhEEC1EmRKS0_>:
   0:	f3 0f 1e fa          	endbr64 
   4:	55                   	push   %rbp
   5:	48 89 e5             	mov    %rsp,%rbp
   8:	53                   	push   %rbx
   9:	48 83 ec 28          	sub    $0x28,%rsp
   d:	48 89 7d e8          	mov    %rdi,-0x18(%rbp)
  11:	48 89 75 e0          	mov    %rsi,-0x20(%rbp)
  15:	48 89 55 d8          	mov    %rdx,-0x28(%rbp)
  19:	48 8b 5d e8          	mov    -0x18(%rbp),%rbx
  1d:	48 8b 55 d8          	mov    -0x28(%rbp),%rdx
  21:	48 8b 45 e0          	mov    -0x20(%rbp),%rax
  25:	48 89 d6             	mov    %rdx,%rsi
  28:	48 89 c7             	mov    %rax,%rdi
  2b:	e8 00 00 00 00       	callq  30 <_ZNSt6vectorIhSaIhEEC1EmRKS0_+0x30>
  30:	48 89 c1             	mov    %rax,%rcx
  33:	48 8b 45 d8          	mov    -0x28(%rbp),%rax
  37:	48 89 c2             	mov    %rax,%rdx
  3a:	48 89 ce             	mov    %rcx,%rsi
  3d:	48 89 df             	mov    %rbx,%rdi
  40:	e8 00 00 00 00       	callq  45 <_ZNSt6vectorIhSaIhEEC1EmRKS0_+0x45>
  45:	48 8b 55 e0          	mov    -0x20(%rbp),%rdx
  49:	48 8b 45 e8          	mov    -0x18(%rbp),%rax
  4d:	48 89 d6             	mov    %rdx,%rsi
  50:	48 89 c7             	mov    %rax,%rdi
  53:	e8 00 00 00 00       	callq  58 <_ZNSt6vectorIhSaIhEEC1EmRKS0_+0x58>
  58:	eb 1e                	jmp    78 <_ZNSt6vectorIhSaIhEEC1EmRKS0_+0x78>
  5a:	f3 0f 1e fa          	endbr64 
  5e:	48 89 c3             	mov    %rax,%rbx
  61:	48 8b 45 e8          	mov    -0x18(%rbp),%rax
  65:	48 89 c7             	mov    %rax,%rdi
  68:	e8 00 00 00 00       	callq  6d <_ZNSt6vectorIhSaIhEEC1EmRKS0_+0x6d>
  6d:	48 89 d8             	mov    %rbx,%rax
  70:	48 89 c7             	mov    %rax,%rdi
  73:	e8 00 00 00 00       	callq  78 <_ZNSt6vectorIhSaIhEEC1EmRKS0_+0x78>
  78:	48 83 c4 28          	add    $0x28,%rsp
  7c:	5b                   	pop    %rbx
  7d:	5d                   	pop    %rbp
  7e:	c3                   	retq   

Disassembly of section .text._ZNSt6vectorIhSaIhEED2Ev:

0000000000000000 <_ZNSt6vectorIhSaIhEED1Ev>:
   0:	f3 0f 1e fa          	endbr64 
   4:	55                   	push   %rbp
   5:	48 89 e5             	mov    %rsp,%rbp
   8:	48 83 ec 10          	sub    $0x10,%rsp
   c:	48 89 7d f8          	mov    %rdi,-0x8(%rbp)
  10:	48 8b 45 f8          	mov    -0x8(%rbp),%rax
  14:	48 89 c7             	mov    %rax,%rdi
  17:	e8 00 00 00 00       	callq  1c <_ZNSt6vectorIhSaIhEED1Ev+0x1c>
  1c:	48 89 c2             	mov    %rax,%rdx
  1f:	48 8b 45 f8          	mov    -0x8(%rbp),%rax
  23:	48 8b 48 08          	mov    0x8(%rax),%rcx
  27:	48 8b 45 f8          	mov    -0x8(%rbp),%rax
  2b:	48 8b 00             	mov    (%rax),%rax
  2e:	48 89 ce             	mov    %rcx,%rsi
  31:	48 89 c7             	mov    %rax,%rdi
  34:	e8 00 00 00 00       	callq  39 <_ZNSt6vectorIhSaIhEED1Ev+0x39>
  39:	48 8b 45 f8          	mov    -0x8(%rbp),%rax
  3d:	48 89 c7             	mov    %rax,%rdi
  40:	e8 00 00 00 00       	callq  45 <_ZNSt6vectorIhSaIhEED1Ev+0x45>
  45:	90                   	nop
  46:	c9                   	leaveq 
  47:	c3                   	retq   

Disassembly of section .text._ZNSt6vectorIhSaIhEE4dataEv:

0000000000000000 <_ZNSt6vectorIhSaIhEE4dataEv>:
   0:	f3 0f 1e fa          	endbr64 
   4:	55                   	push   %rbp
   5:	48 89 e5             	mov    %rsp,%rbp
   8:	48 83 ec 10          	sub    $0x10,%rsp
   c:	48 89 7d f8          	mov    %rdi,-0x8(%rbp)
  10:	48 8b 45 f8          	mov    -0x8(%rbp),%rax
  14:	48 8b 10             	mov    (%rax),%rdx
  17:	48 8b 45 f8          	mov    -0x8(%rbp),%rax
  1b:	48 89 d6             	mov    %rdx,%rsi
  1e:	48 89 c7             	mov    %rax,%rdi
  21:	e8 00 00 00 00       	callq  26 <_ZNSt6vectorIhSaIhEE4dataEv+0x26>
  26:	c9                   	leaveq 
  27:	c3                   	retq   

Disassembly of section .text._ZNKSt6vectorIhSaIhEE4sizeEv:

0000000000000000 <_ZNKSt6vectorIhSaIhEE4sizeEv>:
   0:	f3 0f 1e fa          	endbr64 
   4:	55                   	push   %rbp
   5:	48 89 e5             	mov    %rsp,%rbp
   8:	48 89 7d f8          	mov    %rdi,-0x8(%rbp)
   c:	48 8b 45 f8          	mov    -0x8(%rbp),%rax
  10:	48 8b 50 08          	mov    0x8(%rax),%rdx
  14:	48 8b 45 f8          	mov    -0x8(%rbp),%rax
  18:	48 8b 00             	mov    (%rax),%rax
  1b:	48 29 c2             	sub    %rax,%rdx
  1e:	48 89 d0             	mov    %rdx,%rax
  21:	5d                   	pop    %rbp
  22:	c3                   	retq   

Disassembly of section .text._ZNSt6vectorIhSaIhEE6resizeEm:

0000000000000000 <_ZNSt6vectorIhSaIhEE6resizeEm>:
   0:	f3 0f 1e fa          	endbr64 
   4:	55                   	push   %rbp
   5:	48 89 e5             	mov    %rsp,%rbp
   8:	48 83 ec 10          	sub    $0x10,%rsp
   c:	48 89 7d f8          	mov    %rdi,-0x8(%rbp)
  10:	48 89 75 f0          	mov    %rsi,-0x10(%rbp)
  14:	48 8b 45 f8          	mov    -0x8(%rbp),%rax
  18:	48 89 c7             	mov    %rax,%rdi
  1b:	e8 00 00 00 00       	callq  20 <_ZNSt6vectorIhSaIhEE6resizeEm+0x20>
  20:	48 39 45 f0          	cmp    %rax,-0x10(%rbp)
  24:	0f 97 c0             	seta   %al
  27:	84 c0                	test   %al,%al
  29:	74 24                	je     4f <_ZNSt6vectorIhSaIhEE6resizeEm+0x4f>
  2b:	48 8b 45 f8          	mov    -0x8(%rbp),%rax
  2f:	48 89 c7             	mov    %rax,%rdi
  32:	e8 00 00 00 00       	callq  37 <_ZNSt6vectorIhSaIhEE6resizeEm+0x37>
  37:	48 8b 55 f0          	mov    -0x10(%rbp),%rdx
  3b:	48 29 c2             	sub    %rax,%rdx
  3e:	48 8b 45 f8          	mov    -0x8(%rbp),%rax
  42:	48 89 d6             	mov    %rdx,%rsi
  45:	48 89 c7             	mov    %rax,%rdi
  48:	e8 00 00 00 00       	callq  4d <_ZNSt6vectorIhSaIhEE6resizeEm+0x4d>
  4d:	eb 34                	jmp    83 <_ZNSt6vectorIhSaIhEE6resizeEm+0x83>
  4f:	48 8b 45 f8          	mov    -0x8(%rbp),%rax
  53:	48 89 c7             	mov    %rax,%rdi
  56:	e8 00 00 00 00       	callq  5b <_ZNSt6vectorIhSaIhEE6resizeEm+0x5b>
  5b:	48 39 45 f0          	cmp    %rax,-0x10(%rbp)
  5f:	0f 92 c0             	setb   %al
  62:	84 c0                	test   %al,%al
  64:	74 1d                	je     83 <_ZNSt6vectorIhSaIhEE6resizeEm+0x83>
  66:	48 8b 45 f8          	mov    -0x8(%rbp),%rax
  6a:	48 8b 10             	mov    (%rax),%rdx
  6d:	48 8b 45 f0          	mov    -0x10(%rbp),%rax
  71:	48 01 c2             	add    %rax,%rdx
  74:	48 8b 45 f8          	mov    -0x8(%rbp),%rax
  78:	48 89 d6             	mov    %rdx,%rsi
  7b:	48 89 c7             	mov    %rax,%rdi
  7e:	e8 00 00 00 00       	callq  83 <_ZNSt6vectorIhSaIhEE6resizeEm+0x83>
  83:	90                   	nop
  84:	c9                   	leaveq 
  85:	c3                   	retq   

Disassembly of section .text._ZStplIcSt11char_traitsIcESaIcEENSt7__cxx1112basic_stringIT_T0_T1_EEOS8_RKS8_:

0000000000000000 <_ZStplIcSt11char_traitsIcESaIcEENSt7__cxx1112basic_stringIT_T0_T1_EEOS8_RKS8_>:
   0:	f3 0f 1e fa          	endbr64 
   4:	55                   	push   %rbp
   5:	48 89 e5             	mov    %rsp,%rbp
   8:	48 83 ec 20          	sub    $0x20,%rsp
   c:	48 89 7d f8          	mov    %rdi,-0x8(%rbp)
  10:	48 89 75 f0          	mov    %rsi,-0x10(%rbp)
  14:	48 89 55 e8          	mov    %rdx,-0x18(%rbp)
  18:	48 8b 55 e8          	mov    -0x18(%rbp),%rdx
  1c:	48 8b 45 f0          	mov    -0x10(%rbp),%rax
  20:	48 89 d6             	mov    %rdx,%rsi
  23:	48 89 c7             	mov    %rax,%rdi
  26:	e8 00 00 00 00       	callq  2b <_ZStplIcSt11char_traitsIcESaIcEENSt7__cxx1112basic_stringIT_T0_T1_EEOS8_RKS8_+0x2b>
  2b:	48 89 c7             	mov    %rax,%rdi
  2e:	e8 00 00 00 00       	callq  33 <_ZStplIcSt11char_traitsIcESaIcEENSt7__cxx1112basic_stringIT_T0_T1_EEOS8_RKS8_+0x33>
  33:	48 89 c2             	mov    %rax,%rdx
  36:	48 8b 45 f8          	mov    -0x8(%rbp),%rax
  3a:	48 89 d6             	mov    %rdx,%rsi
  3d:	48 89 c7             	mov    %rax,%rdi
  40:	e8 00 00 00 00       	callq  45 <_ZStplIcSt11char_traitsIcESaIcEENSt7__cxx1112basic_stringIT_T0_T1_EEOS8_RKS8_+0x45>
  45:	48 8b 45 f8          	mov    -0x8(%rbp),%rax
  49:	c9                   	leaveq 
  4a:	c3                   	retq   

Disassembly of section .text._ZNSt12_Vector_baseIhSaIhEE12_Vector_implC2Ev:

0000000000000000 <_ZNSt12_Vector_baseIhSaIhEE12_Vector_implC1Ev>:
   0:	f3 0f 1e fa          	endbr64 
   4:	55                   	push   %rbp
   5:	48 89 e5             	mov    %rsp,%rbp
   8:	48 83 ec 10          	sub    $0x10,%rsp
   c:	48 89 7d f8          	mov    %rdi,-0x8(%rbp)
  10:	48 8b 45 f8          	mov    -0x8(%rbp),%rax
  14:	48 89 c7             	mov    %rax,%rdi
  17:	e8 00 00 00 00       	callq  1c <_ZNSt12_Vector_baseIhSaIhEE12_Vector_implC1Ev+0x1c>
  1c:	48 8b 45 f8          	mov    -0x8(%rbp),%rax
  20:	48 89 c7             	mov    %rax,%rdi
  23:	e8 00 00 00 00       	callq  28 <_ZNSt12_Vector_baseIhSaIhEE12_Vector_implC1Ev+0x28>
  28:	90                   	nop
  29:	c9                   	leaveq 
  2a:	c3                   	retq   

Disassembly of section .text._ZNSt12_Vector_baseIhSaIhEED2Ev:

0000000000000000 <_ZNSt12_Vector_baseIhSaIhEED1Ev>:
   0:	f3 0f 1e fa          	endbr64 
   4:	55                   	push   %rbp
   5:	48 89 e5             	mov    %rsp,%rbp
   8:	48 83 ec 10          	sub    $0x10,%rsp
   c:	48 89 7d f8          	mov    %rdi,-0x8(%rbp)
  10:	48 8b 45 f8          	mov    -0x8(%rbp),%rax
  14:	48 8b 50 10          	mov    0x10(%rax),%rdx
  18:	48 8b 45 f8          	mov    -0x8(%rbp),%rax
  1c:	48 8b 00             	mov    (%rax),%rax
  1f:	48 29 c2             	sub    %rax,%rdx
  22:	48 89 d0             	mov    %rdx,%rax
  25:	48 89 c2             	mov    %rax,%rdx
  28:	48 8b 45 f8          	mov    -0x8(%rbp),%rax
  2c:	48 8b 08             	mov    (%rax),%rcx
  2f:	48 8b 45 f8          	mov    -0x8(%rbp),%rax
  33:	48 89 ce             	mov    %rcx,%rsi
  36:	48 89 c7             	mov    %rax,%rdi
  39:	e8 00 00 00 00       	callq  3e <_ZNSt12_Vector_baseIhSaIhEED1Ev+0x3e>
  3e:	48 8b 45 f8          	mov    -0x8(%rbp),%rax
  42:	48 89 c7             	mov    %rax,%rdi
  45:	e8 00 00 00 00       	callq  4a <_ZNSt12_Vector_baseIhSaIhEED1Ev+0x4a>
  4a:	90                   	nop
  4b:	c9                   	leaveq 
  4c:	c3                   	retq   

Disassembly of section .text._ZNSt6vectorIhSaIhEE5beginEv:

0000000000000000 <_ZNSt6vectorIhSaIhEE5beginEv>:
   0:	f3 0f 1e fa          	endbr64 
   4:	55                   	push   %rbp
   5:	48 89 e5             	mov    %rsp,%rbp
   8:	48 83 ec 20          	sub    $0x20,%rsp
   c:	48 89 7d e8          	mov    %rdi,-0x18(%rbp)
  10:	64 48 8b 04 25 28 00 	mov    %fs:0x28,%rax
  17:	00 00 
  19:	48 89 45 f8          	mov    %rax,-0x8(%rbp)
  1d:	31 c0                	xor    %eax,%eax
  1f:	48 8b 55 e8          	mov    -0x18(%rbp),%rdx
  23:	48 8d 45 f0          	lea    -0x10(%rbp),%rax
  27:	48 89 d6             	mov    %rdx,%rsi
  2a:	48 89 c7             	mov    %rax,%rdi
  2d:	e8 00 00 00 00       	callq  32 <_ZNSt6vectorIhSaIhEE5beginEv+0x32>
  32:	48 8b 45 f0          	mov    -0x10(%rbp),%rax
  36:	48 8b 4d f8          	mov    -0x8(%rbp),%rcx
  3a:	64 48 33 0c 25 28 00 	xor    %fs:0x28,%rcx
  41:	00 00 
  43:	74 05                	je     4a <_ZNSt6vectorIhSaIhEE5beginEv+0x4a>
  45:	e8 00 00 00 00       	callq  4a <_ZNSt6vectorIhSaIhEE5beginEv+0x4a>
  4a:	c9                   	leaveq 
  4b:	c3                   	retq   

Disassembly of section .text._ZNSt6vectorIhSaIhEE3endEv:

0000000000000000 <_ZNSt6vectorIhSaIhEE3endEv>:
   0:	f3 0f 1e fa          	endbr64 
   4:	55                   	push   %rbp
   5:	48 89 e5             	mov    %rsp,%rbp
   8:	48 83 ec 20          	sub    $0x20,%rsp
   c:	48 89 7d e8          	mov    %rdi,-0x18(%rbp)
  10:	64 48 8b 04 25 28 00 	mov    %fs:0x28,%rax
  17:	00 00 
  19:	48 89 45 f8          	mov    %rax,-0x8(%rbp)
  1d:	31 c0                	xor    %eax,%eax
  1f:	48 8b 45 e8          	mov    -0x18(%rbp),%rax
  23:	48 8d 50 08          	lea    0x8(%rax),%rdx
  27:	48 8d 45 f0          	lea    -0x10(%rbp),%rax
  2b:	48 89 d6             	mov    %rdx,%rsi
  2e:	48 89 c7             	mov    %rax,%rdi
  31:	e8 00 00 00 00       	callq  36 <_ZNSt6vectorIhSaIhEE3endEv+0x36>
  36:	48 8b 45 f0          	mov    -0x10(%rbp),%rax
  3a:	48 8b 4d f8          	mov    -0x8(%rbp),%rcx
  3e:	64 48 33 0c 25 28 00 	xor    %fs:0x28,%rcx
  45:	00 00 
  47:	74 05                	je     4e <_ZNSt6vectorIhSaIhEE3endEv+0x4e>
  49:	e8 00 00 00 00       	callq  4e <_ZNSt6vectorIhSaIhEE3endEv+0x4e>
  4e:	c9                   	leaveq 
  4f:	c3                   	retq   

Disassembly of section .text._ZSt4findIN9__gnu_cxx17__normal_iteratorIPhSt6vectorIhSaIhEEEEcET_S7_S7_RKT0_:

0000000000000000 <_ZSt4findIN9__gnu_cxx17__normal_iteratorIPhSt6vectorIhSaIhEEEEcET_S7_S7_RKT0_>:
   0:	f3 0f 1e fa          	endbr64 
   4:	55                   	push   %rbp
   5:	48 89 e5             	mov    %rsp,%rbp
   8:	48 83 ec 20          	sub    $0x20,%rsp
   c:	48 89 7d f8          	mov    %rdi,-0x8(%rbp)
  10:	48 89 75 f0          	mov    %rsi,-0x10(%rbp)
  14:	48 89 55 e8          	mov    %rdx,-0x18(%rbp)
  18:	48 8b 45 e8          	mov    -0x18(%rbp),%rax
  1c:	48 89 c7             	mov    %rax,%rdi
  1f:	e8 00 00 00 00       	callq  24 <_ZSt4findIN9__gnu_cxx17__normal_iteratorIPhSt6vectorIhSaIhEEEEcET_S7_S7_RKT0_+0x24>
  24:	48 89 c2             	mov    %rax,%rdx
  27:	48 8b 4d f0          	mov    -0x10(%rbp),%rcx
  2b:	48 8b 45 f8          	mov    -0x8(%rbp),%rax
  2f:	48 89 ce             	mov    %rcx,%rsi
  32:	48 89 c7             	mov    %rax,%rdi
  35:	e8 00 00 00 00       	callq  3a <_ZSt4findIN9__gnu_cxx17__normal_iteratorIPhSt6vectorIhSaIhEEEEcET_S7_S7_RKT0_+0x3a>
  3a:	c9                   	leaveq 
  3b:	c3                   	retq   

Disassembly of section .text._ZN9__gnu_cxxneIPhSt6vectorIhSaIhEEEEbRKNS_17__normal_iteratorIT_T0_EESA_:

0000000000000000 <_ZN9__gnu_cxxneIPhSt6vectorIhSaIhEEEEbRKNS_17__normal_iteratorIT_T0_EESA_>:
   0:	f3 0f 1e fa          	endbr64 
   4:	55                   	push   %rbp
   5:	48 89 e5             	mov    %rsp,%rbp
   8:	53                   	push   %rbx
   9:	48 83 ec 18          	sub    $0x18,%rsp
   d:	48 89 7d e8          	mov    %rdi,-0x18(%rbp)
  11:	48 89 75 e0          	mov    %rsi,-0x20(%rbp)
  15:	48 8b 45 e8          	mov    -0x18(%rbp),%rax
  19:	48 89 c7             	mov    %rax,%rdi
  1c:	e8 00 00 00 00       	callq  21 <_ZN9__gnu_cxxneIPhSt6vectorIhSaIhEEEEbRKNS_17__normal_iteratorIT_T0_EESA_+0x21>
  21:	48 8b 18             	mov    (%rax),%rbx
  24:	48 8b 45 e0          	mov    -0x20(%rbp),%rax
  28:	48 89 c7             	mov    %rax,%rdi
  2b:	e8 00 00 00 00       	callq  30 <_ZN9__gnu_cxxneIPhSt6vectorIhSaIhEEEEbRKNS_17__normal_iteratorIT_T0_EESA_+0x30>
  30:	48 8b 00             	mov    (%rax),%rax
  33:	48 39 c3             	cmp    %rax,%rbx
  36:	0f 95 c0             	setne  %al
  39:	48 83 c4 18          	add    $0x18,%rsp
  3d:	5b                   	pop    %rbx
  3e:	5d                   	pop    %rbp
  3f:	c3                   	retq   

Disassembly of section .text._ZNK9__gnu_cxx17__normal_iteratorIPhSt6vectorIhSaIhEEEplEl:

0000000000000000 <_ZNK9__gnu_cxx17__normal_iteratorIPhSt6vectorIhSaIhEEEplEl>:
   0:	f3 0f 1e fa          	endbr64 
   4:	55                   	push   %rbp
   5:	48 89 e5             	mov    %rsp,%rbp
   8:	48 83 ec 30          	sub    $0x30,%rsp
   c:	48 89 7d d8          	mov    %rdi,-0x28(%rbp)
  10:	48 89 75 d0          	mov    %rsi,-0x30(%rbp)
  14:	64 48 8b 04 25 28 00 	mov    %fs:0x28,%rax
  1b:	00 00 
  1d:	48 89 45 f8          	mov    %rax,-0x8(%rbp)
  21:	31 c0                	xor    %eax,%eax
  23:	48 8b 45 d8          	mov    -0x28(%rbp),%rax
  27:	48 8b 10             	mov    (%rax),%rdx
  2a:	48 8b 45 d0          	mov    -0x30(%rbp),%rax
  2e:	48 01 d0             	add    %rdx,%rax
  31:	48 89 45 e8          	mov    %rax,-0x18(%rbp)
  35:	48 8d 55 e8          	lea    -0x18(%rbp),%rdx
  39:	48 8d 45 f0          	lea    -0x10(%rbp),%rax
  3d:	48 89 d6             	mov    %rdx,%rsi
  40:	48 89 c7             	mov    %rax,%rdi
  43:	e8 00 00 00 00       	callq  48 <_ZNK9__gnu_cxx17__normal_iteratorIPhSt6vectorIhSaIhEEEplEl+0x48>
  48:	48 8b 45 f0          	mov    -0x10(%rbp),%rax
  4c:	48 8b 4d f8          	mov    -0x8(%rbp),%rcx
  50:	64 48 33 0c 25 28 00 	xor    %fs:0x28,%rcx
  57:	00 00 
  59:	74 05                	je     60 <_ZNK9__gnu_cxx17__normal_iteratorIPhSt6vectorIhSaIhEEEplEl+0x60>
  5b:	e8 00 00 00 00       	callq  60 <_ZNK9__gnu_cxx17__normal_iteratorIPhSt6vectorIhSaIhEEEplEl+0x60>
  60:	c9                   	leaveq 
  61:	c3                   	retq   

Disassembly of section .text._ZNSt7__cxx1112basic_stringIcSt11char_traitsIcESaIcEE6assignIN9__gnu_cxx17__normal_iteratorIPhSt6vectorIhSaIhEEEEvEERS4_T_SE_:

0000000000000000 <_ZNSt7__cxx1112basic_stringIcSt11char_traitsIcESaIcEE6assignIN9__gnu_cxx17__normal_iteratorIPhSt6vectorIhSaIhEEEEvEERS4_T_SE_>:
   0:	f3 0f 1e fa          	endbr64 
   4:	55                   	push   %rbp
   5:	48 89 e5             	mov    %rsp,%rbp
   8:	48 83 ec 50          	sub    $0x50,%rsp
   c:	48 89 7d c8          	mov    %rdi,-0x38(%rbp)
  10:	48 89 75 c0          	mov    %rsi,-0x40(%rbp)
  14:	48 89 55 b8          	mov    %rdx,-0x48(%rbp)
  18:	64 48 8b 04 25 28 00 	mov    %fs:0x28,%rax
  1f:	00 00 
  21:	48 89 45 f8          	mov    %rax,-0x8(%rbp)
  25:	31 c0                	xor    %eax,%eax
  27:	48 8b 45 c8          	mov    -0x38(%rbp),%rax
  2b:	48 89 c7             	mov    %rax,%rdi
  2e:	e8 00 00 00 00       	callq  33 <_ZNSt7__cxx1112basic_stringIcSt11char_traitsIcESaIcEE6assignIN9__gnu_cxx17__normal_iteratorIPhSt6vectorIhSaIhEEEEvEERS4_T_SE_+0x33>
  33:	48 89 45 e0          	mov    %rax,-0x20(%rbp)
  37:	48 8d 55 e0          	lea    -0x20(%rbp),%rdx
  3b:	48 8d 45 f0          	lea    -0x10(%rbp),%rax
  3f:	48 89 d6             	mov    %rdx,%rsi
  42:	48 89 c7             	mov    %rax,%rdi
  45:	e8 00 00 00 00       	callq  4a <_ZNSt7__cxx1112basic_stringIcSt11char_traitsIcESaIcEE6assignIN9__gnu_cxx17__normal_iteratorIPhSt6vectorIhSaIhEEEEvEERS4_T_SE_+0x4a>
  4a:	48 8b 45 c8          	mov    -0x38(%rbp),%rax
  4e:	48 89 c7             	mov    %rax,%rdi
  51:	e8 00 00 00 00       	callq  56 <_ZNSt7__cxx1112basic_stringIcSt11char_traitsIcESaIcEE6assignIN9__gnu_cxx17__normal_iteratorIPhSt6vectorIhSaIhEEEEvEERS4_T_SE_+0x56>
  56:	48 89 45 d8          	mov    %rax,-0x28(%rbp)
  5a:	48 8d 55 d8          	lea    -0x28(%rbp),%rdx
  5e:	48 8d 45 e8          	lea    -0x18(%rbp),%rax
  62:	48 89 d6             	mov    %rdx,%rsi
  65:	48 89 c7             	mov    %rax,%rdi
  68:	e8 00 00 00 00       	callq  6d <_ZNSt7__cxx1112basic_stringIcSt11char_traitsIcESaIcEE6assignIN9__gnu_cxx17__normal_iteratorIPhSt6vectorIhSaIhEEEEvEERS4_T_SE_+0x6d>
  6d:	48 8b 7d b8          	mov    -0x48(%rbp),%rdi
  71:	48 8b 4d c0          	mov    -0x40(%rbp),%rcx
  75:	48 8b 55 f0          	mov    -0x10(%rbp),%rdx
  79:	48 8b 75 e8          	mov    -0x18(%rbp),%rsi
  7d:	48 8b 45 c8          	mov    -0x38(%rbp),%rax
  81:	49 89 f8             	mov    %rdi,%r8
  84:	48 89 c7             	mov    %rax,%rdi
  87:	e8 00 00 00 00       	callq  8c <_ZNSt7__cxx1112basic_stringIcSt11char_traitsIcESaIcEE6assignIN9__gnu_cxx17__normal_iteratorIPhSt6vectorIhSaIhEEEEvEERS4_T_SE_+0x8c>
  8c:	48 8b 4d f8          	mov    -0x8(%rbp),%rcx
  90:	64 48 33 0c 25 28 00 	xor    %fs:0x28,%rcx
  97:	00 00 
  99:	74 05                	je     a0 <_ZNSt7__cxx1112basic_stringIcSt11char_traitsIcESaIcEE6assignIN9__gnu_cxx17__normal_iteratorIPhSt6vectorIhSaIhEEEEvEERS4_T_SE_+0xa0>
  9b:	e8 00 00 00 00       	callq  a0 <_ZNSt7__cxx1112basic_stringIcSt11char_traitsIcESaIcEE6assignIN9__gnu_cxx17__normal_iteratorIPhSt6vectorIhSaIhEEEEvEERS4_T_SE_+0xa0>
  a0:	c9                   	leaveq 
  a1:	c3                   	retq   

Disassembly of section .text._ZN9__gnu_cxx17__normal_iteratorIPKhSt6vectorIhSaIhEEEC2IPhEERKNS0_IT_NS_11__enable_ifIXsrSt10__are_sameIS9_S8_E7__valueES5_E6__typeEEE:

0000000000000000 <_ZN9__gnu_cxx17__normal_iteratorIPKhSt6vectorIhSaIhEEEC1IPhEERKNS0_IT_NS_11__enable_ifIXsrSt10__are_sameIS9_S8_E7__valueES5_E6__typeEEE>:
   0:	f3 0f 1e fa          	endbr64 
   4:	55                   	push   %rbp
   5:	48 89 e5             	mov    %rsp,%rbp
   8:	48 83 ec 10          	sub    $0x10,%rsp
   c:	48 89 7d f8          	mov    %rdi,-0x8(%rbp)
  10:	48 89 75 f0          	mov    %rsi,-0x10(%rbp)
  14:	48 8b 45 f0          	mov    -0x10(%rbp),%rax
  18:	48 89 c7             	mov    %rax,%rdi
  1b:	e8 00 00 00 00       	callq  20 <_ZN9__gnu_cxx17__normal_iteratorIPKhSt6vectorIhSaIhEEEC1IPhEERKNS0_IT_NS_11__enable_ifIXsrSt10__are_sameIS9_S8_E7__valueES5_E6__typeEEE+0x20>
  20:	48 8b 10             	mov    (%rax),%rdx
  23:	48 8b 45 f8          	mov    -0x8(%rbp),%rax
  27:	48 89 10             	mov    %rdx,(%rax)
  2a:	90                   	nop
  2b:	c9                   	leaveq 
  2c:	c3                   	retq   

Disassembly of section .text._ZNSt6vectorIhSaIhEE5eraseEN9__gnu_cxx17__normal_iteratorIPKhS1_EES6_:

0000000000000000 <_ZNSt6vectorIhSaIhEE5eraseEN9__gnu_cxx17__normal_iteratorIPKhS1_EES6_>:
   0:	f3 0f 1e fa          	endbr64 
   4:	55                   	push   %rbp
   5:	48 89 e5             	mov    %rsp,%rbp
   8:	53                   	push   %rbx
   9:	48 83 ec 48          	sub    $0x48,%rsp
   d:	48 89 7d c8          	mov    %rdi,-0x38(%rbp)
  11:	48 89 75 c0          	mov    %rsi,-0x40(%rbp)
  15:	48 89 55 b8          	mov    %rdx,-0x48(%rbp)
  19:	64 48 8b 04 25 28 00 	mov    %fs:0x28,%rax
  20:	00 00 
  22:	48 89 45 e8          	mov    %rax,-0x18(%rbp)
  26:	31 c0                	xor    %eax,%eax
  28:	48 8b 45 c8          	mov    -0x38(%rbp),%rax
  2c:	48 89 c7             	mov    %rax,%rdi
  2f:	e8 00 00 00 00       	callq  34 <_ZNSt6vectorIhSaIhEE5eraseEN9__gnu_cxx17__normal_iteratorIPKhS1_EES6_+0x34>
  34:	48 89 45 d8          	mov    %rax,-0x28(%rbp)
  38:	48 8b 45 c8          	mov    -0x38(%rbp),%rax
  3c:	48 89 c7             	mov    %rax,%rdi
  3f:	e8 00 00 00 00       	callq  44 <_ZNSt6vectorIhSaIhEE5eraseEN9__gnu_cxx17__normal_iteratorIPKhS1_EES6_+0x44>
  44:	48 89 45 e0          	mov    %rax,-0x20(%rbp)
  48:	48 8d 55 e0          	lea    -0x20(%rbp),%rdx
  4c:	48 8d 45 b8          	lea    -0x48(%rbp),%rax
  50:	48 89 d6             	mov    %rdx,%rsi
  53:	48 89 c7             	mov    %rax,%rdi
  56:	e8 00 00 00 00       	callq  5b <_ZNSt6vectorIhSaIhEE5eraseEN9__gnu_cxx17__normal_iteratorIPKhS1_EES6_+0x5b>
  5b:	48 89 c2             	mov    %rax,%rdx
  5e:	48 8d 45 d8          	lea    -0x28(%rbp),%rax
  62:	48 89 d6             	mov    %rdx,%rsi
  65:	48 89 c7             	mov    %rax,%rdi
  68:	e8 00 00 00 00       	callq  6d <_ZNSt6vectorIhSaIhEE5eraseEN9__gnu_cxx17__normal_iteratorIPKhS1_EES6_+0x6d>
  6d:	48 89 c3             	mov    %rax,%rbx
  70:	48 8d 55 e0          	lea    -0x20(%rbp),%rdx
  74:	48 8d 45 c0          	lea    -0x40(%rbp),%rax
  78:	48 89 d6             	mov    %rdx,%rsi
  7b:	48 89 c7             	mov    %rax,%rdi
  7e:	e8 00 00 00 00       	callq  83 <_ZNSt6vectorIhSaIhEE5eraseEN9__gnu_cxx17__normal_iteratorIPKhS1_EES6_+0x83>
  83:	48 89 c2             	mov    %rax,%rdx
  86:	48 8d 45 d8          	lea    -0x28(%rbp),%rax
  8a:	48 89 d6             	mov    %rdx,%rsi
  8d:	48 89 c7             	mov    %rax,%rdi
  90:	e8 00 00 00 00       	callq  95 <_ZNSt6vectorIhSaIhEE5eraseEN9__gnu_cxx17__normal_iteratorIPKhS1_EES6_+0x95>
  95:	48 89 c1             	mov    %rax,%rcx
  98:	48 8b 45 c8          	mov    -0x38(%rbp),%rax
  9c:	48 89 da             	mov    %rbx,%rdx
  9f:	48 89 ce             	mov    %rcx,%rsi
  a2:	48 89 c7             	mov    %rax,%rdi
  a5:	e8 00 00 00 00       	callq  aa <_ZNSt6vectorIhSaIhEE5eraseEN9__gnu_cxx17__normal_iteratorIPKhS1_EES6_+0xaa>
  aa:	48 8b 4d e8          	mov    -0x18(%rbp),%rcx
  ae:	64 48 33 0c 25 28 00 	xor    %fs:0x28,%rcx
  b5:	00 00 
  b7:	74 05                	je     be <_ZNSt6vectorIhSaIhEE5eraseEN9__gnu_cxx17__normal_iteratorIPKhS1_EES6_+0xbe>
  b9:	e8 00 00 00 00       	callq  be <_ZNSt6vectorIhSaIhEE5eraseEN9__gnu_cxx17__normal_iteratorIPKhS1_EES6_+0xbe>
  be:	48 83 c4 48          	add    $0x48,%rsp
  c2:	5b                   	pop    %rbx
  c3:	5d                   	pop    %rbp
  c4:	c3                   	retq   

Disassembly of section .text._ZNKSt6vectorIhSaIhEE5emptyEv:

0000000000000000 <_ZNKSt6vectorIhSaIhEE5emptyEv>:
   0:	f3 0f 1e fa          	endbr64 
   4:	55                   	push   %rbp
   5:	48 89 e5             	mov    %rsp,%rbp
   8:	48 83 ec 30          	sub    $0x30,%rsp
   c:	48 89 7d d8          	mov    %rdi,-0x28(%rbp)
  10:	64 48 8b 04 25 28 00 	mov    %fs:0x28,%rax
  17:	00 00 
  19:	48 89 45 f8          	mov    %rax,-0x8(%rbp)
  1d:	31 c0                	xor    %eax,%eax
  1f:	48 8b 45 d8          	mov    -0x28(%rbp),%rax
  23:	48 89 c7             	mov    %rax,%rdi
  26:	e8 00 00 00 00       	callq  2b <_ZNKSt6vectorIhSaIhEE5emptyEv+0x2b>
  2b:	48 89 45 f0          	mov    %rax,-0x10(%rbp)
  2f:	48 8b 45 d8          	mov    -0x28(%rbp),%rax
  33:	48 89 c7             	mov    %rax,%rdi
  36:	e8 00 00 00 00       	callq  3b <_ZNKSt6vectorIhSaIhEE5emptyEv+0x3b>
  3b:	48 89 45 e8          	mov    %rax,-0x18(%rbp)
  3f:	48 8d 55 f0          	lea    -0x10(%rbp),%rdx
  43:	48 8d 45 e8          	lea    -0x18(%rbp),%rax
  47:	48 89 d6             	mov    %rdx,%rsi
  4a:	48 89 c7             	mov    %rax,%rdi
  4d:	e8 00 00 00 00       	callq  52 <_ZNKSt6vectorIhSaIhEE5emptyEv+0x52>
  52:	48 8b 4d f8          	mov    -0x8(%rbp),%rcx
  56:	64 48 33 0c 25 28 00 	xor    %fs:0x28,%rcx
  5d:	00 00 
  5f:	74 05                	je     66 <_ZNKSt6vectorIhSaIhEE5emptyEv+0x66>
  61:	e8 00 00 00 00       	callq  66 <_ZNKSt6vectorIhSaIhEE5emptyEv+0x66>
  66:	c9                   	leaveq 
  67:	c3                   	retq   

Disassembly of section .text._ZNSt6vectorIhSaIhEE5clearEv:

0000000000000000 <_ZNSt6vectorIhSaIhEE5clearEv>:
   0:	f3 0f 1e fa          	endbr64 
   4:	55                   	push   %rbp
   5:	48 89 e5             	mov    %rsp,%rbp
   8:	48 83 ec 10          	sub    $0x10,%rsp
   c:	48 89 7d f8          	mov    %rdi,-0x8(%rbp)
  10:	48 8b 45 f8          	mov    -0x8(%rbp),%rax
  14:	48 8b 10             	mov    (%rax),%rdx
  17:	48 8b 45 f8          	mov    -0x8(%rbp),%rax
  1b:	48 89 d6             	mov    %rdx,%rsi
  1e:	48 89 c7             	mov    %rax,%rdi
  21:	e8 00 00 00 00       	callq  26 <_ZNSt6vectorIhSaIhEE5clearEv+0x26>
  26:	90                   	nop
  27:	c9                   	leaveq 
  28:	c3                   	retq   

Disassembly of section .text._ZNSt6vectorIhSaIhEE6insertIN9__gnu_cxx17__normal_iteratorIPhS1_EEvEES6_NS4_IPKhS1_EET_SA_:

0000000000000000 <_ZNSt6vectorIhSaIhEE6insertIN9__gnu_cxx17__normal_iteratorIPhS1_EEvEES6_NS4_IPKhS1_EET_SA_>:
   0:	f3 0f 1e fa          	endbr64 
   4:	55                   	push   %rbp
   5:	48 89 e5             	mov    %rsp,%rbp
   8:	48 83 ec 40          	sub    $0x40,%rsp
   c:	48 89 7d d8          	mov    %rdi,-0x28(%rbp)
  10:	48 89 75 d0          	mov    %rsi,-0x30(%rbp)
  14:	48 89 55 c8          	mov    %rdx,-0x38(%rbp)
  18:	48 89 4d c0          	mov    %rcx,-0x40(%rbp)
  1c:	64 48 8b 04 25 28 00 	mov    %fs:0x28,%rax
  23:	00 00 
  25:	48 89 45 f8          	mov    %rax,-0x8(%rbp)
  29:	31 c0                	xor    %eax,%eax
  2b:	48 8b 45 d8          	mov    -0x28(%rbp),%rax
  2f:	48 89 c7             	mov    %rax,%rdi
  32:	e8 00 00 00 00       	callq  37 <_ZNSt6vectorIhSaIhEE6insertIN9__gnu_cxx17__normal_iteratorIPhS1_EEvEES6_NS4_IPKhS1_EET_SA_+0x37>
  37:	48 89 45 e8          	mov    %rax,-0x18(%rbp)
  3b:	48 8d 55 e8          	lea    -0x18(%rbp),%rdx
  3f:	48 8d 45 d0          	lea    -0x30(%rbp),%rax
  43:	48 89 d6             	mov    %rdx,%rsi
  46:	48 89 c7             	mov    %rax,%rdi
  49:	e8 00 00 00 00       	callq  4e <_ZNSt6vectorIhSaIhEE6insertIN9__gnu_cxx17__normal_iteratorIPhS1_EEvEES6_NS4_IPKhS1_EET_SA_+0x4e>
  4e:	48 89 45 f0          	mov    %rax,-0x10(%rbp)
  52:	48 8b 45 d8          	mov    -0x28(%rbp),%rax
  56:	48 89 c7             	mov    %rax,%rdi
  59:	e8 00 00 00 00       	callq  5e <_ZNSt6vectorIhSaIhEE6insertIN9__gnu_cxx17__normal_iteratorIPhS1_EEvEES6_NS4_IPKhS1_EET_SA_+0x5e>
  5e:	48 89 45 e8          	mov    %rax,-0x18(%rbp)
  62:	48 8b 55 f0          	mov    -0x10(%rbp),%rdx
  66:	48 8d 45 e8          	lea    -0x18(%rbp),%rax
  6a:	48 89 d6             	mov    %rdx,%rsi
  6d:	48 89 c7             	mov    %rax,%rdi
  70:	e8 00 00 00 00       	callq  75 <_ZNSt6vectorIhSaIhEE6insertIN9__gnu_cxx17__normal_iteratorIPhS1_EEvEES6_NS4_IPKhS1_EET_SA_+0x75>
  75:	48 89 c6             	mov    %rax,%rsi
  78:	48 8b 4d c0          	mov    -0x40(%rbp),%rcx
  7c:	48 8b 55 c8          	mov    -0x38(%rbp),%rdx
  80:	48 8b 45 d8          	mov    -0x28(%rbp),%rax
  84:	48 89 c7             	mov    %rax,%rdi
  87:	e8 00 00 00 00       	callq  8c <_ZNSt6vectorIhSaIhEE6insertIN9__gnu_cxx17__normal_iteratorIPhS1_EEvEES6_NS4_IPKhS1_EET_SA_+0x8c>
  8c:	48 8b 45 d8          	mov    -0x28(%rbp),%rax
  90:	48 89 c7             	mov    %rax,%rdi
  93:	e8 00 00 00 00       	callq  98 <_ZNSt6vectorIhSaIhEE6insertIN9__gnu_cxx17__normal_iteratorIPhS1_EEvEES6_NS4_IPKhS1_EET_SA_+0x98>
  98:	48 89 45 e8          	mov    %rax,-0x18(%rbp)
  9c:	48 8b 55 f0          	mov    -0x10(%rbp),%rdx
  a0:	48 8d 45 e8          	lea    -0x18(%rbp),%rax
  a4:	48 89 d6             	mov    %rdx,%rsi
  a7:	48 89 c7             	mov    %rax,%rdi
  aa:	e8 00 00 00 00       	callq  af <_ZNSt6vectorIhSaIhEE6insertIN9__gnu_cxx17__normal_iteratorIPhS1_EEvEES6_NS4_IPKhS1_EET_SA_+0xaf>
  af:	48 8b 4d f8          	mov    -0x8(%rbp),%rcx
  b3:	64 48 33 0c 25 28 00 	xor    %fs:0x28,%rcx
  ba:	00 00 
  bc:	74 05                	je     c3 <_ZNSt6vectorIhSaIhEE6insertIN9__gnu_cxx17__normal_iteratorIPhS1_EEvEES6_NS4_IPKhS1_EET_SA_+0xc3>
  be:	e8 00 00 00 00       	callq  c3 <_ZNSt6vectorIhSaIhEE6insertIN9__gnu_cxx17__normal_iteratorIPhS1_EEvEES6_NS4_IPKhS1_EET_SA_+0xc3>
  c3:	c9                   	leaveq 
  c4:	c3                   	retq   

Disassembly of section .text._ZNSt12_Vector_baseISt6vectorINSt7__cxx1112basic_stringIcSt11char_traitsIcESaIcEEESaIS6_EESaIS8_EE12_Vector_implC2Ev:

0000000000000000 <_ZNSt12_Vector_baseISt6vectorINSt7__cxx1112basic_stringIcSt11char_traitsIcESaIcEEESaIS6_EESaIS8_EE12_Vector_implC1Ev>:
   0:	f3 0f 1e fa          	endbr64 
   4:	55                   	push   %rbp
   5:	48 89 e5             	mov    %rsp,%rbp
   8:	48 83 ec 10          	sub    $0x10,%rsp
   c:	48 89 7d f8          	mov    %rdi,-0x8(%rbp)
  10:	48 8b 45 f8          	mov    -0x8(%rbp),%rax
  14:	48 89 c7             	mov    %rax,%rdi
  17:	e8 00 00 00 00       	callq  1c <_ZNSt12_Vector_baseISt6vectorINSt7__cxx1112basic_stringIcSt11char_traitsIcESaIcEEESaIS6_EESaIS8_EE12_Vector_implC1Ev+0x1c>
  1c:	48 8b 45 f8          	mov    -0x8(%rbp),%rax
  20:	48 89 c7             	mov    %rax,%rdi
  23:	e8 00 00 00 00       	callq  28 <_ZNSt12_Vector_baseISt6vectorINSt7__cxx1112basic_stringIcSt11char_traitsIcESaIcEEESaIS6_EESaIS8_EE12_Vector_implC1Ev+0x28>
  28:	90                   	nop
  29:	c9                   	leaveq 
  2a:	c3                   	retq   

Disassembly of section .text._ZNSaISt6vectorINSt7__cxx1112basic_stringIcSt11char_traitsIcESaIcEEESaIS5_EEED2Ev:

0000000000000000 <_ZNSaISt6vectorINSt7__cxx1112basic_stringIcSt11char_traitsIcESaIcEEESaIS5_EEED1Ev>:
   0:	f3 0f 1e fa          	endbr64 
   4:	55                   	push   %rbp
   5:	48 89 e5             	mov    %rsp,%rbp
   8:	48 83 ec 10          	sub    $0x10,%rsp
   c:	48 89 7d f8          	mov    %rdi,-0x8(%rbp)
  10:	48 8b 45 f8          	mov    -0x8(%rbp),%rax
  14:	48 89 c7             	mov    %rax,%rdi
  17:	e8 00 00 00 00       	callq  1c <_ZNSaISt6vectorINSt7__cxx1112basic_stringIcSt11char_traitsIcESaIcEEESaIS5_EEED1Ev+0x1c>
  1c:	90                   	nop
  1d:	c9                   	leaveq 
  1e:	c3                   	retq   

Disassembly of section .text._ZNSt12_Vector_baseISt6vectorINSt7__cxx1112basic_stringIcSt11char_traitsIcESaIcEEESaIS6_EESaIS8_EED2Ev:

0000000000000000 <_ZNSt12_Vector_baseISt6vectorINSt7__cxx1112basic_stringIcSt11char_traitsIcESaIcEEESaIS6_EESaIS8_EED1Ev>:
   0:	f3 0f 1e fa          	endbr64 
   4:	55                   	push   %rbp
   5:	48 89 e5             	mov    %rsp,%rbp
   8:	48 83 ec 10          	sub    $0x10,%rsp
   c:	48 89 7d f8          	mov    %rdi,-0x8(%rbp)
  10:	48 8b 45 f8          	mov    -0x8(%rbp),%rax
  14:	48 8b 50 10          	mov    0x10(%rax),%rdx
  18:	48 8b 45 f8          	mov    -0x8(%rbp),%rax
  1c:	48 8b 00             	mov    (%rax),%rax
  1f:	48 29 c2             	sub    %rax,%rdx
  22:	48 89 d0             	mov    %rdx,%rax
  25:	48 c1 f8 03          	sar    $0x3,%rax
  29:	48 89 c2             	mov    %rax,%rdx
  2c:	48 b8 ab aa aa aa aa 	movabs $0xaaaaaaaaaaaaaaab,%rax
  33:	aa aa aa 
  36:	48 0f af c2          	imul   %rdx,%rax
  3a:	48 89 c2             	mov    %rax,%rdx
  3d:	48 8b 45 f8          	mov    -0x8(%rbp),%rax
  41:	48 8b 08             	mov    (%rax),%rcx
  44:	48 8b 45 f8          	mov    -0x8(%rbp),%rax
  48:	48 89 ce             	mov    %rcx,%rsi
  4b:	48 89 c7             	mov    %rax,%rdi
  4e:	e8 00 00 00 00       	callq  53 <_ZNSt12_Vector_baseISt6vectorINSt7__cxx1112basic_stringIcSt11char_traitsIcESaIcEEESaIS6_EESaIS8_EED1Ev+0x53>
  53:	48 8b 45 f8          	mov    -0x8(%rbp),%rax
  57:	48 89 c7             	mov    %rax,%rdi
  5a:	e8 00 00 00 00       	callq  5f <_ZNSt12_Vector_baseISt6vectorINSt7__cxx1112basic_stringIcSt11char_traitsIcESaIcEEESaIS6_EESaIS8_EED1Ev+0x5f>
  5f:	90                   	nop
  60:	c9                   	leaveq 
  61:	c3                   	retq   

Disassembly of section .text._ZNSt6vectorIS_INSt7__cxx1112basic_stringIcSt11char_traitsIcESaIcEEESaIS5_EESaIS7_EED2Ev:

0000000000000000 <_ZNSt6vectorIS_INSt7__cxx1112basic_stringIcSt11char_traitsIcESaIcEEESaIS5_EESaIS7_EED1Ev>:
   0:	f3 0f 1e fa          	endbr64 
   4:	55                   	push   %rbp
   5:	48 89 e5             	mov    %rsp,%rbp
   8:	48 83 ec 10          	sub    $0x10,%rsp
   c:	48 89 7d f8          	mov    %rdi,-0x8(%rbp)
  10:	48 8b 45 f8          	mov    -0x8(%rbp),%rax
  14:	48 89 c7             	mov    %rax,%rdi
  17:	e8 00 00 00 00       	callq  1c <_ZNSt6vectorIS_INSt7__cxx1112basic_stringIcSt11char_traitsIcESaIcEEESaIS5_EESaIS7_EED1Ev+0x1c>
  1c:	48 89 c2             	mov    %rax,%rdx
  1f:	48 8b 45 f8          	mov    -0x8(%rbp),%rax
  23:	48 8b 48 08          	mov    0x8(%rax),%rcx
  27:	48 8b 45 f8          	mov    -0x8(%rbp),%rax
  2b:	48 8b 00             	mov    (%rax),%rax
  2e:	48 89 ce             	mov    %rcx,%rsi
  31:	48 89 c7             	mov    %rax,%rdi
  34:	e8 00 00 00 00       	callq  39 <_ZNSt6vectorIS_INSt7__cxx1112basic_stringIcSt11char_traitsIcESaIcEEESaIS5_EESaIS7_EED1Ev+0x39>
  39:	48 8b 45 f8          	mov    -0x8(%rbp),%rax
  3d:	48 89 c7             	mov    %rax,%rdi
  40:	e8 00 00 00 00       	callq  45 <_ZNSt6vectorIS_INSt7__cxx1112basic_stringIcSt11char_traitsIcESaIcEEESaIS5_EESaIS7_EED1Ev+0x45>
  45:	90                   	nop
  46:	c9                   	leaveq 
  47:	c3                   	retq   

Disassembly of section .text._ZNSt12_Vector_baseINSt7__cxx1112basic_stringIcSt11char_traitsIcESaIcEEESaIS5_EE12_Vector_implC2Ev:

0000000000000000 <_ZNSt12_Vector_baseINSt7__cxx1112basic_stringIcSt11char_traitsIcESaIcEEESaIS5_EE12_Vector_implC1Ev>:
   0:	f3 0f 1e fa          	endbr64 
   4:	55                   	push   %rbp
   5:	48 89 e5             	mov    %rsp,%rbp
   8:	48 83 ec 10          	sub    $0x10,%rsp
   c:	48 89 7d f8          	mov    %rdi,-0x8(%rbp)
  10:	48 8b 45 f8          	mov    -0x8(%rbp),%rax
  14:	48 89 c7             	mov    %rax,%rdi
  17:	e8 00 00 00 00       	callq  1c <_ZNSt12_Vector_baseINSt7__cxx1112basic_stringIcSt11char_traitsIcESaIcEEESaIS5_EE12_Vector_implC1Ev+0x1c>
  1c:	48 8b 45 f8          	mov    -0x8(%rbp),%rax
  20:	48 89 c7             	mov    %rax,%rdi
  23:	e8 00 00 00 00       	callq  28 <_ZNSt12_Vector_baseINSt7__cxx1112basic_stringIcSt11char_traitsIcESaIcEEESaIS5_EE12_Vector_implC1Ev+0x28>
  28:	90                   	nop
  29:	c9                   	leaveq 
  2a:	c3                   	retq   

Disassembly of section .text._ZNSaINSt7__cxx1112basic_stringIcSt11char_traitsIcESaIcEEEED2Ev:

0000000000000000 <_ZNSaINSt7__cxx1112basic_stringIcSt11char_traitsIcESaIcEEEED1Ev>:
   0:	f3 0f 1e fa          	endbr64 
   4:	55                   	push   %rbp
   5:	48 89 e5             	mov    %rsp,%rbp
   8:	48 83 ec 10          	sub    $0x10,%rsp
   c:	48 89 7d f8          	mov    %rdi,-0x8(%rbp)
  10:	48 8b 45 f8          	mov    -0x8(%rbp),%rax
  14:	48 89 c7             	mov    %rax,%rdi
  17:	e8 00 00 00 00       	callq  1c <_ZNSaINSt7__cxx1112basic_stringIcSt11char_traitsIcESaIcEEEED1Ev+0x1c>
  1c:	90                   	nop
  1d:	c9                   	leaveq 
  1e:	c3                   	retq   

Disassembly of section .text._ZNSt12_Vector_baseINSt7__cxx1112basic_stringIcSt11char_traitsIcESaIcEEESaIS5_EED2Ev:

0000000000000000 <_ZNSt12_Vector_baseINSt7__cxx1112basic_stringIcSt11char_traitsIcESaIcEEESaIS5_EED1Ev>:
   0:	f3 0f 1e fa          	endbr64 
   4:	55                   	push   %rbp
   5:	48 89 e5             	mov    %rsp,%rbp
   8:	48 83 ec 10          	sub    $0x10,%rsp
   c:	48 89 7d f8          	mov    %rdi,-0x8(%rbp)
  10:	48 8b 45 f8          	mov    -0x8(%rbp),%rax
  14:	48 8b 50 10          	mov    0x10(%rax),%rdx
  18:	48 8b 45 f8          	mov    -0x8(%rbp),%rax
  1c:	48 8b 00             	mov    (%rax),%rax
  1f:	48 29 c2             	sub    %rax,%rdx
  22:	48 89 d0             	mov    %rdx,%rax
  25:	48 c1 f8 05          	sar    $0x5,%rax
  29:	48 89 c2             	mov    %rax,%rdx
  2c:	48 8b 45 f8          	mov    -0x8(%rbp),%rax
  30:	48 8b 08             	mov    (%rax),%rcx
  33:	48 8b 45 f8          	mov    -0x8(%rbp),%rax
  37:	48 89 ce             	mov    %rcx,%rsi
  3a:	48 89 c7             	mov    %rax,%rdi
  3d:	e8 00 00 00 00       	callq  42 <_ZNSt12_Vector_baseINSt7__cxx1112basic_stringIcSt11char_traitsIcESaIcEEESaIS5_EED1Ev+0x42>
  42:	48 8b 45 f8          	mov    -0x8(%rbp),%rax
  46:	48 89 c7             	mov    %rax,%rdi
  49:	e8 00 00 00 00       	callq  4e <_ZNSt12_Vector_baseINSt7__cxx1112basic_stringIcSt11char_traitsIcESaIcEEESaIS5_EED1Ev+0x4e>
  4e:	90                   	nop
  4f:	c9                   	leaveq 
  50:	c3                   	retq   

Disassembly of section .text._ZNSt6vectorINSt7__cxx1112basic_stringIcSt11char_traitsIcESaIcEEESaIS5_EED2Ev:

0000000000000000 <_ZNSt6vectorINSt7__cxx1112basic_stringIcSt11char_traitsIcESaIcEEESaIS5_EED1Ev>:
   0:	f3 0f 1e fa          	endbr64 
   4:	55                   	push   %rbp
   5:	48 89 e5             	mov    %rsp,%rbp
   8:	48 83 ec 10          	sub    $0x10,%rsp
   c:	48 89 7d f8          	mov    %rdi,-0x8(%rbp)
  10:	48 8b 45 f8          	mov    -0x8(%rbp),%rax
  14:	48 89 c7             	mov    %rax,%rdi
  17:	e8 00 00 00 00       	callq  1c <_ZNSt6vectorINSt7__cxx1112basic_stringIcSt11char_traitsIcESaIcEEESaIS5_EED1Ev+0x1c>
  1c:	48 89 c2             	mov    %rax,%rdx
  1f:	48 8b 45 f8          	mov    -0x8(%rbp),%rax
  23:	48 8b 48 08          	mov    0x8(%rax),%rcx
  27:	48 8b 45 f8          	mov    -0x8(%rbp),%rax
  2b:	48 8b 00             	mov    (%rax),%rax
  2e:	48 89 ce             	mov    %rcx,%rsi
  31:	48 89 c7             	mov    %rax,%rdi
  34:	e8 00 00 00 00       	callq  39 <_ZNSt6vectorINSt7__cxx1112basic_stringIcSt11char_traitsIcESaIcEEESaIS5_EED1Ev+0x39>
  39:	48 8b 45 f8          	mov    -0x8(%rbp),%rax
  3d:	48 89 c7             	mov    %rax,%rdi
  40:	e8 00 00 00 00       	callq  45 <_ZNSt6vectorINSt7__cxx1112basic_stringIcSt11char_traitsIcESaIcEEESaIS5_EED1Ev+0x45>
  45:	90                   	nop
  46:	c9                   	leaveq 
  47:	c3                   	retq   

Disassembly of section .text._ZNSt6vectorINSt7__cxx1112basic_stringIcSt11char_traitsIcESaIcEEESaIS5_EE9push_backERKS5_:

0000000000000000 <_ZNSt6vectorINSt7__cxx1112basic_stringIcSt11char_traitsIcESaIcEEESaIS5_EE9push_backERKS5_>:
   0:	f3 0f 1e fa          	endbr64 
   4:	55                   	push   %rbp
   5:	48 89 e5             	mov    %rsp,%rbp
   8:	48 83 ec 10          	sub    $0x10,%rsp
   c:	48 89 7d f8          	mov    %rdi,-0x8(%rbp)
  10:	48 89 75 f0          	mov    %rsi,-0x10(%rbp)
  14:	48 8b 45 f8          	mov    -0x8(%rbp),%rax
  18:	48 8b 50 08          	mov    0x8(%rax),%rdx
  1c:	48 8b 45 f8          	mov    -0x8(%rbp),%rax
  20:	48 8b 40 10          	mov    0x10(%rax),%rax
  24:	48 39 c2             	cmp    %rax,%rdx
  27:	74 31                	je     5a <_ZNSt6vectorINSt7__cxx1112basic_stringIcSt11char_traitsIcESaIcEEESaIS5_EE9push_backERKS5_+0x5a>
  29:	48 8b 45 f8          	mov    -0x8(%rbp),%rax
  2d:	48 8b 48 08          	mov    0x8(%rax),%rcx
  31:	48 8b 45 f8          	mov    -0x8(%rbp),%rax
  35:	48 8b 55 f0          	mov    -0x10(%rbp),%rdx
  39:	48 89 ce             	mov    %rcx,%rsi
  3c:	48 89 c7             	mov    %rax,%rdi
  3f:	e8 00 00 00 00       	callq  44 <_ZNSt6vectorINSt7__cxx1112basic_stringIcSt11char_traitsIcESaIcEEESaIS5_EE9push_backERKS5_+0x44>
  44:	48 8b 45 f8          	mov    -0x8(%rbp),%rax
  48:	48 8b 40 08          	mov    0x8(%rax),%rax
  4c:	48 8d 50 20          	lea    0x20(%rax),%rdx
  50:	48 8b 45 f8          	mov    -0x8(%rbp),%rax
  54:	48 89 50 08          	mov    %rdx,0x8(%rax)
  58:	eb 22                	jmp    7c <_ZNSt6vectorINSt7__cxx1112basic_stringIcSt11char_traitsIcESaIcEEESaIS5_EE9push_backERKS5_+0x7c>
  5a:	48 8b 45 f8          	mov    -0x8(%rbp),%rax
  5e:	48 89 c7             	mov    %rax,%rdi
  61:	e8 00 00 00 00       	callq  66 <_ZNSt6vectorINSt7__cxx1112basic_stringIcSt11char_traitsIcESaIcEEESaIS5_EE9push_backERKS5_+0x66>
  66:	48 89 c1             	mov    %rax,%rcx
  69:	48 8b 55 f0          	mov    -0x10(%rbp),%rdx
  6d:	48 8b 45 f8          	mov    -0x8(%rbp),%rax
  71:	48 89 ce             	mov    %rcx,%rsi
  74:	48 89 c7             	mov    %rax,%rdi
  77:	e8 00 00 00 00       	callq  7c <_ZNSt6vectorINSt7__cxx1112basic_stringIcSt11char_traitsIcESaIcEEESaIS5_EE9push_backERKS5_+0x7c>
  7c:	90                   	nop
  7d:	c9                   	leaveq 
  7e:	c3                   	retq   

Disassembly of section .text._ZNSt6vectorINSt7__cxx1112basic_stringIcSt11char_traitsIcESaIcEEESaIS5_EE9push_backEOS5_:

0000000000000000 <_ZNSt6vectorINSt7__cxx1112basic_stringIcSt11char_traitsIcESaIcEEESaIS5_EE9push_backEOS5_>:
   0:	f3 0f 1e fa          	endbr64 
   4:	55                   	push   %rbp
   5:	48 89 e5             	mov    %rsp,%rbp
   8:	48 83 ec 10          	sub    $0x10,%rsp
   c:	48 89 7d f8          	mov    %rdi,-0x8(%rbp)
  10:	48 89 75 f0          	mov    %rsi,-0x10(%rbp)
  14:	48 8b 45 f0          	mov    -0x10(%rbp),%rax
  18:	48 89 c7             	mov    %rax,%rdi
  1b:	e8 00 00 00 00       	callq  20 <_ZNSt6vectorINSt7__cxx1112basic_stringIcSt11char_traitsIcESaIcEEESaIS5_EE9push_backEOS5_+0x20>
  20:	48 89 c2             	mov    %rax,%rdx
  23:	48 8b 45 f8          	mov    -0x8(%rbp),%rax
  27:	48 89 d6             	mov    %rdx,%rsi
  2a:	48 89 c7             	mov    %rax,%rdi
  2d:	e8 00 00 00 00       	callq  32 <_ZNSt6vectorINSt7__cxx1112basic_stringIcSt11char_traitsIcESaIcEEESaIS5_EE9push_backEOS5_+0x32>
  32:	90                   	nop
  33:	c9                   	leaveq 
  34:	c3                   	retq   

Disassembly of section .text._ZNSt6vectorIS_INSt7__cxx1112basic_stringIcSt11char_traitsIcESaIcEEESaIS5_EESaIS7_EE9push_backERKS7_:

0000000000000000 <_ZNSt6vectorIS_INSt7__cxx1112basic_stringIcSt11char_traitsIcESaIcEEESaIS5_EESaIS7_EE9push_backERKS7_>:
   0:	f3 0f 1e fa          	endbr64 
   4:	55                   	push   %rbp
   5:	48 89 e5             	mov    %rsp,%rbp
   8:	48 83 ec 10          	sub    $0x10,%rsp
   c:	48 89 7d f8          	mov    %rdi,-0x8(%rbp)
  10:	48 89 75 f0          	mov    %rsi,-0x10(%rbp)
  14:	48 8b 45 f8          	mov    -0x8(%rbp),%rax
  18:	48 8b 50 08          	mov    0x8(%rax),%rdx
  1c:	48 8b 45 f8          	mov    -0x8(%rbp),%rax
  20:	48 8b 40 10          	mov    0x10(%rax),%rax
  24:	48 39 c2             	cmp    %rax,%rdx
  27:	74 31                	je     5a <_ZNSt6vectorIS_INSt7__cxx1112basic_stringIcSt11char_traitsIcESaIcEEESaIS5_EESaIS7_EE9push_backERKS7_+0x5a>
  29:	48 8b 45 f8          	mov    -0x8(%rbp),%rax
  2d:	48 8b 48 08          	mov    0x8(%rax),%rcx
  31:	48 8b 45 f8          	mov    -0x8(%rbp),%rax
  35:	48 8b 55 f0          	mov    -0x10(%rbp),%rdx
  39:	48 89 ce             	mov    %rcx,%rsi
  3c:	48 89 c7             	mov    %rax,%rdi
  3f:	e8 00 00 00 00       	callq  44 <_ZNSt6vectorIS_INSt7__cxx1112basic_stringIcSt11char_traitsIcESaIcEEESaIS5_EESaIS7_EE9push_backERKS7_+0x44>
  44:	48 8b 45 f8          	mov    -0x8(%rbp),%rax
  48:	48 8b 40 08          	mov    0x8(%rax),%rax
  4c:	48 8d 50 18          	lea    0x18(%rax),%rdx
  50:	48 8b 45 f8          	mov    -0x8(%rbp),%rax
  54:	48 89 50 08          	mov    %rdx,0x8(%rax)
  58:	eb 22                	jmp    7c <_ZNSt6vectorIS_INSt7__cxx1112basic_stringIcSt11char_traitsIcESaIcEEESaIS5_EESaIS7_EE9push_backERKS7_+0x7c>
  5a:	48 8b 45 f8          	mov    -0x8(%rbp),%rax
  5e:	48 89 c7             	mov    %rax,%rdi
  61:	e8 00 00 00 00       	callq  66 <_ZNSt6vectorIS_INSt7__cxx1112basic_stringIcSt11char_traitsIcESaIcEEESaIS5_EESaIS7_EE9push_backERKS7_+0x66>
  66:	48 89 c1             	mov    %rax,%rcx
  69:	48 8b 55 f0          	mov    -0x10(%rbp),%rdx
  6d:	48 8b 45 f8          	mov    -0x8(%rbp),%rax
  71:	48 89 ce             	mov    %rcx,%rsi
  74:	48 89 c7             	mov    %rax,%rdi
  77:	e8 00 00 00 00       	callq  7c <_ZNSt6vectorIS_INSt7__cxx1112basic_stringIcSt11char_traitsIcESaIcEEESaIS5_EESaIS7_EE9push_backERKS7_+0x7c>
  7c:	90                   	nop
  7d:	c9                   	leaveq 
  7e:	c3                   	retq   

Disassembly of section .text._ZNSt6vectorINSt7__cxx1112basic_stringIcSt11char_traitsIcESaIcEEESaIS5_EE5clearEv:

0000000000000000 <_ZNSt6vectorINSt7__cxx1112basic_stringIcSt11char_traitsIcESaIcEEESaIS5_EE5clearEv>:
   0:	f3 0f 1e fa          	endbr64 
   4:	55                   	push   %rbp
   5:	48 89 e5             	mov    %rsp,%rbp
   8:	48 83 ec 10          	sub    $0x10,%rsp
   c:	48 89 7d f8          	mov    %rdi,-0x8(%rbp)
  10:	48 8b 45 f8          	mov    -0x8(%rbp),%rax
  14:	48 8b 10             	mov    (%rax),%rdx
  17:	48 8b 45 f8          	mov    -0x8(%rbp),%rax
  1b:	48 89 d6             	mov    %rdx,%rsi
  1e:	48 89 c7             	mov    %rax,%rdi
  21:	e8 00 00 00 00       	callq  26 <_ZNSt6vectorINSt7__cxx1112basic_stringIcSt11char_traitsIcESaIcEEESaIS5_EE5clearEv+0x26>
  26:	90                   	nop
  27:	c9                   	leaveq 
  28:	c3                   	retq   

Disassembly of section .text._ZNKSt6vectorINSt7__cxx1112basic_stringIcSt11char_traitsIcESaIcEEESaIS5_EE5emptyEv:

0000000000000000 <_ZNKSt6vectorINSt7__cxx1112basic_stringIcSt11char_traitsIcESaIcEEESaIS5_EE5emptyEv>:
   0:	f3 0f 1e fa          	endbr64 
   4:	55                   	push   %rbp
   5:	48 89 e5             	mov    %rsp,%rbp
   8:	48 83 ec 30          	sub    $0x30,%rsp
   c:	48 89 7d d8          	mov    %rdi,-0x28(%rbp)
  10:	64 48 8b 04 25 28 00 	mov    %fs:0x28,%rax
  17:	00 00 
  19:	48 89 45 f8          	mov    %rax,-0x8(%rbp)
  1d:	31 c0                	xor    %eax,%eax
  1f:	48 8b 45 d8          	mov    -0x28(%rbp),%rax
  23:	48 89 c7             	mov    %rax,%rdi
  26:	e8 00 00 00 00       	callq  2b <_ZNKSt6vectorINSt7__cxx1112basic_stringIcSt11char_traitsIcESaIcEEESaIS5_EE5emptyEv+0x2b>
  2b:	48 89 45 f0          	mov    %rax,-0x10(%rbp)
  2f:	48 8b 45 d8          	mov    -0x28(%rbp),%rax
  33:	48 89 c7             	mov    %rax,%rdi
  36:	e8 00 00 00 00       	callq  3b <_ZNKSt6vectorINSt7__cxx1112basic_stringIcSt11char_traitsIcESaIcEEESaIS5_EE5emptyEv+0x3b>
  3b:	48 89 45 e8          	mov    %rax,-0x18(%rbp)
  3f:	48 8d 55 f0          	lea    -0x10(%rbp),%rdx
  43:	48 8d 45 e8          	lea    -0x18(%rbp),%rax
  47:	48 89 d6             	mov    %rdx,%rsi
  4a:	48 89 c7             	mov    %rax,%rdi
  4d:	e8 00 00 00 00       	callq  52 <_ZNKSt6vectorINSt7__cxx1112basic_stringIcSt11char_traitsIcESaIcEEESaIS5_EE5emptyEv+0x52>
  52:	48 8b 4d f8          	mov    -0x8(%rbp),%rcx
  56:	64 48 33 0c 25 28 00 	xor    %fs:0x28,%rcx
  5d:	00 00 
  5f:	74 05                	je     66 <_ZNKSt6vectorINSt7__cxx1112basic_stringIcSt11char_traitsIcESaIcEEESaIS5_EE5emptyEv+0x66>
  61:	e8 00 00 00 00       	callq  66 <_ZNKSt6vectorINSt7__cxx1112basic_stringIcSt11char_traitsIcESaIcEEESaIS5_EE5emptyEv+0x66>
  66:	c9                   	leaveq 
  67:	c3                   	retq   

Disassembly of section .text._ZNSt7__cxx1112basic_stringIcSt11char_traitsIcESaIcEEC2IPcvEET_S7_RKS3_:

0000000000000000 <_ZNSt7__cxx1112basic_stringIcSt11char_traitsIcESaIcEEC1IPcvEET_S7_RKS3_>:
   0:	f3 0f 1e fa          	endbr64 
   4:	55                   	push   %rbp
   5:	48 89 e5             	mov    %rsp,%rbp
   8:	53                   	push   %rbx
   9:	48 83 ec 28          	sub    $0x28,%rsp
   d:	48 89 7d e8          	mov    %rdi,-0x18(%rbp)
  11:	48 89 75 e0          	mov    %rsi,-0x20(%rbp)
  15:	48 89 55 d8          	mov    %rdx,-0x28(%rbp)
  19:	48 89 4d d0          	mov    %rcx,-0x30(%rbp)
  1d:	48 8b 5d e8          	mov    -0x18(%rbp),%rbx
  21:	48 8b 45 e8          	mov    -0x18(%rbp),%rax
  25:	48 89 c7             	mov    %rax,%rdi
  28:	e8 00 00 00 00       	callq  2d <_ZNSt7__cxx1112basic_stringIcSt11char_traitsIcESaIcEEC1IPcvEET_S7_RKS3_+0x2d>
  2d:	48 89 c1             	mov    %rax,%rcx
  30:	48 8b 45 d0          	mov    -0x30(%rbp),%rax
  34:	48 89 c2             	mov    %rax,%rdx
  37:	48 89 ce             	mov    %rcx,%rsi
  3a:	48 89 df             	mov    %rbx,%rdi
  3d:	e8 00 00 00 00       	callq  42 <_ZNSt7__cxx1112basic_stringIcSt11char_traitsIcESaIcEEC1IPcvEET_S7_RKS3_+0x42>
  42:	48 8b 55 d8          	mov    -0x28(%rbp),%rdx
  46:	48 8b 4d e0          	mov    -0x20(%rbp),%rcx
  4a:	48 8b 45 e8          	mov    -0x18(%rbp),%rax
  4e:	48 89 ce             	mov    %rcx,%rsi
  51:	48 89 c7             	mov    %rax,%rdi
  54:	e8 00 00 00 00       	callq  59 <_ZNSt7__cxx1112basic_stringIcSt11char_traitsIcESaIcEEC1IPcvEET_S7_RKS3_+0x59>
  59:	eb 1e                	jmp    79 <_ZNSt7__cxx1112basic_stringIcSt11char_traitsIcESaIcEEC1IPcvEET_S7_RKS3_+0x79>
  5b:	f3 0f 1e fa          	endbr64 
  5f:	48 89 c3             	mov    %rax,%rbx
  62:	48 8b 45 e8          	mov    -0x18(%rbp),%rax
  66:	48 89 c7             	mov    %rax,%rdi
  69:	e8 00 00 00 00       	callq  6e <_ZNSt7__cxx1112basic_stringIcSt11char_traitsIcESaIcEEC1IPcvEET_S7_RKS3_+0x6e>
  6e:	48 89 d8             	mov    %rbx,%rax
  71:	48 89 c7             	mov    %rax,%rdi
  74:	e8 00 00 00 00       	callq  79 <_ZNSt7__cxx1112basic_stringIcSt11char_traitsIcESaIcEEC1IPcvEET_S7_RKS3_+0x79>
  79:	48 83 c4 28          	add    $0x28,%rsp
  7d:	5b                   	pop    %rbx
  7e:	5d                   	pop    %rbp
  7f:	c3                   	retq   

Disassembly of section .text._ZSt4moveIRNSt7__cxx1112basic_stringIcSt11char_traitsIcESaIcEEEEONSt16remove_referenceIT_E4typeEOS8_:

0000000000000000 <_ZSt4moveIRNSt7__cxx1112basic_stringIcSt11char_traitsIcESaIcEEEEONSt16remove_referenceIT_E4typeEOS8_>:
   0:	f3 0f 1e fa          	endbr64 
   4:	55                   	push   %rbp
   5:	48 89 e5             	mov    %rsp,%rbp
   8:	48 89 7d f8          	mov    %rdi,-0x8(%rbp)
   c:	48 8b 45 f8          	mov    -0x8(%rbp),%rax
  10:	5d                   	pop    %rbp
  11:	c3                   	retq   

Disassembly of section .text._ZNSt7__cxx1112basic_stringIcSt11char_traitsIcESaIcEE12_M_constructIPcEEvT_S7_:

0000000000000000 <_ZNSt7__cxx1112basic_stringIcSt11char_traitsIcESaIcEE12_M_constructIPcEEvT_S7_>:
   0:	f3 0f 1e fa          	endbr64 
   4:	55                   	push   %rbp
   5:	48 89 e5             	mov    %rsp,%rbp
   8:	48 83 ec 30          	sub    $0x30,%rsp
   c:	48 89 7d e8          	mov    %rdi,-0x18(%rbp)
  10:	48 89 75 e0          	mov    %rsi,-0x20(%rbp)
  14:	48 89 55 d8          	mov    %rdx,-0x28(%rbp)
  18:	64 48 8b 04 25 28 00 	mov    %fs:0x28,%rax
  1f:	00 00 
  21:	48 89 45 f8          	mov    %rax,-0x8(%rbp)
  25:	31 c0                	xor    %eax,%eax
  27:	48 8b 55 d8          	mov    -0x28(%rbp),%rdx
  2b:	48 8b 4d e0          	mov    -0x20(%rbp),%rcx
  2f:	48 8b 45 e8          	mov    -0x18(%rbp),%rax
  33:	48 89 ce             	mov    %rcx,%rsi
  36:	48 89 c7             	mov    %rax,%rdi
  39:	e8 00 00 00 00       	callq  3e <_ZNSt7__cxx1112basic_stringIcSt11char_traitsIcESaIcEE12_M_constructIPcEEvT_S7_+0x3e>
  3e:	90                   	nop
  3f:	48 8b 45 f8          	mov    -0x8(%rbp),%rax
  43:	64 48 33 04 25 28 00 	xor    %fs:0x28,%rax
  4a:	00 00 
  4c:	74 05                	je     53 <_ZNSt7__cxx1112basic_stringIcSt11char_traitsIcESaIcEE12_M_constructIPcEEvT_S7_+0x53>
  4e:	e8 00 00 00 00       	callq  53 <_ZNSt7__cxx1112basic_stringIcSt11char_traitsIcESaIcEE12_M_constructIPcEEvT_S7_+0x53>
  53:	c9                   	leaveq 
  54:	c3                   	retq   

Disassembly of section .text._ZN9__gnu_cxx13new_allocatorIhEC2Ev:

0000000000000000 <_ZN9__gnu_cxx13new_allocatorIhEC1Ev>:
   0:	f3 0f 1e fa          	endbr64 
   4:	55                   	push   %rbp
   5:	48 89 e5             	mov    %rsp,%rbp
   8:	48 89 7d f8          	mov    %rdi,-0x8(%rbp)
   c:	90                   	nop
   d:	5d                   	pop    %rbp
   e:	c3                   	retq   

Disassembly of section .text._ZN9__gnu_cxx13new_allocatorIhED2Ev:

0000000000000000 <_ZN9__gnu_cxx13new_allocatorIhED1Ev>:
   0:	f3 0f 1e fa          	endbr64 
   4:	55                   	push   %rbp
   5:	48 89 e5             	mov    %rsp,%rbp
   8:	48 89 7d f8          	mov    %rdi,-0x8(%rbp)
   c:	90                   	nop
   d:	5d                   	pop    %rbp
   e:	c3                   	retq   

Disassembly of section .text._ZNSt6vectorIhSaIhEE17_S_check_init_lenEmRKS0_:

0000000000000000 <_ZNSt6vectorIhSaIhEE17_S_check_init_lenEmRKS0_>:
   0:	f3 0f 1e fa          	endbr64 
   4:	55                   	push   %rbp
   5:	48 89 e5             	mov    %rsp,%rbp
   8:	53                   	push   %rbx
   9:	48 83 ec 28          	sub    $0x28,%rsp
   d:	48 89 7d d8          	mov    %rdi,-0x28(%rbp)
  11:	48 89 75 d0          	mov    %rsi,-0x30(%rbp)
  15:	64 48 8b 04 25 28 00 	mov    %fs:0x28,%rax
  1c:	00 00 
  1e:	48 89 45 e8          	mov    %rax,-0x18(%rbp)
  22:	31 c0                	xor    %eax,%eax
  24:	48 8b 55 d0          	mov    -0x30(%rbp),%rdx
  28:	48 8d 45 e7          	lea    -0x19(%rbp),%rax
  2c:	48 89 d6             	mov    %rdx,%rsi
  2f:	48 89 c7             	mov    %rax,%rdi
  32:	e8 00 00 00 00       	callq  37 <_ZNSt6vectorIhSaIhEE17_S_check_init_lenEmRKS0_+0x37>
  37:	48 8d 45 e7          	lea    -0x19(%rbp),%rax
  3b:	48 89 c7             	mov    %rax,%rdi
  3e:	e8 00 00 00 00       	callq  43 <_ZNSt6vectorIhSaIhEE17_S_check_init_lenEmRKS0_+0x43>
  43:	48 39 45 d8          	cmp    %rax,-0x28(%rbp)
  47:	0f 97 c3             	seta   %bl
  4a:	48 8d 45 e7          	lea    -0x19(%rbp),%rax
  4e:	48 89 c7             	mov    %rax,%rdi
  51:	e8 00 00 00 00       	callq  56 <_ZNSt6vectorIhSaIhEE17_S_check_init_lenEmRKS0_+0x56>
  56:	84 db                	test   %bl,%bl
  58:	74 0c                	je     66 <_ZNSt6vectorIhSaIhEE17_S_check_init_lenEmRKS0_+0x66>
  5a:	48 8d 3d 00 00 00 00 	lea    0x0(%rip),%rdi        # 61 <_ZNSt6vectorIhSaIhEE17_S_check_init_lenEmRKS0_+0x61>
  61:	e8 00 00 00 00       	callq  66 <_ZNSt6vectorIhSaIhEE17_S_check_init_lenEmRKS0_+0x66>
  66:	48 8b 45 d8          	mov    -0x28(%rbp),%rax
  6a:	48 8b 4d e8          	mov    -0x18(%rbp),%rcx
  6e:	64 48 33 0c 25 28 00 	xor    %fs:0x28,%rcx
  75:	00 00 
  77:	74 05                	je     7e <_ZNSt6vectorIhSaIhEE17_S_check_init_lenEmRKS0_+0x7e>
  79:	e8 00 00 00 00       	callq  7e <_ZNSt6vectorIhSaIhEE17_S_check_init_lenEmRKS0_+0x7e>
  7e:	48 83 c4 28          	add    $0x28,%rsp
  82:	5b                   	pop    %rbx
  83:	5d                   	pop    %rbp
  84:	c3                   	retq   

Disassembly of section .text._ZNSt12_Vector_baseIhSaIhEEC2EmRKS0_:

0000000000000000 <_ZNSt12_Vector_baseIhSaIhEEC1EmRKS0_>:
   0:	f3 0f 1e fa          	endbr64 
   4:	55                   	push   %rbp
   5:	48 89 e5             	mov    %rsp,%rbp
   8:	53                   	push   %rbx
   9:	48 83 ec 28          	sub    $0x28,%rsp
   d:	48 89 7d e8          	mov    %rdi,-0x18(%rbp)
  11:	48 89 75 e0          	mov    %rsi,-0x20(%rbp)
  15:	48 89 55 d8          	mov    %rdx,-0x28(%rbp)
  19:	48 8b 45 e8          	mov    -0x18(%rbp),%rax
  1d:	48 8b 55 d8          	mov    -0x28(%rbp),%rdx
  21:	48 89 d6             	mov    %rdx,%rsi
  24:	48 89 c7             	mov    %rax,%rdi
  27:	e8 00 00 00 00       	callq  2c <_ZNSt12_Vector_baseIhSaIhEEC1EmRKS0_+0x2c>
  2c:	48 8b 55 e0          	mov    -0x20(%rbp),%rdx
  30:	48 8b 45 e8          	mov    -0x18(%rbp),%rax
  34:	48 89 d6             	mov    %rdx,%rsi
  37:	48 89 c7             	mov    %rax,%rdi
  3a:	e8 00 00 00 00       	callq  3f <_ZNSt12_Vector_baseIhSaIhEEC1EmRKS0_+0x3f>
  3f:	eb 1e                	jmp    5f <_ZNSt12_Vector_baseIhSaIhEEC1EmRKS0_+0x5f>
  41:	f3 0f 1e fa          	endbr64 
  45:	48 89 c3             	mov    %rax,%rbx
  48:	48 8b 45 e8          	mov    -0x18(%rbp),%rax
  4c:	48 89 c7             	mov    %rax,%rdi
  4f:	e8 00 00 00 00       	callq  54 <_ZNSt12_Vector_baseIhSaIhEEC1EmRKS0_+0x54>
  54:	48 89 d8             	mov    %rbx,%rax
  57:	48 89 c7             	mov    %rax,%rdi
  5a:	e8 00 00 00 00       	callq  5f <_ZNSt12_Vector_baseIhSaIhEEC1EmRKS0_+0x5f>
  5f:	48 83 c4 28          	add    $0x28,%rsp
  63:	5b                   	pop    %rbx
  64:	5d                   	pop    %rbp
  65:	c3                   	retq   

Disassembly of section .text._ZNSt6vectorIhSaIhEE21_M_default_initializeEm:

0000000000000000 <_ZNSt6vectorIhSaIhEE21_M_default_initializeEm>:
   0:	f3 0f 1e fa          	endbr64 
   4:	55                   	push   %rbp
   5:	48 89 e5             	mov    %rsp,%rbp
   8:	48 83 ec 10          	sub    $0x10,%rsp
   c:	48 89 7d f8          	mov    %rdi,-0x8(%rbp)
  10:	48 89 75 f0          	mov    %rsi,-0x10(%rbp)
  14:	48 8b 45 f8          	mov    -0x8(%rbp),%rax
  18:	48 89 c7             	mov    %rax,%rdi
  1b:	e8 00 00 00 00       	callq  20 <_ZNSt6vectorIhSaIhEE21_M_default_initializeEm+0x20>
  20:	48 89 c2             	mov    %rax,%rdx
  23:	48 8b 45 f8          	mov    -0x8(%rbp),%rax
  27:	48 8b 00             	mov    (%rax),%rax
  2a:	48 8b 4d f0          	mov    -0x10(%rbp),%rcx
  2e:	48 89 ce             	mov    %rcx,%rsi
  31:	48 89 c7             	mov    %rax,%rdi
  34:	e8 00 00 00 00       	callq  39 <_ZNSt6vectorIhSaIhEE21_M_default_initializeEm+0x39>
  39:	48 8b 55 f8          	mov    -0x8(%rbp),%rdx
  3d:	48 89 42 08          	mov    %rax,0x8(%rdx)
  41:	90                   	nop
  42:	c9                   	leaveq 
  43:	c3                   	retq   

Disassembly of section .text._ZNSt12_Vector_baseIhSaIhEE19_M_get_Tp_allocatorEv:

0000000000000000 <_ZNSt12_Vector_baseIhSaIhEE19_M_get_Tp_allocatorEv>:
   0:	f3 0f 1e fa          	endbr64 
   4:	55                   	push   %rbp
   5:	48 89 e5             	mov    %rsp,%rbp
   8:	48 89 7d f8          	mov    %rdi,-0x8(%rbp)
   c:	48 8b 45 f8          	mov    -0x8(%rbp),%rax
  10:	5d                   	pop    %rbp
  11:	c3                   	retq   

Disassembly of section .text._ZSt8_DestroyIPhhEvT_S1_RSaIT0_E:

0000000000000000 <_ZSt8_DestroyIPhhEvT_S1_RSaIT0_E>:
   0:	f3 0f 1e fa          	endbr64 
   4:	55                   	push   %rbp
   5:	48 89 e5             	mov    %rsp,%rbp
   8:	48 83 ec 20          	sub    $0x20,%rsp
   c:	48 89 7d f8          	mov    %rdi,-0x8(%rbp)
  10:	48 89 75 f0          	mov    %rsi,-0x10(%rbp)
  14:	48 89 55 e8          	mov    %rdx,-0x18(%rbp)
  18:	48 8b 55 f0          	mov    -0x10(%rbp),%rdx
  1c:	48 8b 45 f8          	mov    -0x8(%rbp),%rax
  20:	48 89 d6             	mov    %rdx,%rsi
  23:	48 89 c7             	mov    %rax,%rdi
  26:	e8 00 00 00 00       	callq  2b <_ZSt8_DestroyIPhhEvT_S1_RSaIT0_E+0x2b>
  2b:	90                   	nop
  2c:	c9                   	leaveq 
  2d:	c3                   	retq   

Disassembly of section .text._ZNKSt6vectorIhSaIhEE11_M_data_ptrIhEEPT_S4_:

0000000000000000 <_ZNKSt6vectorIhSaIhEE11_M_data_ptrIhEEPT_S4_>:
   0:	f3 0f 1e fa          	endbr64 
   4:	55                   	push   %rbp
   5:	48 89 e5             	mov    %rsp,%rbp
   8:	48 89 7d f8          	mov    %rdi,-0x8(%rbp)
   c:	48 89 75 f0          	mov    %rsi,-0x10(%rbp)
  10:	48 8b 45 f0          	mov    -0x10(%rbp),%rax
  14:	5d                   	pop    %rbp
  15:	c3                   	retq   

Disassembly of section .text._ZNSt6vectorIhSaIhEE15_S_use_relocateEv:

0000000000000000 <_ZNSt6vectorIhSaIhEE15_S_use_relocateEv>:
   0:	f3 0f 1e fa          	endbr64 
   4:	55                   	push   %rbp
   5:	48 89 e5             	mov    %rsp,%rbp
   8:	48 83 ec 10          	sub    $0x10,%rsp
   c:	64 48 8b 04 25 28 00 	mov    %fs:0x28,%rax
  13:	00 00 
  15:	48 89 45 f8          	mov    %rax,-0x8(%rbp)
  19:	31 c0                	xor    %eax,%eax
  1b:	e8 00 00 00 00       	callq  20 <_ZNSt6vectorIhSaIhEE15_S_use_relocateEv+0x20>
  20:	48 8b 55 f8          	mov    -0x8(%rbp),%rdx
  24:	64 48 33 14 25 28 00 	xor    %fs:0x28,%rdx
  2b:	00 00 
  2d:	74 05                	je     34 <_ZNSt6vectorIhSaIhEE15_S_use_relocateEv+0x34>
  2f:	e8 00 00 00 00       	callq  34 <_ZNSt6vectorIhSaIhEE15_S_use_relocateEv+0x34>
  34:	c9                   	leaveq 
  35:	c3                   	retq   

Disassembly of section .text._ZNSt6vectorIhSaIhEE19_S_nothrow_relocateESt17integral_constantIbLb1EE:

0000000000000000 <_ZNSt6vectorIhSaIhEE19_S_nothrow_relocateESt17integral_constantIbLb1EE>:
   0:	f3 0f 1e fa          	endbr64 
   4:	55                   	push   %rbp
   5:	48 89 e5             	mov    %rsp,%rbp
   8:	b8 01 00 00 00       	mov    $0x1,%eax
   d:	5d                   	pop    %rbp
   e:	c3                   	retq   

Disassembly of section .text._ZNSt6vectorIhSaIhEE17_M_default_appendEm:

0000000000000000 <_ZNSt6vectorIhSaIhEE17_M_default_appendEm>:
   0:	f3 0f 1e fa          	endbr64 
   4:	55                   	push   %rbp
   5:	48 89 e5             	mov    %rsp,%rbp
   8:	53                   	push   %rbx
   9:	48 83 ec 48          	sub    $0x48,%rsp
   d:	48 89 7d b8          	mov    %rdi,-0x48(%rbp)
  11:	48 89 75 b0          	mov    %rsi,-0x50(%rbp)
  15:	48 83 7d b0 00       	cmpq   $0x0,-0x50(%rbp)
  1a:	0f 84 e2 02 00 00    	je     302 <_ZNSt6vectorIhSaIhEE17_M_default_appendEm+0x302>
  20:	48 8b 45 b8          	mov    -0x48(%rbp),%rax
  24:	48 89 c7             	mov    %rax,%rdi
  27:	e8 00 00 00 00       	callq  2c <_ZNSt6vectorIhSaIhEE17_M_default_appendEm+0x2c>
  2c:	48 89 45 d0          	mov    %rax,-0x30(%rbp)
  30:	48 8b 45 b8          	mov    -0x48(%rbp),%rax
  34:	48 8b 50 10          	mov    0x10(%rax),%rdx
  38:	48 8b 45 b8          	mov    -0x48(%rbp),%rax
  3c:	48 8b 40 08          	mov    0x8(%rax),%rax
  40:	48 29 c2             	sub    %rax,%rdx
  43:	48 89 d0             	mov    %rdx,%rax
  46:	48 89 45 d8          	mov    %rax,-0x28(%rbp)
  4a:	48 8b 45 b8          	mov    -0x48(%rbp),%rax
  4e:	48 89 c7             	mov    %rax,%rdi
  51:	e8 00 00 00 00       	callq  56 <_ZNSt6vectorIhSaIhEE17_M_default_appendEm+0x56>
  56:	48 39 45 d0          	cmp    %rax,-0x30(%rbp)
  5a:	77 16                	ja     72 <_ZNSt6vectorIhSaIhEE17_M_default_appendEm+0x72>
  5c:	48 8b 45 b8          	mov    -0x48(%rbp),%rax
  60:	48 89 c7             	mov    %rax,%rdi
  63:	e8 00 00 00 00       	callq  68 <_ZNSt6vectorIhSaIhEE17_M_default_appendEm+0x68>
  68:	48 2b 45 d0          	sub    -0x30(%rbp),%rax
  6c:	48 39 45 d8          	cmp    %rax,-0x28(%rbp)
  70:	76 07                	jbe    79 <_ZNSt6vectorIhSaIhEE17_M_default_appendEm+0x79>
  72:	b8 01 00 00 00       	mov    $0x1,%eax
  77:	eb 05                	jmp    7e <_ZNSt6vectorIhSaIhEE17_M_default_appendEm+0x7e>
  79:	b8 00 00 00 00       	mov    $0x0,%eax
  7e:	84 c0                	test   %al,%al
  80:	48 8b 45 d8          	mov    -0x28(%rbp),%rax
  84:	48 3b 45 b0          	cmp    -0x50(%rbp),%rax
  88:	72 33                	jb     bd <_ZNSt6vectorIhSaIhEE17_M_default_appendEm+0xbd>
  8a:	48 8b 45 b8          	mov    -0x48(%rbp),%rax
  8e:	48 89 c7             	mov    %rax,%rdi
  91:	e8 00 00 00 00       	callq  96 <_ZNSt6vectorIhSaIhEE17_M_default_appendEm+0x96>
  96:	48 89 c2             	mov    %rax,%rdx
  99:	48 8b 45 b8          	mov    -0x48(%rbp),%rax
  9d:	48 8b 40 08          	mov    0x8(%rax),%rax
  a1:	48 8b 4d b0          	mov    -0x50(%rbp),%rcx
  a5:	48 89 ce             	mov    %rcx,%rsi
  a8:	48 89 c7             	mov    %rax,%rdi
  ab:	e8 00 00 00 00       	callq  b0 <_ZNSt6vectorIhSaIhEE17_M_default_appendEm+0xb0>
  b0:	48 8b 55 b8          	mov    -0x48(%rbp),%rdx
  b4:	48 89 42 08          	mov    %rax,0x8(%rdx)
  b8:	e9 45 02 00 00       	jmpq   302 <_ZNSt6vectorIhSaIhEE17_M_default_appendEm+0x302>
  bd:	48 8b 4d b0          	mov    -0x50(%rbp),%rcx
  c1:	48 8b 45 b8          	mov    -0x48(%rbp),%rax
  c5:	48 8d 15 00 00 00 00 	lea    0x0(%rip),%rdx        # cc <_ZNSt6vectorIhSaIhEE17_M_default_appendEm+0xcc>
  cc:	48 89 ce             	mov    %rcx,%rsi
  cf:	48 89 c7             	mov    %rax,%rdi
  d2:	e8 00 00 00 00       	callq  d7 <_ZNSt6vectorIhSaIhEE17_M_default_appendEm+0xd7>
  d7:	48 89 45 e0          	mov    %rax,-0x20(%rbp)
  db:	48 8b 45 b8          	mov    -0x48(%rbp),%rax
  df:	48 8b 55 e0          	mov    -0x20(%rbp),%rdx
  e3:	48 89 d6             	mov    %rdx,%rsi
  e6:	48 89 c7             	mov    %rax,%rdi
  e9:	e8 00 00 00 00       	callq  ee <_ZNSt6vectorIhSaIhEE17_M_default_appendEm+0xee>
  ee:	48 89 45 e8          	mov    %rax,-0x18(%rbp)
  f2:	e8 00 00 00 00       	callq  f7 <_ZNSt6vectorIhSaIhEE17_M_default_appendEm+0xf7>
  f7:	84 c0                	test   %al,%al
  f9:	74 58                	je     153 <_ZNSt6vectorIhSaIhEE17_M_default_appendEm+0x153>
  fb:	48 8b 45 b8          	mov    -0x48(%rbp),%rax
  ff:	48 89 c7             	mov    %rax,%rdi
 102:	e8 00 00 00 00       	callq  107 <_ZNSt6vectorIhSaIhEE17_M_default_appendEm+0x107>
 107:	48 89 c2             	mov    %rax,%rdx
 10a:	48 8b 4d e8          	mov    -0x18(%rbp),%rcx
 10e:	48 8b 45 d0          	mov    -0x30(%rbp),%rax
 112:	48 01 c1             	add    %rax,%rcx
 115:	48 8b 45 b0          	mov    -0x50(%rbp),%rax
 119:	48 89 c6             	mov    %rax,%rsi
 11c:	48 89 cf             	mov    %rcx,%rdi
 11f:	e8 00 00 00 00       	callq  124 <_ZNSt6vectorIhSaIhEE17_M_default_appendEm+0x124>
 124:	48 8b 45 b8          	mov    -0x48(%rbp),%rax
 128:	48 89 c7             	mov    %rax,%rdi
 12b:	e8 00 00 00 00       	callq  130 <_ZNSt6vectorIhSaIhEE17_M_default_appendEm+0x130>
 130:	48 89 c1             	mov    %rax,%rcx
 133:	48 8b 45 b8          	mov    -0x48(%rbp),%rax
 137:	48 8b 70 08          	mov    0x8(%rax),%rsi
 13b:	48 8b 45 b8          	mov    -0x48(%rbp),%rax
 13f:	48 8b 00             	mov    (%rax),%rax
 142:	48 8b 55 e8          	mov    -0x18(%rbp),%rdx
 146:	48 89 c7             	mov    %rax,%rdi
 149:	e8 00 00 00 00       	callq  14e <_ZNSt6vectorIhSaIhEE17_M_default_appendEm+0x14e>
 14e:	e9 93 00 00 00       	jmpq   1e6 <_ZNSt6vectorIhSaIhEE17_M_default_appendEm+0x1e6>
 153:	48 c7 45 c8 00 00 00 	movq   $0x0,-0x38(%rbp)
 15a:	00 
 15b:	48 8b 45 b8          	mov    -0x48(%rbp),%rax
 15f:	48 89 c7             	mov    %rax,%rdi
 162:	e8 00 00 00 00       	callq  167 <_ZNSt6vectorIhSaIhEE17_M_default_appendEm+0x167>
 167:	48 89 c2             	mov    %rax,%rdx
 16a:	48 8b 4d e8          	mov    -0x18(%rbp),%rcx
 16e:	48 8b 45 d0          	mov    -0x30(%rbp),%rax
 172:	48 01 c1             	add    %rax,%rcx
 175:	48 8b 45 b0          	mov    -0x50(%rbp),%rax
 179:	48 89 c6             	mov    %rax,%rsi
 17c:	48 89 cf             	mov    %rcx,%rdi
 17f:	e8 00 00 00 00       	callq  184 <_ZNSt6vectorIhSaIhEE17_M_default_appendEm+0x184>
 184:	48 8b 55 e8          	mov    -0x18(%rbp),%rdx
 188:	48 8b 45 d0          	mov    -0x30(%rbp),%rax
 18c:	48 01 d0             	add    %rdx,%rax
 18f:	48 89 45 c8          	mov    %rax,-0x38(%rbp)
 193:	48 8b 45 b8          	mov    -0x48(%rbp),%rax
 197:	48 89 c7             	mov    %rax,%rdi
 19a:	e8 00 00 00 00       	callq  19f <_ZNSt6vectorIhSaIhEE17_M_default_appendEm+0x19f>
 19f:	48 89 c1             	mov    %rax,%rcx
 1a2:	48 8b 45 b8          	mov    -0x48(%rbp),%rax
 1a6:	48 8b 70 08          	mov    0x8(%rax),%rsi
 1aa:	48 8b 45 b8          	mov    -0x48(%rbp),%rax
 1ae:	48 8b 00             	mov    (%rax),%rax
 1b1:	48 8b 55 e8          	mov    -0x18(%rbp),%rdx
 1b5:	48 89 c7             	mov    %rax,%rdi
 1b8:	e8 00 00 00 00       	callq  1bd <_ZNSt6vectorIhSaIhEE17_M_default_appendEm+0x1bd>
 1bd:	48 8b 45 b8          	mov    -0x48(%rbp),%rax
 1c1:	48 89 c7             	mov    %rax,%rdi
 1c4:	e8 00 00 00 00       	callq  1c9 <_ZNSt6vectorIhSaIhEE17_M_default_appendEm+0x1c9>
 1c9:	48 89 c2             	mov    %rax,%rdx
 1cc:	48 8b 45 b8          	mov    -0x48(%rbp),%rax
 1d0:	48 8b 48 08          	mov    0x8(%rax),%rcx
 1d4:	48 8b 45 b8          	mov    -0x48(%rbp),%rax
 1d8:	48 8b 00             	mov    (%rax),%rax
 1db:	48 89 ce             	mov    %rcx,%rsi
 1de:	48 89 c7             	mov    %rax,%rdi
 1e1:	e8 00 00 00 00       	callq  1e6 <_ZNSt6vectorIhSaIhEE17_M_default_appendEm+0x1e6>
 1e6:	48 8b 45 b8          	mov    -0x48(%rbp),%rax
 1ea:	48 8b 55 b8          	mov    -0x48(%rbp),%rdx
 1ee:	48 8b 4a 10          	mov    0x10(%rdx),%rcx
 1f2:	48 8b 55 b8          	mov    -0x48(%rbp),%rdx
 1f6:	48 8b 12             	mov    (%rdx),%rdx
 1f9:	48 29 d1             	sub    %rdx,%rcx
 1fc:	48 89 ca             	mov    %rcx,%rdx
 1ff:	48 89 d6             	mov    %rdx,%rsi
 202:	48 8b 55 b8          	mov    -0x48(%rbp),%rdx
 206:	48 8b 0a             	mov    (%rdx),%rcx
 209:	48 89 f2             	mov    %rsi,%rdx
 20c:	48 89 ce             	mov    %rcx,%rsi
 20f:	48 89 c7             	mov    %rax,%rdi
 212:	e8 00 00 00 00       	callq  217 <_ZNSt6vectorIhSaIhEE17_M_default_appendEm+0x217>
 217:	48 8b 45 b8          	mov    -0x48(%rbp),%rax
 21b:	48 8b 55 e8          	mov    -0x18(%rbp),%rdx
 21f:	48 89 10             	mov    %rdx,(%rax)
 222:	48 8b 55 d0          	mov    -0x30(%rbp),%rdx
 226:	48 8b 45 b0          	mov    -0x50(%rbp),%rax
 22a:	48 01 c2             	add    %rax,%rdx
 22d:	48 8b 45 e8          	mov    -0x18(%rbp),%rax
 231:	48 01 c2             	add    %rax,%rdx
 234:	48 8b 45 b8          	mov    -0x48(%rbp),%rax
 238:	48 89 50 08          	mov    %rdx,0x8(%rax)
 23c:	48 8b 55 e8          	mov    -0x18(%rbp),%rdx
 240:	48 8b 45 e0          	mov    -0x20(%rbp),%rax
 244:	48 01 c2             	add    %rax,%rdx
 247:	48 8b 45 b8          	mov    -0x48(%rbp),%rax
 24b:	48 89 50 10          	mov    %rdx,0x10(%rax)
 24f:	e9 ae 00 00 00       	jmpq   302 <_ZNSt6vectorIhSaIhEE17_M_default_appendEm+0x302>
 254:	f3 0f 1e fa          	endbr64 
 258:	48 89 c7             	mov    %rax,%rdi
 25b:	e8 00 00 00 00       	callq  260 <_ZNSt6vectorIhSaIhEE17_M_default_appendEm+0x260>
 260:	48 8b 45 b8          	mov    -0x48(%rbp),%rax
 264:	48 8b 55 e0          	mov    -0x20(%rbp),%rdx
 268:	48 8b 4d e8          	mov    -0x18(%rbp),%rcx
 26c:	48 89 ce             	mov    %rcx,%rsi
 26f:	48 89 c7             	mov    %rax,%rdi
 272:	e8 00 00 00 00       	callq  277 <_ZNSt6vectorIhSaIhEE17_M_default_appendEm+0x277>
 277:	e8 00 00 00 00       	callq  27c <_ZNSt6vectorIhSaIhEE17_M_default_appendEm+0x27c>
 27c:	f3 0f 1e fa          	endbr64 
 280:	48 89 c3             	mov    %rax,%rbx
 283:	e8 00 00 00 00       	callq  288 <_ZNSt6vectorIhSaIhEE17_M_default_appendEm+0x288>
 288:	48 89 d8             	mov    %rbx,%rax
 28b:	48 89 c7             	mov    %rax,%rdi
 28e:	e8 00 00 00 00       	callq  293 <_ZNSt6vectorIhSaIhEE17_M_default_appendEm+0x293>
 293:	f3 0f 1e fa          	endbr64 
 297:	48 89 c7             	mov    %rax,%rdi
 29a:	e8 00 00 00 00       	callq  29f <_ZNSt6vectorIhSaIhEE17_M_default_appendEm+0x29f>
 29f:	48 83 7d c8 00       	cmpq   $0x0,-0x38(%rbp)
 2a4:	74 29                	je     2cf <_ZNSt6vectorIhSaIhEE17_M_default_appendEm+0x2cf>
 2a6:	48 8b 45 b8          	mov    -0x48(%rbp),%rax
 2aa:	48 89 c7             	mov    %rax,%rdi
 2ad:	e8 00 00 00 00       	callq  2b2 <_ZNSt6vectorIhSaIhEE17_M_default_appendEm+0x2b2>
 2b2:	48 89 c2             	mov    %rax,%rdx
 2b5:	48 8b 4d c8          	mov    -0x38(%rbp),%rcx
 2b9:	48 8b 45 b0          	mov    -0x50(%rbp),%rax
 2bd:	48 01 c1             	add    %rax,%rcx
 2c0:	48 8b 45 c8          	mov    -0x38(%rbp),%rax
 2c4:	48 89 ce             	mov    %rcx,%rsi
 2c7:	48 89 c7             	mov    %rax,%rdi
 2ca:	e8 00 00 00 00       	callq  2cf <_ZNSt6vectorIhSaIhEE17_M_default_appendEm+0x2cf>
 2cf:	48 8b 45 b8          	mov    -0x48(%rbp),%rax
 2d3:	48 8b 55 e0          	mov    -0x20(%rbp),%rdx
 2d7:	48 8b 4d e8          	mov    -0x18(%rbp),%rcx
 2db:	48 89 ce             	mov    %rcx,%rsi
 2de:	48 89 c7             	mov    %rax,%rdi
 2e1:	e8 00 00 00 00       	callq  2e6 <_ZNSt6vectorIhSaIhEE17_M_default_appendEm+0x2e6>
 2e6:	e8 00 00 00 00       	callq  2eb <_ZNSt6vectorIhSaIhEE17_M_default_appendEm+0x2eb>
 2eb:	f3 0f 1e fa          	endbr64 
 2ef:	48 89 c3             	mov    %rax,%rbx
 2f2:	e8 00 00 00 00       	callq  2f7 <_ZNSt6vectorIhSaIhEE17_M_default_appendEm+0x2f7>
 2f7:	48 89 d8             	mov    %rbx,%rax
 2fa:	48 89 c7             	mov    %rax,%rdi
 2fd:	e8 00 00 00 00       	callq  302 <_ZNSt6vectorIhSaIhEE17_M_default_appendEm+0x302>
 302:	90                   	nop
 303:	48 83 c4 48          	add    $0x48,%rsp
 307:	5b                   	pop    %rbx
 308:	5d                   	pop    %rbp
 309:	c3                   	retq   

Disassembly of section .text._ZNSt6vectorIhSaIhEE15_M_erase_at_endEPh:

0000000000000000 <_ZNSt6vectorIhSaIhEE15_M_erase_at_endEPh>:
   0:	f3 0f 1e fa          	endbr64 
   4:	55                   	push   %rbp
   5:	48 89 e5             	mov    %rsp,%rbp
   8:	48 83 ec 20          	sub    $0x20,%rsp
   c:	48 89 7d e8          	mov    %rdi,-0x18(%rbp)
  10:	48 89 75 e0          	mov    %rsi,-0x20(%rbp)
  14:	48 8b 45 e8          	mov    -0x18(%rbp),%rax
  18:	48 8b 40 08          	mov    0x8(%rax),%rax
  1c:	48 2b 45 e0          	sub    -0x20(%rbp),%rax
  20:	48 89 45 f8          	mov    %rax,-0x8(%rbp)
  24:	48 83 7d f8 00       	cmpq   $0x0,-0x8(%rbp)
  29:	74 32                	je     5d <_ZNSt6vectorIhSaIhEE15_M_erase_at_endEPh+0x5d>
  2b:	48 8b 45 e8          	mov    -0x18(%rbp),%rax
  2f:	48 89 c7             	mov    %rax,%rdi
  32:	e8 00 00 00 00       	callq  37 <_ZNSt6vectorIhSaIhEE15_M_erase_at_endEPh+0x37>
  37:	48 89 c2             	mov    %rax,%rdx
  3a:	48 8b 45 e8          	mov    -0x18(%rbp),%rax
  3e:	48 8b 48 08          	mov    0x8(%rax),%rcx
  42:	48 8b 45 e0          	mov    -0x20(%rbp),%rax
  46:	48 89 ce             	mov    %rcx,%rsi
  49:	48 89 c7             	mov    %rax,%rdi
  4c:	e8 00 00 00 00       	callq  51 <_ZNSt6vectorIhSaIhEE15_M_erase_at_endEPh+0x51>
  51:	48 8b 45 e8          	mov    -0x18(%rbp),%rax
  55:	48 8b 55 e0          	mov    -0x20(%rbp),%rdx
  59:	48 89 50 08          	mov    %rdx,0x8(%rax)
  5d:	90                   	nop
  5e:	c9                   	leaveq 
  5f:	c3                   	retq   

Disassembly of section .text._ZNSt12_Vector_baseIhSaIhEE17_Vector_impl_dataC2Ev:

0000000000000000 <_ZNSt12_Vector_baseIhSaIhEE17_Vector_impl_dataC1Ev>:
   0:	f3 0f 1e fa          	endbr64 
   4:	55                   	push   %rbp
   5:	48 89 e5             	mov    %rsp,%rbp
   8:	48 89 7d f8          	mov    %rdi,-0x8(%rbp)
   c:	48 8b 45 f8          	mov    -0x8(%rbp),%rax
  10:	48 c7 00 00 00 00 00 	movq   $0x0,(%rax)
  17:	48 8b 45 f8          	mov    -0x8(%rbp),%rax
  1b:	48 c7 40 08 00 00 00 	movq   $0x0,0x8(%rax)
  22:	00 
  23:	48 8b 45 f8          	mov    -0x8(%rbp),%rax
  27:	48 c7 40 10 00 00 00 	movq   $0x0,0x10(%rax)
  2e:	00 
  2f:	90                   	nop
  30:	5d                   	pop    %rbp
  31:	c3                   	retq   

Disassembly of section .text._ZNSt12_Vector_baseIhSaIhEE13_M_deallocateEPhm:

0000000000000000 <_ZNSt12_Vector_baseIhSaIhEE13_M_deallocateEPhm>:
   0:	f3 0f 1e fa          	endbr64 
   4:	55                   	push   %rbp
   5:	48 89 e5             	mov    %rsp,%rbp
   8:	48 83 ec 20          	sub    $0x20,%rsp
   c:	48 89 7d f8          	mov    %rdi,-0x8(%rbp)
  10:	48 89 75 f0          	mov    %rsi,-0x10(%rbp)
  14:	48 89 55 e8          	mov    %rdx,-0x18(%rbp)
  18:	48 83 7d f0 00       	cmpq   $0x0,-0x10(%rbp)
  1d:	74 17                	je     36 <_ZNSt12_Vector_baseIhSaIhEE13_M_deallocateEPhm+0x36>
  1f:	48 8b 45 f8          	mov    -0x8(%rbp),%rax
  23:	48 8b 55 e8          	mov    -0x18(%rbp),%rdx
  27:	48 8b 4d f0          	mov    -0x10(%rbp),%rcx
  2b:	48 89 ce             	mov    %rcx,%rsi
  2e:	48 89 c7             	mov    %rax,%rdi
  31:	e8 00 00 00 00       	callq  36 <_ZNSt12_Vector_baseIhSaIhEE13_M_deallocateEPhm+0x36>
  36:	90                   	nop
  37:	c9                   	leaveq 
  38:	c3                   	retq   

Disassembly of section .text._ZN9__gnu_cxx17__normal_iteratorIPhSt6vectorIhSaIhEEEC2ERKS1_:

0000000000000000 <_ZN9__gnu_cxx17__normal_iteratorIPhSt6vectorIhSaIhEEEC1ERKS1_>:
   0:	f3 0f 1e fa          	endbr64 
   4:	55                   	push   %rbp
   5:	48 89 e5             	mov    %rsp,%rbp
   8:	48 89 7d f8          	mov    %rdi,-0x8(%rbp)
   c:	48 89 75 f0          	mov    %rsi,-0x10(%rbp)
  10:	48 8b 45 f0          	mov    -0x10(%rbp),%rax
  14:	48 8b 10             	mov    (%rax),%rdx
  17:	48 8b 45 f8          	mov    -0x8(%rbp),%rax
  1b:	48 89 10             	mov    %rdx,(%rax)
  1e:	90                   	nop
  1f:	5d                   	pop    %rbp
  20:	c3                   	retq   

Disassembly of section .text._ZN9__gnu_cxx5__ops17__iter_equals_valIKcEENS0_16_Iter_equals_valIT_EERS4_:

0000000000000000 <_ZN9__gnu_cxx5__ops17__iter_equals_valIKcEENS0_16_Iter_equals_valIT_EERS4_>:
   0:	f3 0f 1e fa          	endbr64 
   4:	55                   	push   %rbp
   5:	48 89 e5             	mov    %rsp,%rbp
   8:	48 83 ec 20          	sub    $0x20,%rsp
   c:	48 89 7d e8          	mov    %rdi,-0x18(%rbp)
  10:	64 48 8b 04 25 28 00 	mov    %fs:0x28,%rax
  17:	00 00 
  19:	48 89 45 f8          	mov    %rax,-0x8(%rbp)
  1d:	31 c0                	xor    %eax,%eax
  1f:	48 8b 55 e8          	mov    -0x18(%rbp),%rdx
  23:	48 8d 45 f0          	lea    -0x10(%rbp),%rax
  27:	48 89 d6             	mov    %rdx,%rsi
  2a:	48 89 c7             	mov    %rax,%rdi
  2d:	e8 00 00 00 00       	callq  32 <_ZN9__gnu_cxx5__ops17__iter_equals_valIKcEENS0_16_Iter_equals_valIT_EERS4_+0x32>
  32:	48 8b 45 f0          	mov    -0x10(%rbp),%rax
  36:	48 8b 4d f8          	mov    -0x8(%rbp),%rcx
  3a:	64 48 33 0c 25 28 00 	xor    %fs:0x28,%rcx
  41:	00 00 
  43:	74 05                	je     4a <_ZN9__gnu_cxx5__ops17__iter_equals_valIKcEENS0_16_Iter_equals_valIT_EERS4_+0x4a>
  45:	e8 00 00 00 00       	callq  4a <_ZN9__gnu_cxx5__ops17__iter_equals_valIKcEENS0_16_Iter_equals_valIT_EERS4_+0x4a>
  4a:	c9                   	leaveq 
  4b:	c3                   	retq   

Disassembly of section .text._ZSt9__find_ifIN9__gnu_cxx17__normal_iteratorIPhSt6vectorIhSaIhEEEENS0_5__ops16_Iter_equals_valIKcEEET_SB_SB_T0_:

0000000000000000 <_ZSt9__find_ifIN9__gnu_cxx17__normal_iteratorIPhSt6vectorIhSaIhEEEENS0_5__ops16_Iter_equals_valIKcEEET_SB_SB_T0_>:
   0:	f3 0f 1e fa          	endbr64 
   4:	55                   	push   %rbp
   5:	48 89 e5             	mov    %rsp,%rbp
   8:	48 83 ec 30          	sub    $0x30,%rsp
   c:	48 89 7d e8          	mov    %rdi,-0x18(%rbp)
  10:	48 89 75 e0          	mov    %rsi,-0x20(%rbp)
  14:	48 89 55 d8          	mov    %rdx,-0x28(%rbp)
  18:	64 48 8b 04 25 28 00 	mov    %fs:0x28,%rax
  1f:	00 00 
  21:	48 89 45 f8          	mov    %rax,-0x8(%rbp)
  25:	31 c0                	xor    %eax,%eax
  27:	48 8d 45 e8          	lea    -0x18(%rbp),%rax
  2b:	48 89 c7             	mov    %rax,%rdi
  2e:	e8 00 00 00 00       	callq  33 <_ZSt9__find_ifIN9__gnu_cxx17__normal_iteratorIPhSt6vectorIhSaIhEEEENS0_5__ops16_Iter_equals_valIKcEEET_SB_SB_T0_+0x33>
  33:	48 8b 55 d8          	mov    -0x28(%rbp),%rdx
  37:	48 8b 4d e0          	mov    -0x20(%rbp),%rcx
  3b:	48 8b 45 e8          	mov    -0x18(%rbp),%rax
  3f:	48 89 ce             	mov    %rcx,%rsi
  42:	48 89 c7             	mov    %rax,%rdi
  45:	e8 00 00 00 00       	callq  4a <_ZSt9__find_ifIN9__gnu_cxx17__normal_iteratorIPhSt6vectorIhSaIhEEEENS0_5__ops16_Iter_equals_valIKcEEET_SB_SB_T0_+0x4a>
  4a:	48 8b 4d f8          	mov    -0x8(%rbp),%rcx
  4e:	64 48 33 0c 25 28 00 	xor    %fs:0x28,%rcx
  55:	00 00 
  57:	74 05                	je     5e <_ZSt9__find_ifIN9__gnu_cxx17__normal_iteratorIPhSt6vectorIhSaIhEEEENS0_5__ops16_Iter_equals_valIKcEEET_SB_SB_T0_+0x5e>
  59:	e8 00 00 00 00       	callq  5e <_ZSt9__find_ifIN9__gnu_cxx17__normal_iteratorIPhSt6vectorIhSaIhEEEENS0_5__ops16_Iter_equals_valIKcEEET_SB_SB_T0_+0x5e>
  5e:	c9                   	leaveq 
  5f:	c3                   	retq   

Disassembly of section .text._ZNK9__gnu_cxx17__normal_iteratorIPhSt6vectorIhSaIhEEE4baseEv:

0000000000000000 <_ZNK9__gnu_cxx17__normal_iteratorIPhSt6vectorIhSaIhEEE4baseEv>:
   0:	f3 0f 1e fa          	endbr64 
   4:	55                   	push   %rbp
   5:	48 89 e5             	mov    %rsp,%rbp
   8:	48 89 7d f8          	mov    %rdi,-0x8(%rbp)
   c:	48 8b 45 f8          	mov    -0x8(%rbp),%rax
  10:	5d                   	pop    %rbp
  11:	c3                   	retq   

Disassembly of section .text._ZN9__gnu_cxx17__normal_iteratorIPKcNSt7__cxx1112basic_stringIcSt11char_traitsIcESaIcEEEEC2IPcEERKNS0_IT_NS_11__enable_ifIXsrSt10__are_sameISC_SB_E7__valueES8_E6__typeEEE:

0000000000000000 <_ZN9__gnu_cxx17__normal_iteratorIPKcNSt7__cxx1112basic_stringIcSt11char_traitsIcESaIcEEEEC1IPcEERKNS0_IT_NS_11__enable_ifIXsrSt10__are_sameISC_SB_E7__valueES8_E6__typeEEE>:
   0:	f3 0f 1e fa          	endbr64 
   4:	55                   	push   %rbp
   5:	48 89 e5             	mov    %rsp,%rbp
   8:	48 83 ec 10          	sub    $0x10,%rsp
   c:	48 89 7d f8          	mov    %rdi,-0x8(%rbp)
  10:	48 89 75 f0          	mov    %rsi,-0x10(%rbp)
  14:	48 8b 45 f0          	mov    -0x10(%rbp),%rax
  18:	48 89 c7             	mov    %rax,%rdi
  1b:	e8 00 00 00 00       	callq  20 <_ZN9__gnu_cxx17__normal_iteratorIPKcNSt7__cxx1112basic_stringIcSt11char_traitsIcESaIcEEEEC1IPcEERKNS0_IT_NS_11__enable_ifIXsrSt10__are_sameISC_SB_E7__valueES8_E6__typeEEE+0x20>
  20:	48 8b 10             	mov    (%rax),%rdx
  23:	48 8b 45 f8          	mov    -0x8(%rbp),%rax
  27:	48 89 10             	mov    %rdx,(%rax)
  2a:	90                   	nop
  2b:	c9                   	leaveq 
  2c:	c3                   	retq   

Disassembly of section .text._ZNSt7__cxx1112basic_stringIcSt11char_traitsIcESaIcEE7replaceIN9__gnu_cxx17__normal_iteratorIPhSt6vectorIhSaIhEEEEvEERS4_NS7_IPKcS4_EESG_T_SH_:

0000000000000000 <_ZNSt7__cxx1112basic_stringIcSt11char_traitsIcESaIcEE7replaceIN9__gnu_cxx17__normal_iteratorIPhSt6vectorIhSaIhEEEEvEERS4_NS7_IPKcS4_EESG_T_SH_>:
   0:	f3 0f 1e fa          	endbr64 
   4:	55                   	push   %rbp
   5:	48 89 e5             	mov    %rsp,%rbp
   8:	48 83 ec 40          	sub    $0x40,%rsp
   c:	48 89 7d e8          	mov    %rdi,-0x18(%rbp)
  10:	48 89 75 e0          	mov    %rsi,-0x20(%rbp)
  14:	48 89 55 d8          	mov    %rdx,-0x28(%rbp)
  18:	48 89 4d d0          	mov    %rcx,-0x30(%rbp)
  1c:	4c 89 45 c8          	mov    %r8,-0x38(%rbp)
  20:	64 48 8b 04 25 28 00 	mov    %fs:0x28,%rax
  27:	00 00 
  29:	48 89 45 f8          	mov    %rax,-0x8(%rbp)
  2d:	31 c0                	xor    %eax,%eax
  2f:	48 8b 7d c8          	mov    -0x38(%rbp),%rdi
  33:	48 8b 4d d0          	mov    -0x30(%rbp),%rcx
  37:	48 8b 55 d8          	mov    -0x28(%rbp),%rdx
  3b:	48 8b 75 e0          	mov    -0x20(%rbp),%rsi
  3f:	48 8b 45 e8          	mov    -0x18(%rbp),%rax
  43:	49 89 f8             	mov    %rdi,%r8
  46:	48 89 c7             	mov    %rax,%rdi
  49:	e8 00 00 00 00       	callq  4e <_ZNSt7__cxx1112basic_stringIcSt11char_traitsIcESaIcEE7replaceIN9__gnu_cxx17__normal_iteratorIPhSt6vectorIhSaIhEEEEvEERS4_NS7_IPKcS4_EESG_T_SH_+0x4e>
  4e:	48 8b 55 f8          	mov    -0x8(%rbp),%rdx
  52:	64 48 33 14 25 28 00 	xor    %fs:0x28,%rdx
  59:	00 00 
  5b:	74 05                	je     62 <_ZNSt7__cxx1112basic_stringIcSt11char_traitsIcESaIcEE7replaceIN9__gnu_cxx17__normal_iteratorIPhSt6vectorIhSaIhEEEEvEERS4_NS7_IPKcS4_EESG_T_SH_+0x62>
  5d:	e8 00 00 00 00       	callq  62 <_ZNSt7__cxx1112basic_stringIcSt11char_traitsIcESaIcEE7replaceIN9__gnu_cxx17__normal_iteratorIPhSt6vectorIhSaIhEEEEvEERS4_NS7_IPKcS4_EESG_T_SH_+0x62>
  62:	c9                   	leaveq 
  63:	c3                   	retq   

Disassembly of section .text._ZNKSt6vectorIhSaIhEE6cbeginEv:

0000000000000000 <_ZNKSt6vectorIhSaIhEE6cbeginEv>:
   0:	f3 0f 1e fa          	endbr64 
   4:	55                   	push   %rbp
   5:	48 89 e5             	mov    %rsp,%rbp
   8:	48 83 ec 30          	sub    $0x30,%rsp
   c:	48 89 7d d8          	mov    %rdi,-0x28(%rbp)
  10:	64 48 8b 04 25 28 00 	mov    %fs:0x28,%rax
  17:	00 00 
  19:	48 89 45 f8          	mov    %rax,-0x8(%rbp)
  1d:	31 c0                	xor    %eax,%eax
  1f:	48 8b 45 d8          	mov    -0x28(%rbp),%rax
  23:	48 8b 00             	mov    (%rax),%rax
  26:	48 89 45 e8          	mov    %rax,-0x18(%rbp)
  2a:	48 8d 55 e8          	lea    -0x18(%rbp),%rdx
  2e:	48 8d 45 f0          	lea    -0x10(%rbp),%rax
  32:	48 89 d6             	mov    %rdx,%rsi
  35:	48 89 c7             	mov    %rax,%rdi
  38:	e8 00 00 00 00       	callq  3d <_ZNKSt6vectorIhSaIhEE6cbeginEv+0x3d>
  3d:	48 8b 45 f0          	mov    -0x10(%rbp),%rax
  41:	48 8b 4d f8          	mov    -0x8(%rbp),%rcx
  45:	64 48 33 0c 25 28 00 	xor    %fs:0x28,%rcx
  4c:	00 00 
  4e:	74 05                	je     55 <_ZNKSt6vectorIhSaIhEE6cbeginEv+0x55>
  50:	e8 00 00 00 00       	callq  55 <_ZNKSt6vectorIhSaIhEE6cbeginEv+0x55>
  55:	c9                   	leaveq 
  56:	c3                   	retq   

Disassembly of section .text._ZN9__gnu_cxxmiIPKhSt6vectorIhSaIhEEEENS_17__normal_iteratorIT_T0_E15difference_typeERKS9_SC_:

0000000000000000 <_ZN9__gnu_cxxmiIPKhSt6vectorIhSaIhEEEENS_17__normal_iteratorIT_T0_E15difference_typeERKS9_SC_>:
   0:	f3 0f 1e fa          	endbr64 
   4:	55                   	push   %rbp
   5:	48 89 e5             	mov    %rsp,%rbp
   8:	53                   	push   %rbx
   9:	48 83 ec 18          	sub    $0x18,%rsp
   d:	48 89 7d e8          	mov    %rdi,-0x18(%rbp)
  11:	48 89 75 e0          	mov    %rsi,-0x20(%rbp)
  15:	48 8b 45 e8          	mov    -0x18(%rbp),%rax
  19:	48 89 c7             	mov    %rax,%rdi
  1c:	e8 00 00 00 00       	callq  21 <_ZN9__gnu_cxxmiIPKhSt6vectorIhSaIhEEEENS_17__normal_iteratorIT_T0_E15difference_typeERKS9_SC_+0x21>
  21:	48 8b 18             	mov    (%rax),%rbx
  24:	48 8b 45 e0          	mov    -0x20(%rbp),%rax
  28:	48 89 c7             	mov    %rax,%rdi
  2b:	e8 00 00 00 00       	callq  30 <_ZN9__gnu_cxxmiIPKhSt6vectorIhSaIhEEEENS_17__normal_iteratorIT_T0_E15difference_typeERKS9_SC_+0x30>
  30:	48 8b 00             	mov    (%rax),%rax
  33:	48 29 c3             	sub    %rax,%rbx
  36:	48 89 d8             	mov    %rbx,%rax
  39:	48 83 c4 18          	add    $0x18,%rsp
  3d:	5b                   	pop    %rbx
  3e:	5d                   	pop    %rbp
  3f:	c3                   	retq   

Disassembly of section .text._ZNSt6vectorIhSaIhEE8_M_eraseEN9__gnu_cxx17__normal_iteratorIPhS1_EES5_:

0000000000000000 <_ZNSt6vectorIhSaIhEE8_M_eraseEN9__gnu_cxx17__normal_iteratorIPhS1_EES5_>:
   0:	f3 0f 1e fa          	endbr64 
   4:	55                   	push   %rbp
   5:	48 89 e5             	mov    %rsp,%rbp
   8:	53                   	push   %rbx
   9:	48 83 ec 38          	sub    $0x38,%rsp
   d:	48 89 7d d8          	mov    %rdi,-0x28(%rbp)
  11:	48 89 75 d0          	mov    %rsi,-0x30(%rbp)
  15:	48 89 55 c8          	mov    %rdx,-0x38(%rbp)
  19:	64 48 8b 04 25 28 00 	mov    %fs:0x28,%rax
  20:	00 00 
  22:	48 89 45 e8          	mov    %rax,-0x18(%rbp)
  26:	31 c0                	xor    %eax,%eax
  28:	48 8d 55 c8          	lea    -0x38(%rbp),%rdx
  2c:	48 8d 45 d0          	lea    -0x30(%rbp),%rax
  30:	48 89 d6             	mov    %rdx,%rsi
  33:	48 89 c7             	mov    %rax,%rdi
  36:	e8 00 00 00 00       	callq  3b <_ZNSt6vectorIhSaIhEE8_M_eraseEN9__gnu_cxx17__normal_iteratorIPhS1_EES5_+0x3b>
  3b:	84 c0                	test   %al,%al
  3d:	0f 84 8e 00 00 00    	je     d1 <_ZNSt6vectorIhSaIhEE8_M_eraseEN9__gnu_cxx17__normal_iteratorIPhS1_EES5_+0xd1>
  43:	48 8b 45 d8          	mov    -0x28(%rbp),%rax
  47:	48 89 c7             	mov    %rax,%rdi
  4a:	e8 00 00 00 00       	callq  4f <_ZNSt6vectorIhSaIhEE8_M_eraseEN9__gnu_cxx17__normal_iteratorIPhS1_EES5_+0x4f>
  4f:	48 89 45 e0          	mov    %rax,-0x20(%rbp)
  53:	48 8d 55 e0          	lea    -0x20(%rbp),%rdx
  57:	48 8d 45 c8          	lea    -0x38(%rbp),%rax
  5b:	48 89 d6             	mov    %rdx,%rsi
  5e:	48 89 c7             	mov    %rax,%rdi
  61:	e8 00 00 00 00       	callq  66 <_ZNSt6vectorIhSaIhEE8_M_eraseEN9__gnu_cxx17__normal_iteratorIPhS1_EES5_+0x66>
  66:	84 c0                	test   %al,%al
  68:	74 22                	je     8c <_ZNSt6vectorIhSaIhEE8_M_eraseEN9__gnu_cxx17__normal_iteratorIPhS1_EES5_+0x8c>
  6a:	48 8b 45 d8          	mov    -0x28(%rbp),%rax
  6e:	48 89 c7             	mov    %rax,%rdi
  71:	e8 00 00 00 00       	callq  76 <_ZNSt6vectorIhSaIhEE8_M_eraseEN9__gnu_cxx17__normal_iteratorIPhS1_EES5_+0x76>
  76:	48 89 c1             	mov    %rax,%rcx
  79:	48 8b 55 d0          	mov    -0x30(%rbp),%rdx
  7d:	48 8b 45 c8          	mov    -0x38(%rbp),%rax
  81:	48 89 ce             	mov    %rcx,%rsi
  84:	48 89 c7             	mov    %rax,%rdi
  87:	e8 00 00 00 00       	callq  8c <_ZNSt6vectorIhSaIhEE8_M_eraseEN9__gnu_cxx17__normal_iteratorIPhS1_EES5_+0x8c>
  8c:	48 8d 45 d0          	lea    -0x30(%rbp),%rax
  90:	48 89 c7             	mov    %rax,%rdi
  93:	e8 00 00 00 00       	callq  98 <_ZNSt6vectorIhSaIhEE8_M_eraseEN9__gnu_cxx17__normal_iteratorIPhS1_EES5_+0x98>
  98:	48 8b 18             	mov    (%rax),%rbx
  9b:	48 8b 45 d8          	mov    -0x28(%rbp),%rax
  9f:	48 89 c7             	mov    %rax,%rdi
  a2:	e8 00 00 00 00       	callq  a7 <_ZNSt6vectorIhSaIhEE8_M_eraseEN9__gnu_cxx17__normal_iteratorIPhS1_EES5_+0xa7>
  a7:	48 89 45 e0          	mov    %rax,-0x20(%rbp)
  ab:	48 8d 55 c8          	lea    -0x38(%rbp),%rdx
  af:	48 8d 45 e0          	lea    -0x20(%rbp),%rax
  b3:	48 89 d6             	mov    %rdx,%rsi
  b6:	48 89 c7             	mov    %rax,%rdi
  b9:	e8 00 00 00 00       	callq  be <_ZNSt6vectorIhSaIhEE8_M_eraseEN9__gnu_cxx17__normal_iteratorIPhS1_EES5_+0xbe>
  be:	48 8d 14 03          	lea    (%rbx,%rax,1),%rdx
  c2:	48 8b 45 d8          	mov    -0x28(%rbp),%rax
  c6:	48 89 d6             	mov    %rdx,%rsi
  c9:	48 89 c7             	mov    %rax,%rdi
  cc:	e8 00 00 00 00       	callq  d1 <_ZNSt6vectorIhSaIhEE8_M_eraseEN9__gnu_cxx17__normal_iteratorIPhS1_EES5_+0xd1>
  d1:	48 8b 45 d0          	mov    -0x30(%rbp),%rax
  d5:	48 8b 4d e8          	mov    -0x18(%rbp),%rcx
  d9:	64 48 33 0c 25 28 00 	xor    %fs:0x28,%rcx
  e0:	00 00 
  e2:	74 05                	je     e9 <_ZNSt6vectorIhSaIhEE8_M_eraseEN9__gnu_cxx17__normal_iteratorIPhS1_EES5_+0xe9>
  e4:	e8 00 00 00 00       	callq  e9 <_ZNSt6vectorIhSaIhEE8_M_eraseEN9__gnu_cxx17__normal_iteratorIPhS1_EES5_+0xe9>
  e9:	48 83 c4 38          	add    $0x38,%rsp
  ed:	5b                   	pop    %rbx
  ee:	5d                   	pop    %rbp
  ef:	c3                   	retq   

Disassembly of section .text._ZNKSt6vectorIhSaIhEE5beginEv:

0000000000000000 <_ZNKSt6vectorIhSaIhEE5beginEv>:
   0:	f3 0f 1e fa          	endbr64 
   4:	55                   	push   %rbp
   5:	48 89 e5             	mov    %rsp,%rbp
   8:	48 83 ec 30          	sub    $0x30,%rsp
   c:	48 89 7d d8          	mov    %rdi,-0x28(%rbp)
  10:	64 48 8b 04 25 28 00 	mov    %fs:0x28,%rax
  17:	00 00 
  19:	48 89 45 f8          	mov    %rax,-0x8(%rbp)
  1d:	31 c0                	xor    %eax,%eax
  1f:	48 8b 45 d8          	mov    -0x28(%rbp),%rax
  23:	48 8b 00             	mov    (%rax),%rax
  26:	48 89 45 e8          	mov    %rax,-0x18(%rbp)
  2a:	48 8d 55 e8          	lea    -0x18(%rbp),%rdx
  2e:	48 8d 45 f0          	lea    -0x10(%rbp),%rax
  32:	48 89 d6             	mov    %rdx,%rsi
  35:	48 89 c7             	mov    %rax,%rdi
  38:	e8 00 00 00 00       	callq  3d <_ZNKSt6vectorIhSaIhEE5beginEv+0x3d>
  3d:	48 8b 45 f0          	mov    -0x10(%rbp),%rax
  41:	48 8b 4d f8          	mov    -0x8(%rbp),%rcx
  45:	64 48 33 0c 25 28 00 	xor    %fs:0x28,%rcx
  4c:	00 00 
  4e:	74 05                	je     55 <_ZNKSt6vectorIhSaIhEE5beginEv+0x55>
  50:	e8 00 00 00 00       	callq  55 <_ZNKSt6vectorIhSaIhEE5beginEv+0x55>
  55:	c9                   	leaveq 
  56:	c3                   	retq   

Disassembly of section .text._ZNKSt6vectorIhSaIhEE3endEv:

0000000000000000 <_ZNKSt6vectorIhSaIhEE3endEv>:
   0:	f3 0f 1e fa          	endbr64 
   4:	55                   	push   %rbp
   5:	48 89 e5             	mov    %rsp,%rbp
   8:	48 83 ec 30          	sub    $0x30,%rsp
   c:	48 89 7d d8          	mov    %rdi,-0x28(%rbp)
  10:	64 48 8b 04 25 28 00 	mov    %fs:0x28,%rax
  17:	00 00 
  19:	48 89 45 f8          	mov    %rax,-0x8(%rbp)
  1d:	31 c0                	xor    %eax,%eax
  1f:	48 8b 45 d8          	mov    -0x28(%rbp),%rax
  23:	48 8b 40 08          	mov    0x8(%rax),%rax
  27:	48 89 45 e8          	mov    %rax,-0x18(%rbp)
  2b:	48 8d 55 e8          	lea    -0x18(%rbp),%rdx
  2f:	48 8d 45 f0          	lea    -0x10(%rbp),%rax
  33:	48 89 d6             	mov    %rdx,%rsi
  36:	48 89 c7             	mov    %rax,%rdi
  39:	e8 00 00 00 00       	callq  3e <_ZNKSt6vectorIhSaIhEE3endEv+0x3e>
  3e:	48 8b 45 f0          	mov    -0x10(%rbp),%rax
  42:	48 8b 4d f8          	mov    -0x8(%rbp),%rcx
  46:	64 48 33 0c 25 28 00 	xor    %fs:0x28,%rcx
  4d:	00 00 
  4f:	74 05                	je     56 <_ZNKSt6vectorIhSaIhEE3endEv+0x56>
  51:	e8 00 00 00 00       	callq  56 <_ZNKSt6vectorIhSaIhEE3endEv+0x56>
  56:	c9                   	leaveq 
  57:	c3                   	retq   

Disassembly of section .text._ZN9__gnu_cxxeqIPKhSt6vectorIhSaIhEEEEbRKNS_17__normal_iteratorIT_T0_EESB_:

0000000000000000 <_ZN9__gnu_cxxeqIPKhSt6vectorIhSaIhEEEEbRKNS_17__normal_iteratorIT_T0_EESB_>:
   0:	f3 0f 1e fa          	endbr64 
   4:	55                   	push   %rbp
   5:	48 89 e5             	mov    %rsp,%rbp
   8:	53                   	push   %rbx
   9:	48 83 ec 18          	sub    $0x18,%rsp
   d:	48 89 7d e8          	mov    %rdi,-0x18(%rbp)
  11:	48 89 75 e0          	mov    %rsi,-0x20(%rbp)
  15:	48 8b 45 e8          	mov    -0x18(%rbp),%rax
  19:	48 89 c7             	mov    %rax,%rdi
  1c:	e8 00 00 00 00       	callq  21 <_ZN9__gnu_cxxeqIPKhSt6vectorIhSaIhEEEEbRKNS_17__normal_iteratorIT_T0_EESB_+0x21>
  21:	48 8b 18             	mov    (%rax),%rbx
  24:	48 8b 45 e0          	mov    -0x20(%rbp),%rax
  28:	48 89 c7             	mov    %rax,%rdi
  2b:	e8 00 00 00 00       	callq  30 <_ZN9__gnu_cxxeqIPKhSt6vectorIhSaIhEEEEbRKNS_17__normal_iteratorIT_T0_EESB_+0x30>
  30:	48 8b 00             	mov    (%rax),%rax
  33:	48 39 c3             	cmp    %rax,%rbx
  36:	0f 94 c0             	sete   %al
  39:	48 83 c4 18          	add    $0x18,%rsp
  3d:	5b                   	pop    %rbx
  3e:	5d                   	pop    %rbp
  3f:	c3                   	retq   

Disassembly of section .text._ZNSt6vectorIhSaIhEE18_M_insert_dispatchIN9__gnu_cxx17__normal_iteratorIPhS1_EEEEvS6_T_S7_St12__false_type:

0000000000000000 <_ZNSt6vectorIhSaIhEE18_M_insert_dispatchIN9__gnu_cxx17__normal_iteratorIPhS1_EEEEvS6_T_S7_St12__false_type>:
   0:	f3 0f 1e fa          	endbr64 
   4:	55                   	push   %rbp
   5:	48 89 e5             	mov    %rsp,%rbp
   8:	48 83 ec 30          	sub    $0x30,%rsp
   c:	48 89 7d e8          	mov    %rdi,-0x18(%rbp)
  10:	48 89 75 e0          	mov    %rsi,-0x20(%rbp)
  14:	48 89 55 d8          	mov    %rdx,-0x28(%rbp)
  18:	48 89 4d d0          	mov    %rcx,-0x30(%rbp)
  1c:	64 48 8b 04 25 28 00 	mov    %fs:0x28,%rax
  23:	00 00 
  25:	48 89 45 f8          	mov    %rax,-0x8(%rbp)
  29:	31 c0                	xor    %eax,%eax
  2b:	48 8d 45 d8          	lea    -0x28(%rbp),%rax
  2f:	48 89 c7             	mov    %rax,%rdi
  32:	e8 00 00 00 00       	callq  37 <_ZNSt6vectorIhSaIhEE18_M_insert_dispatchIN9__gnu_cxx17__normal_iteratorIPhS1_EEEEvS6_T_S7_St12__false_type+0x37>
  37:	48 8b 4d d0          	mov    -0x30(%rbp),%rcx
  3b:	48 8b 55 d8          	mov    -0x28(%rbp),%rdx
  3f:	48 8b 75 e0          	mov    -0x20(%rbp),%rsi
  43:	48 8b 45 e8          	mov    -0x18(%rbp),%rax
  47:	48 89 c7             	mov    %rax,%rdi
  4a:	e8 00 00 00 00       	callq  4f <_ZNSt6vectorIhSaIhEE18_M_insert_dispatchIN9__gnu_cxx17__normal_iteratorIPhS1_EEEEvS6_T_S7_St12__false_type+0x4f>
  4f:	90                   	nop
  50:	48 8b 45 f8          	mov    -0x8(%rbp),%rax
  54:	64 48 33 04 25 28 00 	xor    %fs:0x28,%rax
  5b:	00 00 
  5d:	74 05                	je     64 <_ZNSt6vectorIhSaIhEE18_M_insert_dispatchIN9__gnu_cxx17__normal_iteratorIPhS1_EEEEvS6_T_S7_St12__false_type+0x64>
  5f:	e8 00 00 00 00       	callq  64 <_ZNSt6vectorIhSaIhEE18_M_insert_dispatchIN9__gnu_cxx17__normal_iteratorIPhS1_EEEEvS6_T_S7_St12__false_type+0x64>
  64:	c9                   	leaveq 
  65:	c3                   	retq   

Disassembly of section .text._ZNSaISt6vectorINSt7__cxx1112basic_stringIcSt11char_traitsIcESaIcEEESaIS5_EEEC2Ev:

0000000000000000 <_ZNSaISt6vectorINSt7__cxx1112basic_stringIcSt11char_traitsIcESaIcEEESaIS5_EEEC1Ev>:
   0:	f3 0f 1e fa          	endbr64 
   4:	55                   	push   %rbp
   5:	48 89 e5             	mov    %rsp,%rbp
   8:	48 83 ec 10          	sub    $0x10,%rsp
   c:	48 89 7d f8          	mov    %rdi,-0x8(%rbp)
  10:	48 8b 45 f8          	mov    -0x8(%rbp),%rax
  14:	48 89 c7             	mov    %rax,%rdi
  17:	e8 00 00 00 00       	callq  1c <_ZNSaISt6vectorINSt7__cxx1112basic_stringIcSt11char_traitsIcESaIcEEESaIS5_EEEC1Ev+0x1c>
  1c:	90                   	nop
  1d:	c9                   	leaveq 
  1e:	c3                   	retq   

Disassembly of section .text._ZNSt12_Vector_baseISt6vectorINSt7__cxx1112basic_stringIcSt11char_traitsIcESaIcEEESaIS6_EESaIS8_EE17_Vector_impl_dataC2Ev:

0000000000000000 <_ZNSt12_Vector_baseISt6vectorINSt7__cxx1112basic_stringIcSt11char_traitsIcESaIcEEESaIS6_EESaIS8_EE17_Vector_impl_dataC1Ev>:
   0:	f3 0f 1e fa          	endbr64 
   4:	55                   	push   %rbp
   5:	48 89 e5             	mov    %rsp,%rbp
   8:	48 89 7d f8          	mov    %rdi,-0x8(%rbp)
   c:	48 8b 45 f8          	mov    -0x8(%rbp),%rax
  10:	48 c7 00 00 00 00 00 	movq   $0x0,(%rax)
  17:	48 8b 45 f8          	mov    -0x8(%rbp),%rax
  1b:	48 c7 40 08 00 00 00 	movq   $0x0,0x8(%rax)
  22:	00 
  23:	48 8b 45 f8          	mov    -0x8(%rbp),%rax
  27:	48 c7 40 10 00 00 00 	movq   $0x0,0x10(%rax)
  2e:	00 
  2f:	90                   	nop
  30:	5d                   	pop    %rbp
  31:	c3                   	retq   

Disassembly of section .text._ZN9__gnu_cxx13new_allocatorISt6vectorINSt7__cxx1112basic_stringIcSt11char_traitsIcESaIcEEESaIS7_EEED2Ev:

0000000000000000 <_ZN9__gnu_cxx13new_allocatorISt6vectorINSt7__cxx1112basic_stringIcSt11char_traitsIcESaIcEEESaIS7_EEED1Ev>:
   0:	f3 0f 1e fa          	endbr64 
   4:	55                   	push   %rbp
   5:	48 89 e5             	mov    %rsp,%rbp
   8:	48 89 7d f8          	mov    %rdi,-0x8(%rbp)
   c:	90                   	nop
   d:	5d                   	pop    %rbp
   e:	c3                   	retq   

Disassembly of section .text._ZNSt12_Vector_baseISt6vectorINSt7__cxx1112basic_stringIcSt11char_traitsIcESaIcEEESaIS6_EESaIS8_EE13_M_deallocateEPS8_m:

0000000000000000 <_ZNSt12_Vector_baseISt6vectorINSt7__cxx1112basic_stringIcSt11char_traitsIcESaIcEEESaIS6_EESaIS8_EE13_M_deallocateEPS8_m>:
   0:	f3 0f 1e fa          	endbr64 
   4:	55                   	push   %rbp
   5:	48 89 e5             	mov    %rsp,%rbp
   8:	48 83 ec 20          	sub    $0x20,%rsp
   c:	48 89 7d f8          	mov    %rdi,-0x8(%rbp)
  10:	48 89 75 f0          	mov    %rsi,-0x10(%rbp)
  14:	48 89 55 e8          	mov    %rdx,-0x18(%rbp)
  18:	48 83 7d f0 00       	cmpq   $0x0,-0x10(%rbp)
  1d:	74 17                	je     36 <_ZNSt12_Vector_baseISt6vectorINSt7__cxx1112basic_stringIcSt11char_traitsIcESaIcEEESaIS6_EESaIS8_EE13_M_deallocateEPS8_m+0x36>
  1f:	48 8b 45 f8          	mov    -0x8(%rbp),%rax
  23:	48 8b 55 e8          	mov    -0x18(%rbp),%rdx
  27:	48 8b 4d f0          	mov    -0x10(%rbp),%rcx
  2b:	48 89 ce             	mov    %rcx,%rsi
  2e:	48 89 c7             	mov    %rax,%rdi
  31:	e8 00 00 00 00       	callq  36 <_ZNSt12_Vector_baseISt6vectorINSt7__cxx1112basic_stringIcSt11char_traitsIcESaIcEEESaIS6_EESaIS8_EE13_M_deallocateEPS8_m+0x36>
  36:	90                   	nop
  37:	c9                   	leaveq 
  38:	c3                   	retq   

Disassembly of section .text._ZNSt12_Vector_baseISt6vectorINSt7__cxx1112basic_stringIcSt11char_traitsIcESaIcEEESaIS6_EESaIS8_EE19_M_get_Tp_allocatorEv:

0000000000000000 <_ZNSt12_Vector_baseISt6vectorINSt7__cxx1112basic_stringIcSt11char_traitsIcESaIcEEESaIS6_EESaIS8_EE19_M_get_Tp_allocatorEv>:
   0:	f3 0f 1e fa          	endbr64 
   4:	55                   	push   %rbp
   5:	48 89 e5             	mov    %rsp,%rbp
   8:	48 89 7d f8          	mov    %rdi,-0x8(%rbp)
   c:	48 8b 45 f8          	mov    -0x8(%rbp),%rax
  10:	5d                   	pop    %rbp
  11:	c3                   	retq   

Disassembly of section .text._ZSt8_DestroyIPSt6vectorINSt7__cxx1112basic_stringIcSt11char_traitsIcESaIcEEESaIS6_EES8_EvT_SA_RSaIT0_E:

0000000000000000 <_ZSt8_DestroyIPSt6vectorINSt7__cxx1112basic_stringIcSt11char_traitsIcESaIcEEESaIS6_EES8_EvT_SA_RSaIT0_E>:
   0:	f3 0f 1e fa          	endbr64 
   4:	55                   	push   %rbp
   5:	48 89 e5             	mov    %rsp,%rbp
   8:	48 83 ec 20          	sub    $0x20,%rsp
   c:	48 89 7d f8          	mov    %rdi,-0x8(%rbp)
  10:	48 89 75 f0          	mov    %rsi,-0x10(%rbp)
  14:	48 89 55 e8          	mov    %rdx,-0x18(%rbp)
  18:	48 8b 55 f0          	mov    -0x10(%rbp),%rdx
  1c:	48 8b 45 f8          	mov    -0x8(%rbp),%rax
  20:	48 89 d6             	mov    %rdx,%rsi
  23:	48 89 c7             	mov    %rax,%rdi
  26:	e8 00 00 00 00       	callq  2b <_ZSt8_DestroyIPSt6vectorINSt7__cxx1112basic_stringIcSt11char_traitsIcESaIcEEESaIS6_EES8_EvT_SA_RSaIT0_E+0x2b>
  2b:	90                   	nop
  2c:	c9                   	leaveq 
  2d:	c3                   	retq   

Disassembly of section .text._ZNSaINSt7__cxx1112basic_stringIcSt11char_traitsIcESaIcEEEEC2Ev:

0000000000000000 <_ZNSaINSt7__cxx1112basic_stringIcSt11char_traitsIcESaIcEEEEC1Ev>:
   0:	f3 0f 1e fa          	endbr64 
   4:	55                   	push   %rbp
   5:	48 89 e5             	mov    %rsp,%rbp
   8:	48 83 ec 10          	sub    $0x10,%rsp
   c:	48 89 7d f8          	mov    %rdi,-0x8(%rbp)
  10:	48 8b 45 f8          	mov    -0x8(%rbp),%rax
  14:	48 89 c7             	mov    %rax,%rdi
  17:	e8 00 00 00 00       	callq  1c <_ZNSaINSt7__cxx1112basic_stringIcSt11char_traitsIcESaIcEEEEC1Ev+0x1c>
  1c:	90                   	nop
  1d:	c9                   	leaveq 
  1e:	c3                   	retq   

Disassembly of section .text._ZNSt12_Vector_baseINSt7__cxx1112basic_stringIcSt11char_traitsIcESaIcEEESaIS5_EE17_Vector_impl_dataC2Ev:

0000000000000000 <_ZNSt12_Vector_baseINSt7__cxx1112basic_stringIcSt11char_traitsIcESaIcEEESaIS5_EE17_Vector_impl_dataC1Ev>:
   0:	f3 0f 1e fa          	endbr64 
   4:	55                   	push   %rbp
   5:	48 89 e5             	mov    %rsp,%rbp
   8:	48 89 7d f8          	mov    %rdi,-0x8(%rbp)
   c:	48 8b 45 f8          	mov    -0x8(%rbp),%rax
  10:	48 c7 00 00 00 00 00 	movq   $0x0,(%rax)
  17:	48 8b 45 f8          	mov    -0x8(%rbp),%rax
  1b:	48 c7 40 08 00 00 00 	movq   $0x0,0x8(%rax)
  22:	00 
  23:	48 8b 45 f8          	mov    -0x8(%rbp),%rax
  27:	48 c7 40 10 00 00 00 	movq   $0x0,0x10(%rax)
  2e:	00 
  2f:	90                   	nop
  30:	5d                   	pop    %rbp
  31:	c3                   	retq   

Disassembly of section .text._ZN9__gnu_cxx13new_allocatorINSt7__cxx1112basic_stringIcSt11char_traitsIcESaIcEEEED2Ev:

0000000000000000 <_ZN9__gnu_cxx13new_allocatorINSt7__cxx1112basic_stringIcSt11char_traitsIcESaIcEEEED1Ev>:
   0:	f3 0f 1e fa          	endbr64 
   4:	55                   	push   %rbp
   5:	48 89 e5             	mov    %rsp,%rbp
   8:	48 89 7d f8          	mov    %rdi,-0x8(%rbp)
   c:	90                   	nop
   d:	5d                   	pop    %rbp
   e:	c3                   	retq   

Disassembly of section .text._ZNSt12_Vector_baseINSt7__cxx1112basic_stringIcSt11char_traitsIcESaIcEEESaIS5_EE13_M_deallocateEPS5_m:

0000000000000000 <_ZNSt12_Vector_baseINSt7__cxx1112basic_stringIcSt11char_traitsIcESaIcEEESaIS5_EE13_M_deallocateEPS5_m>:
   0:	f3 0f 1e fa          	endbr64 
   4:	55                   	push   %rbp
   5:	48 89 e5             	mov    %rsp,%rbp
   8:	48 83 ec 20          	sub    $0x20,%rsp
   c:	48 89 7d f8          	mov    %rdi,-0x8(%rbp)
  10:	48 89 75 f0          	mov    %rsi,-0x10(%rbp)
  14:	48 89 55 e8          	mov    %rdx,-0x18(%rbp)
  18:	48 83 7d f0 00       	cmpq   $0x0,-0x10(%rbp)
  1d:	74 17                	je     36 <_ZNSt12_Vector_baseINSt7__cxx1112basic_stringIcSt11char_traitsIcESaIcEEESaIS5_EE13_M_deallocateEPS5_m+0x36>
  1f:	48 8b 45 f8          	mov    -0x8(%rbp),%rax
  23:	48 8b 55 e8          	mov    -0x18(%rbp),%rdx
  27:	48 8b 4d f0          	mov    -0x10(%rbp),%rcx
  2b:	48 89 ce             	mov    %rcx,%rsi
  2e:	48 89 c7             	mov    %rax,%rdi
  31:	e8 00 00 00 00       	callq  36 <_ZNSt12_Vector_baseINSt7__cxx1112basic_stringIcSt11char_traitsIcESaIcEEESaIS5_EE13_M_deallocateEPS5_m+0x36>
  36:	90                   	nop
  37:	c9                   	leaveq 
  38:	c3                   	retq   

Disassembly of section .text._ZNSt12_Vector_baseINSt7__cxx1112basic_stringIcSt11char_traitsIcESaIcEEESaIS5_EE19_M_get_Tp_allocatorEv:

0000000000000000 <_ZNSt12_Vector_baseINSt7__cxx1112basic_stringIcSt11char_traitsIcESaIcEEESaIS5_EE19_M_get_Tp_allocatorEv>:
   0:	f3 0f 1e fa          	endbr64 
   4:	55                   	push   %rbp
   5:	48 89 e5             	mov    %rsp,%rbp
   8:	48 89 7d f8          	mov    %rdi,-0x8(%rbp)
   c:	48 8b 45 f8          	mov    -0x8(%rbp),%rax
  10:	5d                   	pop    %rbp
  11:	c3                   	retq   

Disassembly of section .text._ZSt8_DestroyIPNSt7__cxx1112basic_stringIcSt11char_traitsIcESaIcEEES5_EvT_S7_RSaIT0_E:

0000000000000000 <_ZSt8_DestroyIPNSt7__cxx1112basic_stringIcSt11char_traitsIcESaIcEEES5_EvT_S7_RSaIT0_E>:
   0:	f3 0f 1e fa          	endbr64 
   4:	55                   	push   %rbp
   5:	48 89 e5             	mov    %rsp,%rbp
   8:	48 83 ec 20          	sub    $0x20,%rsp
   c:	48 89 7d f8          	mov    %rdi,-0x8(%rbp)
  10:	48 89 75 f0          	mov    %rsi,-0x10(%rbp)
  14:	48 89 55 e8          	mov    %rdx,-0x18(%rbp)
  18:	48 8b 55 f0          	mov    -0x10(%rbp),%rdx
  1c:	48 8b 45 f8          	mov    -0x8(%rbp),%rax
  20:	48 89 d6             	mov    %rdx,%rsi
  23:	48 89 c7             	mov    %rax,%rdi
  26:	e8 00 00 00 00       	callq  2b <_ZSt8_DestroyIPNSt7__cxx1112basic_stringIcSt11char_traitsIcESaIcEEES5_EvT_S7_RSaIT0_E+0x2b>
  2b:	90                   	nop
  2c:	c9                   	leaveq 
  2d:	c3                   	retq   

Disassembly of section .text._ZNSt16allocator_traitsISaINSt7__cxx1112basic_stringIcSt11char_traitsIcESaIcEEEEE9constructIS5_JRKS5_EEEvRS6_PT_DpOT0_:

0000000000000000 <_ZNSt16allocator_traitsISaINSt7__cxx1112basic_stringIcSt11char_traitsIcESaIcEEEEE9constructIS5_JRKS5_EEEvRS6_PT_DpOT0_>:
   0:	f3 0f 1e fa          	endbr64 
   4:	55                   	push   %rbp
   5:	48 89 e5             	mov    %rsp,%rbp
   8:	48 83 ec 20          	sub    $0x20,%rsp
   c:	48 89 7d f8          	mov    %rdi,-0x8(%rbp)
  10:	48 89 75 f0          	mov    %rsi,-0x10(%rbp)
  14:	48 89 55 e8          	mov    %rdx,-0x18(%rbp)
  18:	48 8b 45 e8          	mov    -0x18(%rbp),%rax
  1c:	48 89 c7             	mov    %rax,%rdi
  1f:	e8 00 00 00 00       	callq  24 <_ZNSt16allocator_traitsISaINSt7__cxx1112basic_stringIcSt11char_traitsIcESaIcEEEEE9constructIS5_JRKS5_EEEvRS6_PT_DpOT0_+0x24>
  24:	48 89 c2             	mov    %rax,%rdx
  27:	48 8b 4d f0          	mov    -0x10(%rbp),%rcx
  2b:	48 8b 45 f8          	mov    -0x8(%rbp),%rax
  2f:	48 89 ce             	mov    %rcx,%rsi
  32:	48 89 c7             	mov    %rax,%rdi
  35:	e8 00 00 00 00       	callq  3a <_ZNSt16allocator_traitsISaINSt7__cxx1112basic_stringIcSt11char_traitsIcESaIcEEEEE9constructIS5_JRKS5_EEEvRS6_PT_DpOT0_+0x3a>
  3a:	90                   	nop
  3b:	c9                   	leaveq 
  3c:	c3                   	retq   

Disassembly of section .text._ZNSt6vectorINSt7__cxx1112basic_stringIcSt11char_traitsIcESaIcEEESaIS5_EE3endEv:

0000000000000000 <_ZNSt6vectorINSt7__cxx1112basic_stringIcSt11char_traitsIcESaIcEEESaIS5_EE3endEv>:
   0:	f3 0f 1e fa          	endbr64 
   4:	55                   	push   %rbp
   5:	48 89 e5             	mov    %rsp,%rbp
   8:	48 83 ec 20          	sub    $0x20,%rsp
   c:	48 89 7d e8          	mov    %rdi,-0x18(%rbp)
  10:	64 48 8b 04 25 28 00 	mov    %fs:0x28,%rax
  17:	00 00 
  19:	48 89 45 f8          	mov    %rax,-0x8(%rbp)
  1d:	31 c0                	xor    %eax,%eax
  1f:	48 8b 45 e8          	mov    -0x18(%rbp),%rax
  23:	48 8d 50 08          	lea    0x8(%rax),%rdx
  27:	48 8d 45 f0          	lea    -0x10(%rbp),%rax
  2b:	48 89 d6             	mov    %rdx,%rsi
  2e:	48 89 c7             	mov    %rax,%rdi
  31:	e8 00 00 00 00       	callq  36 <_ZNSt6vectorINSt7__cxx1112basic_stringIcSt11char_traitsIcESaIcEEESaIS5_EE3endEv+0x36>
  36:	48 8b 45 f0          	mov    -0x10(%rbp),%rax
  3a:	48 8b 4d f8          	mov    -0x8(%rbp),%rcx
  3e:	64 48 33 0c 25 28 00 	xor    %fs:0x28,%rcx
  45:	00 00 
  47:	74 05                	je     4e <_ZNSt6vectorINSt7__cxx1112basic_stringIcSt11char_traitsIcESaIcEEESaIS5_EE3endEv+0x4e>
  49:	e8 00 00 00 00       	callq  4e <_ZNSt6vectorINSt7__cxx1112basic_stringIcSt11char_traitsIcESaIcEEESaIS5_EE3endEv+0x4e>
  4e:	c9                   	leaveq 
  4f:	c3                   	retq   

Disassembly of section .text._ZNSt6vectorINSt7__cxx1112basic_stringIcSt11char_traitsIcESaIcEEESaIS5_EE15_S_use_relocateEv:

0000000000000000 <_ZNSt6vectorINSt7__cxx1112basic_stringIcSt11char_traitsIcESaIcEEESaIS5_EE15_S_use_relocateEv>:
   0:	f3 0f 1e fa          	endbr64 
   4:	55                   	push   %rbp
   5:	48 89 e5             	mov    %rsp,%rbp
   8:	48 83 ec 10          	sub    $0x10,%rsp
   c:	64 48 8b 04 25 28 00 	mov    %fs:0x28,%rax
  13:	00 00 
  15:	48 89 45 f8          	mov    %rax,-0x8(%rbp)
  19:	31 c0                	xor    %eax,%eax
  1b:	e8 00 00 00 00       	callq  20 <_ZNSt6vectorINSt7__cxx1112basic_stringIcSt11char_traitsIcESaIcEEESaIS5_EE15_S_use_relocateEv+0x20>
  20:	48 8b 55 f8          	mov    -0x8(%rbp),%rdx
  24:	64 48 33 14 25 28 00 	xor    %fs:0x28,%rdx
  2b:	00 00 
  2d:	74 05                	je     34 <_ZNSt6vectorINSt7__cxx1112basic_stringIcSt11char_traitsIcESaIcEEESaIS5_EE15_S_use_relocateEv+0x34>
  2f:	e8 00 00 00 00       	callq  34 <_ZNSt6vectorINSt7__cxx1112basic_stringIcSt11char_traitsIcESaIcEEESaIS5_EE15_S_use_relocateEv+0x34>
  34:	c9                   	leaveq 
  35:	c3                   	retq   

Disassembly of section .text._ZNSt6vectorINSt7__cxx1112basic_stringIcSt11char_traitsIcESaIcEEESaIS5_EE19_S_nothrow_relocateESt17integral_constantIbLb1EE:

0000000000000000 <_ZNSt6vectorINSt7__cxx1112basic_stringIcSt11char_traitsIcESaIcEEESaIS5_EE19_S_nothrow_relocateESt17integral_constantIbLb1EE>:
   0:	f3 0f 1e fa          	endbr64 
   4:	55                   	push   %rbp
   5:	48 89 e5             	mov    %rsp,%rbp
   8:	b8 01 00 00 00       	mov    $0x1,%eax
   d:	5d                   	pop    %rbp
   e:	c3                   	retq   

Disassembly of section .text._ZNSt6vectorINSt7__cxx1112basic_stringIcSt11char_traitsIcESaIcEEESaIS5_EE17_M_realloc_insertIJRKS5_EEEvN9__gnu_cxx17__normal_iteratorIPS5_S7_EEDpOT_:

0000000000000000 <_ZNSt6vectorINSt7__cxx1112basic_stringIcSt11char_traitsIcESaIcEEESaIS5_EE17_M_realloc_insertIJRKS5_EEEvN9__gnu_cxx17__normal_iteratorIPS5_S7_EEDpOT_>:
   0:	f3 0f 1e fa          	endbr64 
   4:	55                   	push   %rbp
   5:	48 89 e5             	mov    %rsp,%rbp
   8:	53                   	push   %rbx
   9:	48 83 ec 68          	sub    $0x68,%rsp
   d:	48 89 7d a8          	mov    %rdi,-0x58(%rbp)
  11:	48 89 75 a0          	mov    %rsi,-0x60(%rbp)
  15:	48 89 55 98          	mov    %rdx,-0x68(%rbp)
  19:	64 48 8b 04 25 28 00 	mov    %fs:0x28,%rax
  20:	00 00 
  22:	48 89 45 e8          	mov    %rax,-0x18(%rbp)
  26:	31 c0                	xor    %eax,%eax
  28:	48 8b 45 a8          	mov    -0x58(%rbp),%rax
  2c:	48 8d 15 00 00 00 00 	lea    0x0(%rip),%rdx        # 33 <_ZNSt6vectorINSt7__cxx1112basic_stringIcSt11char_traitsIcESaIcEEESaIS5_EE17_M_realloc_insertIJRKS5_EEEvN9__gnu_cxx17__normal_iteratorIPS5_S7_EEDpOT_+0x33>
  33:	be 01 00 00 00       	mov    $0x1,%esi
  38:	48 89 c7             	mov    %rax,%rdi
  3b:	e8 00 00 00 00       	callq  40 <_ZNSt6vectorINSt7__cxx1112basic_stringIcSt11char_traitsIcESaIcEEESaIS5_EE17_M_realloc_insertIJRKS5_EEEvN9__gnu_cxx17__normal_iteratorIPS5_S7_EEDpOT_+0x40>
  40:	48 89 45 c0          	mov    %rax,-0x40(%rbp)
  44:	48 8b 45 a8          	mov    -0x58(%rbp),%rax
  48:	48 8b 00             	mov    (%rax),%rax
  4b:	48 89 45 c8          	mov    %rax,-0x38(%rbp)
  4f:	48 8b 45 a8          	mov    -0x58(%rbp),%rax
  53:	48 8b 40 08          	mov    0x8(%rax),%rax
  57:	48 89 45 d0          	mov    %rax,-0x30(%rbp)
  5b:	48 8b 45 a8          	mov    -0x58(%rbp),%rax
  5f:	48 89 c7             	mov    %rax,%rdi
  62:	e8 00 00 00 00       	callq  67 <_ZNSt6vectorINSt7__cxx1112basic_stringIcSt11char_traitsIcESaIcEEESaIS5_EE17_M_realloc_insertIJRKS5_EEEvN9__gnu_cxx17__normal_iteratorIPS5_S7_EEDpOT_+0x67>
  67:	48 89 45 b0          	mov    %rax,-0x50(%rbp)
  6b:	48 8d 55 b0          	lea    -0x50(%rbp),%rdx
  6f:	48 8d 45 a0          	lea    -0x60(%rbp),%rax
  73:	48 89 d6             	mov    %rdx,%rsi
  76:	48 89 c7             	mov    %rax,%rdi
  79:	e8 00 00 00 00       	callq  7e <_ZNSt6vectorINSt7__cxx1112basic_stringIcSt11char_traitsIcESaIcEEESaIS5_EE17_M_realloc_insertIJRKS5_EEEvN9__gnu_cxx17__normal_iteratorIPS5_S7_EEDpOT_+0x7e>
  7e:	48 89 45 d8          	mov    %rax,-0x28(%rbp)
  82:	48 8b 45 a8          	mov    -0x58(%rbp),%rax
  86:	48 8b 55 c0          	mov    -0x40(%rbp),%rdx
  8a:	48 89 d6             	mov    %rdx,%rsi
  8d:	48 89 c7             	mov    %rax,%rdi
  90:	e8 00 00 00 00       	callq  95 <_ZNSt6vectorINSt7__cxx1112basic_stringIcSt11char_traitsIcESaIcEEESaIS5_EE17_M_realloc_insertIJRKS5_EEEvN9__gnu_cxx17__normal_iteratorIPS5_S7_EEDpOT_+0x95>
  95:	48 89 45 e0          	mov    %rax,-0x20(%rbp)
  99:	48 8b 45 e0          	mov    -0x20(%rbp),%rax
  9d:	48 89 45 b8          	mov    %rax,-0x48(%rbp)
  a1:	48 8b 45 98          	mov    -0x68(%rbp),%rax
  a5:	48 89 c7             	mov    %rax,%rdi
  a8:	e8 00 00 00 00       	callq  ad <_ZNSt6vectorINSt7__cxx1112basic_stringIcSt11char_traitsIcESaIcEEESaIS5_EE17_M_realloc_insertIJRKS5_EEEvN9__gnu_cxx17__normal_iteratorIPS5_S7_EEDpOT_+0xad>
  ad:	48 89 c2             	mov    %rax,%rdx
  b0:	48 8b 45 d8          	mov    -0x28(%rbp),%rax
  b4:	48 c1 e0 05          	shl    $0x5,%rax
  b8:	48 89 c1             	mov    %rax,%rcx
  bb:	48 8b 45 e0          	mov    -0x20(%rbp),%rax
  bf:	48 01 c1             	add    %rax,%rcx
  c2:	48 8b 45 a8          	mov    -0x58(%rbp),%rax
  c6:	48 89 ce             	mov    %rcx,%rsi
  c9:	48 89 c7             	mov    %rax,%rdi
  cc:	e8 00 00 00 00       	callq  d1 <_ZNSt6vectorINSt7__cxx1112basic_stringIcSt11char_traitsIcESaIcEEESaIS5_EE17_M_realloc_insertIJRKS5_EEEvN9__gnu_cxx17__normal_iteratorIPS5_S7_EEDpOT_+0xd1>
  d1:	48 c7 45 b8 00 00 00 	movq   $0x0,-0x48(%rbp)
  d8:	00 
  d9:	e8 00 00 00 00       	callq  de <_ZNSt6vectorINSt7__cxx1112basic_stringIcSt11char_traitsIcESaIcEEESaIS5_EE17_M_realloc_insertIJRKS5_EEEvN9__gnu_cxx17__normal_iteratorIPS5_S7_EEDpOT_+0xde>
  de:	84 c0                	test   %al,%al
  e0:	74 71                	je     153 <_ZNSt6vectorINSt7__cxx1112basic_stringIcSt11char_traitsIcESaIcEEESaIS5_EE17_M_realloc_insertIJRKS5_EEEvN9__gnu_cxx17__normal_iteratorIPS5_S7_EEDpOT_+0x153>
  e2:	48 8b 45 a8          	mov    -0x58(%rbp),%rax
  e6:	48 89 c7             	mov    %rax,%rdi
  e9:	e8 00 00 00 00       	callq  ee <_ZNSt6vectorINSt7__cxx1112basic_stringIcSt11char_traitsIcESaIcEEESaIS5_EE17_M_realloc_insertIJRKS5_EEEvN9__gnu_cxx17__normal_iteratorIPS5_S7_EEDpOT_+0xee>
  ee:	48 89 c3             	mov    %rax,%rbx
  f1:	48 8d 45 a0          	lea    -0x60(%rbp),%rax
  f5:	48 89 c7             	mov    %rax,%rdi
  f8:	e8 00 00 00 00       	callq  fd <_ZNSt6vectorINSt7__cxx1112basic_stringIcSt11char_traitsIcESaIcEEESaIS5_EE17_M_realloc_insertIJRKS5_EEEvN9__gnu_cxx17__normal_iteratorIPS5_S7_EEDpOT_+0xfd>
  fd:	48 8b 30             	mov    (%rax),%rsi
 100:	48 8b 55 e0          	mov    -0x20(%rbp),%rdx
 104:	48 8b 45 c8          	mov    -0x38(%rbp),%rax
 108:	48 89 d9             	mov    %rbx,%rcx
 10b:	48 89 c7             	mov    %rax,%rdi
 10e:	e8 00 00 00 00       	callq  113 <_ZNSt6vectorINSt7__cxx1112basic_stringIcSt11char_traitsIcESaIcEEESaIS5_EE17_M_realloc_insertIJRKS5_EEEvN9__gnu_cxx17__normal_iteratorIPS5_S7_EEDpOT_+0x113>
 113:	48 89 45 b8          	mov    %rax,-0x48(%rbp)
 117:	48 83 45 b8 20       	addq   $0x20,-0x48(%rbp)
 11c:	48 8b 45 a8          	mov    -0x58(%rbp),%rax
 120:	48 89 c7             	mov    %rax,%rdi
 123:	e8 00 00 00 00       	callq  128 <_ZNSt6vectorINSt7__cxx1112basic_stringIcSt11char_traitsIcESaIcEEESaIS5_EE17_M_realloc_insertIJRKS5_EEEvN9__gnu_cxx17__normal_iteratorIPS5_S7_EEDpOT_+0x128>
 128:	48 89 c3             	mov    %rax,%rbx
 12b:	48 8d 45 a0          	lea    -0x60(%rbp),%rax
 12f:	48 89 c7             	mov    %rax,%rdi
 132:	e8 00 00 00 00       	callq  137 <_ZNSt6vectorINSt7__cxx1112basic_stringIcSt11char_traitsIcESaIcEEESaIS5_EE17_M_realloc_insertIJRKS5_EEEvN9__gnu_cxx17__normal_iteratorIPS5_S7_EEDpOT_+0x137>
 137:	48 8b 00             	mov    (%rax),%rax
 13a:	48 8b 55 b8          	mov    -0x48(%rbp),%rdx
 13e:	48 8b 75 d0          	mov    -0x30(%rbp),%rsi
 142:	48 89 d9             	mov    %rbx,%rcx
 145:	48 89 c7             	mov    %rax,%rdi
 148:	e8 00 00 00 00       	callq  14d <_ZNSt6vectorINSt7__cxx1112basic_stringIcSt11char_traitsIcESaIcEEESaIS5_EE17_M_realloc_insertIJRKS5_EEEvN9__gnu_cxx17__normal_iteratorIPS5_S7_EEDpOT_+0x14d>
 14d:	48 89 45 b8          	mov    %rax,-0x48(%rbp)
 151:	eb 6f                	jmp    1c2 <_ZNSt6vectorINSt7__cxx1112basic_stringIcSt11char_traitsIcESaIcEEESaIS5_EE17_M_realloc_insertIJRKS5_EEEvN9__gnu_cxx17__normal_iteratorIPS5_S7_EEDpOT_+0x1c2>
 153:	48 8b 45 a8          	mov    -0x58(%rbp),%rax
 157:	48 89 c7             	mov    %rax,%rdi
 15a:	e8 00 00 00 00       	callq  15f <_ZNSt6vectorINSt7__cxx1112basic_stringIcSt11char_traitsIcESaIcEEESaIS5_EE17_M_realloc_insertIJRKS5_EEEvN9__gnu_cxx17__normal_iteratorIPS5_S7_EEDpOT_+0x15f>
 15f:	48 89 c3             	mov    %rax,%rbx
 162:	48 8d 45 a0          	lea    -0x60(%rbp),%rax
 166:	48 89 c7             	mov    %rax,%rdi
 169:	e8 00 00 00 00       	callq  16e <_ZNSt6vectorINSt7__cxx1112basic_stringIcSt11char_traitsIcESaIcEEESaIS5_EE17_M_realloc_insertIJRKS5_EEEvN9__gnu_cxx17__normal_iteratorIPS5_S7_EEDpOT_+0x16e>
 16e:	48 8b 30             	mov    (%rax),%rsi
 171:	48 8b 55 e0          	mov    -0x20(%rbp),%rdx
 175:	48 8b 45 c8          	mov    -0x38(%rbp),%rax
 179:	48 89 d9             	mov    %rbx,%rcx
 17c:	48 89 c7             	mov    %rax,%rdi
 17f:	e8 00 00 00 00       	callq  184 <_ZNSt6vectorINSt7__cxx1112basic_stringIcSt11char_traitsIcESaIcEEESaIS5_EE17_M_realloc_insertIJRKS5_EEEvN9__gnu_cxx17__normal_iteratorIPS5_S7_EEDpOT_+0x184>
 184:	48 89 45 b8          	mov    %rax,-0x48(%rbp)
 188:	48 83 45 b8 20       	addq   $0x20,-0x48(%rbp)
 18d:	48 8b 45 a8          	mov    -0x58(%rbp),%rax
 191:	48 89 c7             	mov    %rax,%rdi
 194:	e8 00 00 00 00       	callq  199 <_ZNSt6vectorINSt7__cxx1112basic_stringIcSt11char_traitsIcESaIcEEESaIS5_EE17_M_realloc_insertIJRKS5_EEEvN9__gnu_cxx17__normal_iteratorIPS5_S7_EEDpOT_+0x199>
 199:	48 89 c3             	mov    %rax,%rbx
 19c:	48 8d 45 a0          	lea    -0x60(%rbp),%rax
 1a0:	48 89 c7             	mov    %rax,%rdi
 1a3:	e8 00 00 00 00       	callq  1a8 <_ZNSt6vectorINSt7__cxx1112basic_stringIcSt11char_traitsIcESaIcEEESaIS5_EE17_M_realloc_insertIJRKS5_EEEvN9__gnu_cxx17__normal_iteratorIPS5_S7_EEDpOT_+0x1a8>
 1a8:	48 8b 00             	mov    (%rax),%rax
 1ab:	48 8b 55 b8          	mov    -0x48(%rbp),%rdx
 1af:	48 8b 75 d0          	mov    -0x30(%rbp),%rsi
 1b3:	48 89 d9             	mov    %rbx,%rcx
 1b6:	48 89 c7             	mov    %rax,%rdi
 1b9:	e8 00 00 00 00       	callq  1be <_ZNSt6vectorINSt7__cxx1112basic_stringIcSt11char_traitsIcESaIcEEESaIS5_EE17_M_realloc_insertIJRKS5_EEEvN9__gnu_cxx17__normal_iteratorIPS5_S7_EEDpOT_+0x1be>
 1be:	48 89 45 b8          	mov    %rax,-0x48(%rbp)
 1c2:	e8 00 00 00 00       	callq  1c7 <_ZNSt6vectorINSt7__cxx1112basic_stringIcSt11char_traitsIcESaIcEEESaIS5_EE17_M_realloc_insertIJRKS5_EEEvN9__gnu_cxx17__normal_iteratorIPS5_S7_EEDpOT_+0x1c7>
 1c7:	83 f0 01             	xor    $0x1,%eax
 1ca:	84 c0                	test   %al,%al
 1cc:	74 22                	je     1f0 <_ZNSt6vectorINSt7__cxx1112basic_stringIcSt11char_traitsIcESaIcEEESaIS5_EE17_M_realloc_insertIJRKS5_EEEvN9__gnu_cxx17__normal_iteratorIPS5_S7_EEDpOT_+0x1f0>
 1ce:	48 8b 45 a8          	mov    -0x58(%rbp),%rax
 1d2:	48 89 c7             	mov    %rax,%rdi
 1d5:	e8 00 00 00 00       	callq  1da <_ZNSt6vectorINSt7__cxx1112basic_stringIcSt11char_traitsIcESaIcEEESaIS5_EE17_M_realloc_insertIJRKS5_EEEvN9__gnu_cxx17__normal_iteratorIPS5_S7_EEDpOT_+0x1da>
 1da:	48 89 c2             	mov    %rax,%rdx
 1dd:	48 8b 4d d0          	mov    -0x30(%rbp),%rcx
 1e1:	48 8b 45 c8          	mov    -0x38(%rbp),%rax
 1e5:	48 89 ce             	mov    %rcx,%rsi
 1e8:	48 89 c7             	mov    %rax,%rdi
 1eb:	e8 00 00 00 00       	callq  1f0 <_ZNSt6vectorINSt7__cxx1112basic_stringIcSt11char_traitsIcESaIcEEESaIS5_EE17_M_realloc_insertIJRKS5_EEEvN9__gnu_cxx17__normal_iteratorIPS5_S7_EEDpOT_+0x1f0>
 1f0:	48 8b 45 a8          	mov    -0x58(%rbp),%rax
 1f4:	48 8b 55 a8          	mov    -0x58(%rbp),%rdx
 1f8:	48 8b 52 10          	mov    0x10(%rdx),%rdx
 1fc:	48 2b 55 c8          	sub    -0x38(%rbp),%rdx
 200:	48 c1 fa 05          	sar    $0x5,%rdx
 204:	48 8b 4d c8          	mov    -0x38(%rbp),%rcx
 208:	48 89 ce             	mov    %rcx,%rsi
 20b:	48 89 c7             	mov    %rax,%rdi
 20e:	e8 00 00 00 00       	callq  213 <_ZNSt6vectorINSt7__cxx1112basic_stringIcSt11char_traitsIcESaIcEEESaIS5_EE17_M_realloc_insertIJRKS5_EEEvN9__gnu_cxx17__normal_iteratorIPS5_S7_EEDpOT_+0x213>
 213:	48 8b 45 a8          	mov    -0x58(%rbp),%rax
 217:	48 8b 55 e0          	mov    -0x20(%rbp),%rdx
 21b:	48 89 10             	mov    %rdx,(%rax)
 21e:	48 8b 45 a8          	mov    -0x58(%rbp),%rax
 222:	48 8b 55 b8          	mov    -0x48(%rbp),%rdx
 226:	48 89 50 08          	mov    %rdx,0x8(%rax)
 22a:	48 8b 45 c0          	mov    -0x40(%rbp),%rax
 22e:	48 c1 e0 05          	shl    $0x5,%rax
 232:	48 89 c2             	mov    %rax,%rdx
 235:	48 8b 45 e0          	mov    -0x20(%rbp),%rax
 239:	48 01 c2             	add    %rax,%rdx
 23c:	48 8b 45 a8          	mov    -0x58(%rbp),%rax
 240:	48 89 50 10          	mov    %rdx,0x10(%rax)
 244:	90                   	nop
 245:	48 8b 45 e8          	mov    -0x18(%rbp),%rax
 249:	64 48 33 04 25 28 00 	xor    %fs:0x28,%rax
 250:	00 00 
 252:	0f 84 95 00 00 00    	je     2ed <_ZNSt6vectorINSt7__cxx1112basic_stringIcSt11char_traitsIcESaIcEEESaIS5_EE17_M_realloc_insertIJRKS5_EEEvN9__gnu_cxx17__normal_iteratorIPS5_S7_EEDpOT_+0x2ed>
 258:	e9 8b 00 00 00       	jmpq   2e8 <_ZNSt6vectorINSt7__cxx1112basic_stringIcSt11char_traitsIcESaIcEEESaIS5_EE17_M_realloc_insertIJRKS5_EEEvN9__gnu_cxx17__normal_iteratorIPS5_S7_EEDpOT_+0x2e8>
 25d:	f3 0f 1e fa          	endbr64 
 261:	48 89 c7             	mov    %rax,%rdi
 264:	e8 00 00 00 00       	callq  269 <_ZNSt6vectorINSt7__cxx1112basic_stringIcSt11char_traitsIcESaIcEEESaIS5_EE17_M_realloc_insertIJRKS5_EEEvN9__gnu_cxx17__normal_iteratorIPS5_S7_EEDpOT_+0x269>
 269:	48 83 7d b8 00       	cmpq   $0x0,-0x48(%rbp)
 26e:	75 23                	jne    293 <_ZNSt6vectorINSt7__cxx1112basic_stringIcSt11char_traitsIcESaIcEEESaIS5_EE17_M_realloc_insertIJRKS5_EEEvN9__gnu_cxx17__normal_iteratorIPS5_S7_EEDpOT_+0x293>
 270:	48 8b 45 d8          	mov    -0x28(%rbp),%rax
 274:	48 c1 e0 05          	shl    $0x5,%rax
 278:	48 89 c2             	mov    %rax,%rdx
 27b:	48 8b 45 e0          	mov    -0x20(%rbp),%rax
 27f:	48 01 c2             	add    %rax,%rdx
 282:	48 8b 45 a8          	mov    -0x58(%rbp),%rax
 286:	48 89 d6             	mov    %rdx,%rsi
 289:	48 89 c7             	mov    %rax,%rdi
 28c:	e8 00 00 00 00       	callq  291 <_ZNSt6vectorINSt7__cxx1112basic_stringIcSt11char_traitsIcESaIcEEESaIS5_EE17_M_realloc_insertIJRKS5_EEEvN9__gnu_cxx17__normal_iteratorIPS5_S7_EEDpOT_+0x291>
 291:	eb 22                	jmp    2b5 <_ZNSt6vectorINSt7__cxx1112basic_stringIcSt11char_traitsIcESaIcEEESaIS5_EE17_M_realloc_insertIJRKS5_EEEvN9__gnu_cxx17__normal_iteratorIPS5_S7_EEDpOT_+0x2b5>
 293:	48 8b 45 a8          	mov    -0x58(%rbp),%rax
 297:	48 89 c7             	mov    %rax,%rdi
 29a:	e8 00 00 00 00       	callq  29f <_ZNSt6vectorINSt7__cxx1112basic_stringIcSt11char_traitsIcESaIcEEESaIS5_EE17_M_realloc_insertIJRKS5_EEEvN9__gnu_cxx17__normal_iteratorIPS5_S7_EEDpOT_+0x29f>
 29f:	48 89 c2             	mov    %rax,%rdx
 2a2:	48 8b 4d b8          	mov    -0x48(%rbp),%rcx
 2a6:	48 8b 45 e0          	mov    -0x20(%rbp),%rax
 2aa:	48 89 ce             	mov    %rcx,%rsi
 2ad:	48 89 c7             	mov    %rax,%rdi
 2b0:	e8 00 00 00 00       	callq  2b5 <_ZNSt6vectorINSt7__cxx1112basic_stringIcSt11char_traitsIcESaIcEEESaIS5_EE17_M_realloc_insertIJRKS5_EEEvN9__gnu_cxx17__normal_iteratorIPS5_S7_EEDpOT_+0x2b5>
 2b5:	48 8b 45 a8          	mov    -0x58(%rbp),%rax
 2b9:	48 8b 55 c0          	mov    -0x40(%rbp),%rdx
 2bd:	48 8b 4d e0          	mov    -0x20(%rbp),%rcx
 2c1:	48 89 ce             	mov    %rcx,%rsi
 2c4:	48 89 c7             	mov    %rax,%rdi
 2c7:	e8 00 00 00 00       	callq  2cc <_ZNSt6vectorINSt7__cxx1112basic_stringIcSt11char_traitsIcESaIcEEESaIS5_EE17_M_realloc_insertIJRKS5_EEEvN9__gnu_cxx17__normal_iteratorIPS5_S7_EEDpOT_+0x2cc>
 2cc:	e8 00 00 00 00       	callq  2d1 <_ZNSt6vectorINSt7__cxx1112basic_stringIcSt11char_traitsIcESaIcEEESaIS5_EE17_M_realloc_insertIJRKS5_EEEvN9__gnu_cxx17__normal_iteratorIPS5_S7_EEDpOT_+0x2d1>
 2d1:	f3 0f 1e fa          	endbr64 
 2d5:	48 89 c3             	mov    %rax,%rbx
 2d8:	e8 00 00 00 00       	callq  2dd <_ZNSt6vectorINSt7__cxx1112basic_stringIcSt11char_traitsIcESaIcEEESaIS5_EE17_M_realloc_insertIJRKS5_EEEvN9__gnu_cxx17__normal_iteratorIPS5_S7_EEDpOT_+0x2dd>
 2dd:	48 89 d8             	mov    %rbx,%rax
 2e0:	48 89 c7             	mov    %rax,%rdi
 2e3:	e8 00 00 00 00       	callq  2e8 <_ZNSt6vectorINSt7__cxx1112basic_stringIcSt11char_traitsIcESaIcEEESaIS5_EE17_M_realloc_insertIJRKS5_EEEvN9__gnu_cxx17__normal_iteratorIPS5_S7_EEDpOT_+0x2e8>
 2e8:	e8 00 00 00 00       	callq  2ed <_ZNSt6vectorINSt7__cxx1112basic_stringIcSt11char_traitsIcESaIcEEESaIS5_EE17_M_realloc_insertIJRKS5_EEEvN9__gnu_cxx17__normal_iteratorIPS5_S7_EEDpOT_+0x2ed>
 2ed:	48 83 c4 68          	add    $0x68,%rsp
 2f1:	5b                   	pop    %rbx
 2f2:	5d                   	pop    %rbp
 2f3:	c3                   	retq   

Disassembly of section .text._ZNSt6vectorINSt7__cxx1112basic_stringIcSt11char_traitsIcESaIcEEESaIS5_EE12emplace_backIJS5_EEEvDpOT_:

0000000000000000 <_ZNSt6vectorINSt7__cxx1112basic_stringIcSt11char_traitsIcESaIcEEESaIS5_EE12emplace_backIJS5_EEEvDpOT_>:
   0:	f3 0f 1e fa          	endbr64 
   4:	55                   	push   %rbp
   5:	48 89 e5             	mov    %rsp,%rbp
   8:	53                   	push   %rbx
   9:	48 83 ec 18          	sub    $0x18,%rsp
   d:	48 89 7d e8          	mov    %rdi,-0x18(%rbp)
  11:	48 89 75 e0          	mov    %rsi,-0x20(%rbp)
  15:	48 8b 45 e8          	mov    -0x18(%rbp),%rax
  19:	48 8b 50 08          	mov    0x8(%rax),%rdx
  1d:	48 8b 45 e8          	mov    -0x18(%rbp),%rax
  21:	48 8b 40 10          	mov    0x10(%rax),%rax
  25:	48 39 c2             	cmp    %rax,%rdx
  28:	74 3c                	je     66 <_ZNSt6vectorINSt7__cxx1112basic_stringIcSt11char_traitsIcESaIcEEESaIS5_EE12emplace_backIJS5_EEEvDpOT_+0x66>
  2a:	48 8b 45 e0          	mov    -0x20(%rbp),%rax
  2e:	48 89 c7             	mov    %rax,%rdi
  31:	e8 00 00 00 00       	callq  36 <_ZNSt6vectorINSt7__cxx1112basic_stringIcSt11char_traitsIcESaIcEEESaIS5_EE12emplace_backIJS5_EEEvDpOT_+0x36>
  36:	48 89 c2             	mov    %rax,%rdx
  39:	48 8b 45 e8          	mov    -0x18(%rbp),%rax
  3d:	48 8b 48 08          	mov    0x8(%rax),%rcx
  41:	48 8b 45 e8          	mov    -0x18(%rbp),%rax
  45:	48 89 ce             	mov    %rcx,%rsi
  48:	48 89 c7             	mov    %rax,%rdi
  4b:	e8 00 00 00 00       	callq  50 <_ZNSt6vectorINSt7__cxx1112basic_stringIcSt11char_traitsIcESaIcEEESaIS5_EE12emplace_backIJS5_EEEvDpOT_+0x50>
  50:	48 8b 45 e8          	mov    -0x18(%rbp),%rax
  54:	48 8b 40 08          	mov    0x8(%rax),%rax
  58:	48 8d 50 20          	lea    0x20(%rax),%rdx
  5c:	48 8b 45 e8          	mov    -0x18(%rbp),%rax
  60:	48 89 50 08          	mov    %rdx,0x8(%rax)
  64:	eb 30                	jmp    96 <_ZNSt6vectorINSt7__cxx1112basic_stringIcSt11char_traitsIcESaIcEEESaIS5_EE12emplace_backIJS5_EEEvDpOT_+0x96>
  66:	48 8b 45 e0          	mov    -0x20(%rbp),%rax
  6a:	48 89 c7             	mov    %rax,%rdi
  6d:	e8 00 00 00 00       	callq  72 <_ZNSt6vectorINSt7__cxx1112basic_stringIcSt11char_traitsIcESaIcEEESaIS5_EE12emplace_backIJS5_EEEvDpOT_+0x72>
  72:	48 89 c3             	mov    %rax,%rbx
  75:	48 8b 45 e8          	mov    -0x18(%rbp),%rax
  79:	48 89 c7             	mov    %rax,%rdi
  7c:	e8 00 00 00 00       	callq  81 <_ZNSt6vectorINSt7__cxx1112basic_stringIcSt11char_traitsIcESaIcEEESaIS5_EE12emplace_backIJS5_EEEvDpOT_+0x81>
  81:	48 89 c1             	mov    %rax,%rcx
  84:	48 8b 45 e8          	mov    -0x18(%rbp),%rax
  88:	48 89 da             	mov    %rbx,%rdx
  8b:	48 89 ce             	mov    %rcx,%rsi
  8e:	48 89 c7             	mov    %rax,%rdi
  91:	e8 00 00 00 00       	callq  96 <_ZNSt6vectorINSt7__cxx1112basic_stringIcSt11char_traitsIcESaIcEEESaIS5_EE12emplace_backIJS5_EEEvDpOT_+0x96>
  96:	90                   	nop
  97:	48 83 c4 18          	add    $0x18,%rsp
  9b:	5b                   	pop    %rbx
  9c:	5d                   	pop    %rbp
  9d:	c3                   	retq   

Disassembly of section .text._ZNSt16allocator_traitsISaISt6vectorINSt7__cxx1112basic_stringIcSt11char_traitsIcESaIcEEESaIS6_EEEE9constructIS8_JRKS8_EEEvRS9_PT_DpOT0_:

0000000000000000 <_ZNSt16allocator_traitsISaISt6vectorINSt7__cxx1112basic_stringIcSt11char_traitsIcESaIcEEESaIS6_EEEE9constructIS8_JRKS8_EEEvRS9_PT_DpOT0_>:
   0:	f3 0f 1e fa          	endbr64 
   4:	55                   	push   %rbp
   5:	48 89 e5             	mov    %rsp,%rbp
   8:	48 83 ec 20          	sub    $0x20,%rsp
   c:	48 89 7d f8          	mov    %rdi,-0x8(%rbp)
  10:	48 89 75 f0          	mov    %rsi,-0x10(%rbp)
  14:	48 89 55 e8          	mov    %rdx,-0x18(%rbp)
  18:	48 8b 45 e8          	mov    -0x18(%rbp),%rax
  1c:	48 89 c7             	mov    %rax,%rdi
  1f:	e8 00 00 00 00       	callq  24 <_ZNSt16allocator_traitsISaISt6vectorINSt7__cxx1112basic_stringIcSt11char_traitsIcESaIcEEESaIS6_EEEE9constructIS8_JRKS8_EEEvRS9_PT_DpOT0_+0x24>
  24:	48 89 c2             	mov    %rax,%rdx
  27:	48 8b 4d f0          	mov    -0x10(%rbp),%rcx
  2b:	48 8b 45 f8          	mov    -0x8(%rbp),%rax
  2f:	48 89 ce             	mov    %rcx,%rsi
  32:	48 89 c7             	mov    %rax,%rdi
  35:	e8 00 00 00 00       	callq  3a <_ZNSt16allocator_traitsISaISt6vectorINSt7__cxx1112basic_stringIcSt11char_traitsIcESaIcEEESaIS6_EEEE9constructIS8_JRKS8_EEEvRS9_PT_DpOT0_+0x3a>
  3a:	90                   	nop
  3b:	c9                   	leaveq 
  3c:	c3                   	retq   

Disassembly of section .text._ZNSt6vectorIS_INSt7__cxx1112basic_stringIcSt11char_traitsIcESaIcEEESaIS5_EESaIS7_EE3endEv:

0000000000000000 <_ZNSt6vectorIS_INSt7__cxx1112basic_stringIcSt11char_traitsIcESaIcEEESaIS5_EESaIS7_EE3endEv>:
   0:	f3 0f 1e fa          	endbr64 
   4:	55                   	push   %rbp
   5:	48 89 e5             	mov    %rsp,%rbp
   8:	48 83 ec 20          	sub    $0x20,%rsp
   c:	48 89 7d e8          	mov    %rdi,-0x18(%rbp)
  10:	64 48 8b 04 25 28 00 	mov    %fs:0x28,%rax
  17:	00 00 
  19:	48 89 45 f8          	mov    %rax,-0x8(%rbp)
  1d:	31 c0                	xor    %eax,%eax
  1f:	48 8b 45 e8          	mov    -0x18(%rbp),%rax
  23:	48 8d 50 08          	lea    0x8(%rax),%rdx
  27:	48 8d 45 f0          	lea    -0x10(%rbp),%rax
  2b:	48 89 d6             	mov    %rdx,%rsi
  2e:	48 89 c7             	mov    %rax,%rdi
  31:	e8 00 00 00 00       	callq  36 <_ZNSt6vectorIS_INSt7__cxx1112basic_stringIcSt11char_traitsIcESaIcEEESaIS5_EESaIS7_EE3endEv+0x36>
  36:	48 8b 45 f0          	mov    -0x10(%rbp),%rax
  3a:	48 8b 4d f8          	mov    -0x8(%rbp),%rcx
  3e:	64 48 33 0c 25 28 00 	xor    %fs:0x28,%rcx
  45:	00 00 
  47:	74 05                	je     4e <_ZNSt6vectorIS_INSt7__cxx1112basic_stringIcSt11char_traitsIcESaIcEEESaIS5_EESaIS7_EE3endEv+0x4e>
  49:	e8 00 00 00 00       	callq  4e <_ZNSt6vectorIS_INSt7__cxx1112basic_stringIcSt11char_traitsIcESaIcEEESaIS5_EESaIS7_EE3endEv+0x4e>
  4e:	c9                   	leaveq 
  4f:	c3                   	retq   

Disassembly of section .text._ZNSt6vectorIS_INSt7__cxx1112basic_stringIcSt11char_traitsIcESaIcEEESaIS5_EESaIS7_EE15_S_use_relocateEv:

0000000000000000 <_ZNSt6vectorIS_INSt7__cxx1112basic_stringIcSt11char_traitsIcESaIcEEESaIS5_EESaIS7_EE15_S_use_relocateEv>:
   0:	f3 0f 1e fa          	endbr64 
   4:	55                   	push   %rbp
   5:	48 89 e5             	mov    %rsp,%rbp
   8:	48 83 ec 10          	sub    $0x10,%rsp
   c:	64 48 8b 04 25 28 00 	mov    %fs:0x28,%rax
  13:	00 00 
  15:	48 89 45 f8          	mov    %rax,-0x8(%rbp)
  19:	31 c0                	xor    %eax,%eax
  1b:	e8 00 00 00 00       	callq  20 <_ZNSt6vectorIS_INSt7__cxx1112basic_stringIcSt11char_traitsIcESaIcEEESaIS5_EESaIS7_EE15_S_use_relocateEv+0x20>
  20:	48 8b 55 f8          	mov    -0x8(%rbp),%rdx
  24:	64 48 33 14 25 28 00 	xor    %fs:0x28,%rdx
  2b:	00 00 
  2d:	74 05                	je     34 <_ZNSt6vectorIS_INSt7__cxx1112basic_stringIcSt11char_traitsIcESaIcEEESaIS5_EESaIS7_EE15_S_use_relocateEv+0x34>
  2f:	e8 00 00 00 00       	callq  34 <_ZNSt6vectorIS_INSt7__cxx1112basic_stringIcSt11char_traitsIcESaIcEEESaIS5_EESaIS7_EE15_S_use_relocateEv+0x34>
  34:	c9                   	leaveq 
  35:	c3                   	retq   

Disassembly of section .text._ZNSt6vectorIS_INSt7__cxx1112basic_stringIcSt11char_traitsIcESaIcEEESaIS5_EESaIS7_EE19_S_nothrow_relocateESt17integral_constantIbLb1EE:

0000000000000000 <_ZNSt6vectorIS_INSt7__cxx1112basic_stringIcSt11char_traitsIcESaIcEEESaIS5_EESaIS7_EE19_S_nothrow_relocateESt17integral_constantIbLb1EE>:
   0:	f3 0f 1e fa          	endbr64 
   4:	55                   	push   %rbp
   5:	48 89 e5             	mov    %rsp,%rbp
   8:	b8 01 00 00 00       	mov    $0x1,%eax
   d:	5d                   	pop    %rbp
   e:	c3                   	retq   

Disassembly of section .text._ZNSt6vectorIS_INSt7__cxx1112basic_stringIcSt11char_traitsIcESaIcEEESaIS5_EESaIS7_EE17_M_realloc_insertIJRKS7_EEEvN9__gnu_cxx17__normal_iteratorIPS7_S9_EEDpOT_:

0000000000000000 <_ZNSt6vectorIS_INSt7__cxx1112basic_stringIcSt11char_traitsIcESaIcEEESaIS5_EESaIS7_EE17_M_realloc_insertIJRKS7_EEEvN9__gnu_cxx17__normal_iteratorIPS7_S9_EEDpOT_>:
   0:	f3 0f 1e fa          	endbr64 
   4:	55                   	push   %rbp
   5:	48 89 e5             	mov    %rsp,%rbp
   8:	53                   	push   %rbx
   9:	48 83 ec 68          	sub    $0x68,%rsp
   d:	48 89 7d a8          	mov    %rdi,-0x58(%rbp)
  11:	48 89 75 a0          	mov    %rsi,-0x60(%rbp)
  15:	48 89 55 98          	mov    %rdx,-0x68(%rbp)
  19:	64 48 8b 04 25 28 00 	mov    %fs:0x28,%rax
  20:	00 00 
  22:	48 89 45 e8          	mov    %rax,-0x18(%rbp)
  26:	31 c0                	xor    %eax,%eax
  28:	48 8b 45 a8          	mov    -0x58(%rbp),%rax
  2c:	48 8d 15 00 00 00 00 	lea    0x0(%rip),%rdx        # 33 <_ZNSt6vectorIS_INSt7__cxx1112basic_stringIcSt11char_traitsIcESaIcEEESaIS5_EESaIS7_EE17_M_realloc_insertIJRKS7_EEEvN9__gnu_cxx17__normal_iteratorIPS7_S9_EEDpOT_+0x33>
  33:	be 01 00 00 00       	mov    $0x1,%esi
  38:	48 89 c7             	mov    %rax,%rdi
  3b:	e8 00 00 00 00       	callq  40 <_ZNSt6vectorIS_INSt7__cxx1112basic_stringIcSt11char_traitsIcESaIcEEESaIS5_EESaIS7_EE17_M_realloc_insertIJRKS7_EEEvN9__gnu_cxx17__normal_iteratorIPS7_S9_EEDpOT_+0x40>
  40:	48 89 45 c0          	mov    %rax,-0x40(%rbp)
  44:	48 8b 45 a8          	mov    -0x58(%rbp),%rax
  48:	48 8b 00             	mov    (%rax),%rax
  4b:	48 89 45 c8          	mov    %rax,-0x38(%rbp)
  4f:	48 8b 45 a8          	mov    -0x58(%rbp),%rax
  53:	48 8b 40 08          	mov    0x8(%rax),%rax
  57:	48 89 45 d0          	mov    %rax,-0x30(%rbp)
  5b:	48 8b 45 a8          	mov    -0x58(%rbp),%rax
  5f:	48 89 c7             	mov    %rax,%rdi
  62:	e8 00 00 00 00       	callq  67 <_ZNSt6vectorIS_INSt7__cxx1112basic_stringIcSt11char_traitsIcESaIcEEESaIS5_EESaIS7_EE17_M_realloc_insertIJRKS7_EEEvN9__gnu_cxx17__normal_iteratorIPS7_S9_EEDpOT_+0x67>
  67:	48 89 45 b0          	mov    %rax,-0x50(%rbp)
  6b:	48 8d 55 b0          	lea    -0x50(%rbp),%rdx
  6f:	48 8d 45 a0          	lea    -0x60(%rbp),%rax
  73:	48 89 d6             	mov    %rdx,%rsi
  76:	48 89 c7             	mov    %rax,%rdi
  79:	e8 00 00 00 00       	callq  7e <_ZNSt6vectorIS_INSt7__cxx1112basic_stringIcSt11char_traitsIcESaIcEEESaIS5_EESaIS7_EE17_M_realloc_insertIJRKS7_EEEvN9__gnu_cxx17__normal_iteratorIPS7_S9_EEDpOT_+0x7e>
  7e:	48 89 45 d8          	mov    %rax,-0x28(%rbp)
  82:	48 8b 45 a8          	mov    -0x58(%rbp),%rax
  86:	48 8b 55 c0          	mov    -0x40(%rbp),%rdx
  8a:	48 89 d6             	mov    %rdx,%rsi
  8d:	48 89 c7             	mov    %rax,%rdi
  90:	e8 00 00 00 00       	callq  95 <_ZNSt6vectorIS_INSt7__cxx1112basic_stringIcSt11char_traitsIcESaIcEEESaIS5_EESaIS7_EE17_M_realloc_insertIJRKS7_EEEvN9__gnu_cxx17__normal_iteratorIPS7_S9_EEDpOT_+0x95>
  95:	48 89 45 e0          	mov    %rax,-0x20(%rbp)
  99:	48 8b 45 e0          	mov    -0x20(%rbp),%rax
  9d:	48 89 45 b8          	mov    %rax,-0x48(%rbp)
  a1:	48 8b 45 98          	mov    -0x68(%rbp),%rax
  a5:	48 89 c7             	mov    %rax,%rdi
  a8:	e8 00 00 00 00       	callq  ad <_ZNSt6vectorIS_INSt7__cxx1112basic_stringIcSt11char_traitsIcESaIcEEESaIS5_EESaIS7_EE17_M_realloc_insertIJRKS7_EEEvN9__gnu_cxx17__normal_iteratorIPS7_S9_EEDpOT_+0xad>
  ad:	48 89 c6             	mov    %rax,%rsi
  b0:	48 8b 55 d8          	mov    -0x28(%rbp),%rdx
  b4:	48 89 d0             	mov    %rdx,%rax
  b7:	48 01 c0             	add    %rax,%rax
  ba:	48 01 d0             	add    %rdx,%rax
  bd:	48 c1 e0 03          	shl    $0x3,%rax
  c1:	48 89 c2             	mov    %rax,%rdx
  c4:	48 8b 45 e0          	mov    -0x20(%rbp),%rax
  c8:	48 8d 0c 02          	lea    (%rdx,%rax,1),%rcx
  cc:	48 8b 45 a8          	mov    -0x58(%rbp),%rax
  d0:	48 89 f2             	mov    %rsi,%rdx
  d3:	48 89 ce             	mov    %rcx,%rsi
  d6:	48 89 c7             	mov    %rax,%rdi
  d9:	e8 00 00 00 00       	callq  de <_ZNSt6vectorIS_INSt7__cxx1112basic_stringIcSt11char_traitsIcESaIcEEESaIS5_EESaIS7_EE17_M_realloc_insertIJRKS7_EEEvN9__gnu_cxx17__normal_iteratorIPS7_S9_EEDpOT_+0xde>
  de:	48 c7 45 b8 00 00 00 	movq   $0x0,-0x48(%rbp)
  e5:	00 
  e6:	e8 00 00 00 00       	callq  eb <_ZNSt6vectorIS_INSt7__cxx1112basic_stringIcSt11char_traitsIcESaIcEEESaIS5_EESaIS7_EE17_M_realloc_insertIJRKS7_EEEvN9__gnu_cxx17__normal_iteratorIPS7_S9_EEDpOT_+0xeb>
  eb:	84 c0                	test   %al,%al
  ed:	74 71                	je     160 <_ZNSt6vectorIS_INSt7__cxx1112basic_stringIcSt11char_traitsIcESaIcEEESaIS5_EESaIS7_EE17_M_realloc_insertIJRKS7_EEEvN9__gnu_cxx17__normal_iteratorIPS7_S9_EEDpOT_+0x160>
  ef:	48 8b 45 a8          	mov    -0x58(%rbp),%rax
  f3:	48 89 c7             	mov    %rax,%rdi
  f6:	e8 00 00 00 00       	callq  fb <_ZNSt6vectorIS_INSt7__cxx1112basic_stringIcSt11char_traitsIcESaIcEEESaIS5_EESaIS7_EE17_M_realloc_insertIJRKS7_EEEvN9__gnu_cxx17__normal_iteratorIPS7_S9_EEDpOT_+0xfb>
  fb:	48 89 c3             	mov    %rax,%rbx
  fe:	48 8d 45 a0          	lea    -0x60(%rbp),%rax
 102:	48 89 c7             	mov    %rax,%rdi
 105:	e8 00 00 00 00       	callq  10a <_ZNSt6vectorIS_INSt7__cxx1112basic_stringIcSt11char_traitsIcESaIcEEESaIS5_EESaIS7_EE17_M_realloc_insertIJRKS7_EEEvN9__gnu_cxx17__normal_iteratorIPS7_S9_EEDpOT_+0x10a>
 10a:	48 8b 30             	mov    (%rax),%rsi
 10d:	48 8b 55 e0          	mov    -0x20(%rbp),%rdx
 111:	48 8b 45 c8          	mov    -0x38(%rbp),%rax
 115:	48 89 d9             	mov    %rbx,%rcx
 118:	48 89 c7             	mov    %rax,%rdi
 11b:	e8 00 00 00 00       	callq  120 <_ZNSt6vectorIS_INSt7__cxx1112basic_stringIcSt11char_traitsIcESaIcEEESaIS5_EESaIS7_EE17_M_realloc_insertIJRKS7_EEEvN9__gnu_cxx17__normal_iteratorIPS7_S9_EEDpOT_+0x120>
 120:	48 89 45 b8          	mov    %rax,-0x48(%rbp)
 124:	48 83 45 b8 18       	addq   $0x18,-0x48(%rbp)
 129:	48 8b 45 a8          	mov    -0x58(%rbp),%rax
 12d:	48 89 c7             	mov    %rax,%rdi
 130:	e8 00 00 00 00       	callq  135 <_ZNSt6vectorIS_INSt7__cxx1112basic_stringIcSt11char_traitsIcESaIcEEESaIS5_EESaIS7_EE17_M_realloc_insertIJRKS7_EEEvN9__gnu_cxx17__normal_iteratorIPS7_S9_EEDpOT_+0x135>
 135:	48 89 c3             	mov    %rax,%rbx
 138:	48 8d 45 a0          	lea    -0x60(%rbp),%rax
 13c:	48 89 c7             	mov    %rax,%rdi
 13f:	e8 00 00 00 00       	callq  144 <_ZNSt6vectorIS_INSt7__cxx1112basic_stringIcSt11char_traitsIcESaIcEEESaIS5_EESaIS7_EE17_M_realloc_insertIJRKS7_EEEvN9__gnu_cxx17__normal_iteratorIPS7_S9_EEDpOT_+0x144>
 144:	48 8b 00             	mov    (%rax),%rax
 147:	48 8b 55 b8          	mov    -0x48(%rbp),%rdx
 14b:	48 8b 75 d0          	mov    -0x30(%rbp),%rsi
 14f:	48 89 d9             	mov    %rbx,%rcx
 152:	48 89 c7             	mov    %rax,%rdi
 155:	e8 00 00 00 00       	callq  15a <_ZNSt6vectorIS_INSt7__cxx1112basic_stringIcSt11char_traitsIcESaIcEEESaIS5_EESaIS7_EE17_M_realloc_insertIJRKS7_EEEvN9__gnu_cxx17__normal_iteratorIPS7_S9_EEDpOT_+0x15a>
 15a:	48 89 45 b8          	mov    %rax,-0x48(%rbp)
 15e:	eb 6f                	jmp    1cf <_ZNSt6vectorIS_INSt7__cxx1112basic_stringIcSt11char_traitsIcESaIcEEESaIS5_EESaIS7_EE17_M_realloc_insertIJRKS7_EEEvN9__gnu_cxx17__normal_iteratorIPS7_S9_EEDpOT_+0x1cf>
 160:	48 8b 45 a8          	mov    -0x58(%rbp),%rax
 164:	48 89 c7             	mov    %rax,%rdi
 167:	e8 00 00 00 00       	callq  16c <_ZNSt6vectorIS_INSt7__cxx1112basic_stringIcSt11char_traitsIcESaIcEEESaIS5_EESaIS7_EE17_M_realloc_insertIJRKS7_EEEvN9__gnu_cxx17__normal_iteratorIPS7_S9_EEDpOT_+0x16c>
 16c:	48 89 c3             	mov    %rax,%rbx
 16f:	48 8d 45 a0          	lea    -0x60(%rbp),%rax
 173:	48 89 c7             	mov    %rax,%rdi
 176:	e8 00 00 00 00       	callq  17b <_ZNSt6vectorIS_INSt7__cxx1112basic_stringIcSt11char_traitsIcESaIcEEESaIS5_EESaIS7_EE17_M_realloc_insertIJRKS7_EEEvN9__gnu_cxx17__normal_iteratorIPS7_S9_EEDpOT_+0x17b>
 17b:	48 8b 30             	mov    (%rax),%rsi
 17e:	48 8b 55 e0          	mov    -0x20(%rbp),%rdx
 182:	48 8b 45 c8          	mov    -0x38(%rbp),%rax
 186:	48 89 d9             	mov    %rbx,%rcx
 189:	48 89 c7             	mov    %rax,%rdi
 18c:	e8 00 00 00 00       	callq  191 <_ZNSt6vectorIS_INSt7__cxx1112basic_stringIcSt11char_traitsIcESaIcEEESaIS5_EESaIS7_EE17_M_realloc_insertIJRKS7_EEEvN9__gnu_cxx17__normal_iteratorIPS7_S9_EEDpOT_+0x191>
 191:	48 89 45 b8          	mov    %rax,-0x48(%rbp)
 195:	48 83 45 b8 18       	addq   $0x18,-0x48(%rbp)
 19a:	48 8b 45 a8          	mov    -0x58(%rbp),%rax
 19e:	48 89 c7             	mov    %rax,%rdi
 1a1:	e8 00 00 00 00       	callq  1a6 <_ZNSt6vectorIS_INSt7__cxx1112basic_stringIcSt11char_traitsIcESaIcEEESaIS5_EESaIS7_EE17_M_realloc_insertIJRKS7_EEEvN9__gnu_cxx17__normal_iteratorIPS7_S9_EEDpOT_+0x1a6>
 1a6:	48 89 c3             	mov    %rax,%rbx
 1a9:	48 8d 45 a0          	lea    -0x60(%rbp),%rax
 1ad:	48 89 c7             	mov    %rax,%rdi
 1b0:	e8 00 00 00 00       	callq  1b5 <_ZNSt6vectorIS_INSt7__cxx1112basic_stringIcSt11char_traitsIcESaIcEEESaIS5_EESaIS7_EE17_M_realloc_insertIJRKS7_EEEvN9__gnu_cxx17__normal_iteratorIPS7_S9_EEDpOT_+0x1b5>
 1b5:	48 8b 00             	mov    (%rax),%rax
 1b8:	48 8b 55 b8          	mov    -0x48(%rbp),%rdx
 1bc:	48 8b 75 d0          	mov    -0x30(%rbp),%rsi
 1c0:	48 89 d9             	mov    %rbx,%rcx
 1c3:	48 89 c7             	mov    %rax,%rdi
 1c6:	e8 00 00 00 00       	callq  1cb <_ZNSt6vectorIS_INSt7__cxx1112basic_stringIcSt11char_traitsIcESaIcEEESaIS5_EESaIS7_EE17_M_realloc_insertIJRKS7_EEEvN9__gnu_cxx17__normal_iteratorIPS7_S9_EEDpOT_+0x1cb>
 1cb:	48 89 45 b8          	mov    %rax,-0x48(%rbp)
 1cf:	e8 00 00 00 00       	callq  1d4 <_ZNSt6vectorIS_INSt7__cxx1112basic_stringIcSt11char_traitsIcESaIcEEESaIS5_EESaIS7_EE17_M_realloc_insertIJRKS7_EEEvN9__gnu_cxx17__normal_iteratorIPS7_S9_EEDpOT_+0x1d4>
 1d4:	83 f0 01             	xor    $0x1,%eax
 1d7:	84 c0                	test   %al,%al
 1d9:	74 22                	je     1fd <_ZNSt6vectorIS_INSt7__cxx1112basic_stringIcSt11char_traitsIcESaIcEEESaIS5_EESaIS7_EE17_M_realloc_insertIJRKS7_EEEvN9__gnu_cxx17__normal_iteratorIPS7_S9_EEDpOT_+0x1fd>
 1db:	48 8b 45 a8          	mov    -0x58(%rbp),%rax
 1df:	48 89 c7             	mov    %rax,%rdi
 1e2:	e8 00 00 00 00       	callq  1e7 <_ZNSt6vectorIS_INSt7__cxx1112basic_stringIcSt11char_traitsIcESaIcEEESaIS5_EESaIS7_EE17_M_realloc_insertIJRKS7_EEEvN9__gnu_cxx17__normal_iteratorIPS7_S9_EEDpOT_+0x1e7>
 1e7:	48 89 c2             	mov    %rax,%rdx
 1ea:	48 8b 4d d0          	mov    -0x30(%rbp),%rcx
 1ee:	48 8b 45 c8          	mov    -0x38(%rbp),%rax
 1f2:	48 89 ce             	mov    %rcx,%rsi
 1f5:	48 89 c7             	mov    %rax,%rdi
 1f8:	e8 00 00 00 00       	callq  1fd <_ZNSt6vectorIS_INSt7__cxx1112basic_stringIcSt11char_traitsIcESaIcEEESaIS5_EESaIS7_EE17_M_realloc_insertIJRKS7_EEEvN9__gnu_cxx17__normal_iteratorIPS7_S9_EEDpOT_+0x1fd>
 1fd:	48 8b 45 a8          	mov    -0x58(%rbp),%rax
 201:	48 8b 55 a8          	mov    -0x58(%rbp),%rdx
 205:	48 8b 52 10          	mov    0x10(%rdx),%rdx
 209:	48 2b 55 c8          	sub    -0x38(%rbp),%rdx
 20d:	48 89 d1             	mov    %rdx,%rcx
 210:	48 c1 f9 03          	sar    $0x3,%rcx
 214:	48 ba ab aa aa aa aa 	movabs $0xaaaaaaaaaaaaaaab,%rdx
 21b:	aa aa aa 
 21e:	48 0f af d1          	imul   %rcx,%rdx
 222:	48 8b 4d c8          	mov    -0x38(%rbp),%rcx
 226:	48 89 ce             	mov    %rcx,%rsi
 229:	48 89 c7             	mov    %rax,%rdi
 22c:	e8 00 00 00 00       	callq  231 <_ZNSt6vectorIS_INSt7__cxx1112basic_stringIcSt11char_traitsIcESaIcEEESaIS5_EESaIS7_EE17_M_realloc_insertIJRKS7_EEEvN9__gnu_cxx17__normal_iteratorIPS7_S9_EEDpOT_+0x231>
 231:	48 8b 45 a8          	mov    -0x58(%rbp),%rax
 235:	48 8b 55 e0          	mov    -0x20(%rbp),%rdx
 239:	48 89 10             	mov    %rdx,(%rax)
 23c:	48 8b 45 a8          	mov    -0x58(%rbp),%rax
 240:	48 8b 55 b8          	mov    -0x48(%rbp),%rdx
 244:	48 89 50 08          	mov    %rdx,0x8(%rax)
 248:	48 8b 55 c0          	mov    -0x40(%rbp),%rdx
 24c:	48 89 d0             	mov    %rdx,%rax
 24f:	48 01 c0             	add    %rax,%rax
 252:	48 01 d0             	add    %rdx,%rax
 255:	48 c1 e0 03          	shl    $0x3,%rax
 259:	48 89 c2             	mov    %rax,%rdx
 25c:	48 8b 45 e0          	mov    -0x20(%rbp),%rax
 260:	48 01 c2             	add    %rax,%rdx
 263:	48 8b 45 a8          	mov    -0x58(%rbp),%rax
 267:	48 89 50 10          	mov    %rdx,0x10(%rax)
 26b:	90                   	nop
 26c:	48 8b 45 e8          	mov    -0x18(%rbp),%rax
 270:	64 48 33 04 25 28 00 	xor    %fs:0x28,%rax
 277:	00 00 
 279:	0f 84 9e 00 00 00    	je     31d <_ZNSt6vectorIS_INSt7__cxx1112basic_stringIcSt11char_traitsIcESaIcEEESaIS5_EESaIS7_EE17_M_realloc_insertIJRKS7_EEEvN9__gnu_cxx17__normal_iteratorIPS7_S9_EEDpOT_+0x31d>
 27f:	e9 94 00 00 00       	jmpq   318 <_ZNSt6vectorIS_INSt7__cxx1112basic_stringIcSt11char_traitsIcESaIcEEESaIS5_EESaIS7_EE17_M_realloc_insertIJRKS7_EEEvN9__gnu_cxx17__normal_iteratorIPS7_S9_EEDpOT_+0x318>
 284:	f3 0f 1e fa          	endbr64 
 288:	48 89 c7             	mov    %rax,%rdi
 28b:	e8 00 00 00 00       	callq  290 <_ZNSt6vectorIS_INSt7__cxx1112basic_stringIcSt11char_traitsIcESaIcEEESaIS5_EESaIS7_EE17_M_realloc_insertIJRKS7_EEEvN9__gnu_cxx17__normal_iteratorIPS7_S9_EEDpOT_+0x290>
 290:	48 83 7d b8 00       	cmpq   $0x0,-0x48(%rbp)
 295:	75 2c                	jne    2c3 <_ZNSt6vectorIS_INSt7__cxx1112basic_stringIcSt11char_traitsIcESaIcEEESaIS5_EESaIS7_EE17_M_realloc_insertIJRKS7_EEEvN9__gnu_cxx17__normal_iteratorIPS7_S9_EEDpOT_+0x2c3>
 297:	48 8b 55 d8          	mov    -0x28(%rbp),%rdx
 29b:	48 89 d0             	mov    %rdx,%rax
 29e:	48 01 c0             	add    %rax,%rax
 2a1:	48 01 d0             	add    %rdx,%rax
 2a4:	48 c1 e0 03          	shl    $0x3,%rax
 2a8:	48 89 c2             	mov    %rax,%rdx
 2ab:	48 8b 45 e0          	mov    -0x20(%rbp),%rax
 2af:	48 01 c2             	add    %rax,%rdx
 2b2:	48 8b 45 a8          	mov    -0x58(%rbp),%rax
 2b6:	48 89 d6             	mov    %rdx,%rsi
 2b9:	48 89 c7             	mov    %rax,%rdi
 2bc:	e8 00 00 00 00       	callq  2c1 <_ZNSt6vectorIS_INSt7__cxx1112basic_stringIcSt11char_traitsIcESaIcEEESaIS5_EESaIS7_EE17_M_realloc_insertIJRKS7_EEEvN9__gnu_cxx17__normal_iteratorIPS7_S9_EEDpOT_+0x2c1>
 2c1:	eb 22                	jmp    2e5 <_ZNSt6vectorIS_INSt7__cxx1112basic_stringIcSt11char_traitsIcESaIcEEESaIS5_EESaIS7_EE17_M_realloc_insertIJRKS7_EEEvN9__gnu_cxx17__normal_iteratorIPS7_S9_EEDpOT_+0x2e5>
 2c3:	48 8b 45 a8          	mov    -0x58(%rbp),%rax
 2c7:	48 89 c7             	mov    %rax,%rdi
 2ca:	e8 00 00 00 00       	callq  2cf <_ZNSt6vectorIS_INSt7__cxx1112basic_stringIcSt11char_traitsIcESaIcEEESaIS5_EESaIS7_EE17_M_realloc_insertIJRKS7_EEEvN9__gnu_cxx17__normal_iteratorIPS7_S9_EEDpOT_+0x2cf>
 2cf:	48 89 c2             	mov    %rax,%rdx
 2d2:	48 8b 4d b8          	mov    -0x48(%rbp),%rcx
 2d6:	48 8b 45 e0          	mov    -0x20(%rbp),%rax
 2da:	48 89 ce             	mov    %rcx,%rsi
 2dd:	48 89 c7             	mov    %rax,%rdi
 2e0:	e8 00 00 00 00       	callq  2e5 <_ZNSt6vectorIS_INSt7__cxx1112basic_stringIcSt11char_traitsIcESaIcEEESaIS5_EESaIS7_EE17_M_realloc_insertIJRKS7_EEEvN9__gnu_cxx17__normal_iteratorIPS7_S9_EEDpOT_+0x2e5>
 2e5:	48 8b 45 a8          	mov    -0x58(%rbp),%rax
 2e9:	48 8b 55 c0          	mov    -0x40(%rbp),%rdx
 2ed:	48 8b 4d e0          	mov    -0x20(%rbp),%rcx
 2f1:	48 89 ce             	mov    %rcx,%rsi
 2f4:	48 89 c7             	mov    %rax,%rdi
 2f7:	e8 00 00 00 00       	callq  2fc <_ZNSt6vectorIS_INSt7__cxx1112basic_stringIcSt11char_traitsIcESaIcEEESaIS5_EESaIS7_EE17_M_realloc_insertIJRKS7_EEEvN9__gnu_cxx17__normal_iteratorIPS7_S9_EEDpOT_+0x2fc>
 2fc:	e8 00 00 00 00       	callq  301 <_ZNSt6vectorIS_INSt7__cxx1112basic_stringIcSt11char_traitsIcESaIcEEESaIS5_EESaIS7_EE17_M_realloc_insertIJRKS7_EEEvN9__gnu_cxx17__normal_iteratorIPS7_S9_EEDpOT_+0x301>
 301:	f3 0f 1e fa          	endbr64 
 305:	48 89 c3             	mov    %rax,%rbx
 308:	e8 00 00 00 00       	callq  30d <_ZNSt6vectorIS_INSt7__cxx1112basic_stringIcSt11char_traitsIcESaIcEEESaIS5_EESaIS7_EE17_M_realloc_insertIJRKS7_EEEvN9__gnu_cxx17__normal_iteratorIPS7_S9_EEDpOT_+0x30d>
 30d:	48 89 d8             	mov    %rbx,%rax
 310:	48 89 c7             	mov    %rax,%rdi
 313:	e8 00 00 00 00       	callq  318 <_ZNSt6vectorIS_INSt7__cxx1112basic_stringIcSt11char_traitsIcESaIcEEESaIS5_EESaIS7_EE17_M_realloc_insertIJRKS7_EEEvN9__gnu_cxx17__normal_iteratorIPS7_S9_EEDpOT_+0x318>
 318:	e8 00 00 00 00       	callq  31d <_ZNSt6vectorIS_INSt7__cxx1112basic_stringIcSt11char_traitsIcESaIcEEESaIS5_EESaIS7_EE17_M_realloc_insertIJRKS7_EEEvN9__gnu_cxx17__normal_iteratorIPS7_S9_EEDpOT_+0x31d>
 31d:	48 83 c4 68          	add    $0x68,%rsp
 321:	5b                   	pop    %rbx
 322:	5d                   	pop    %rbp
 323:	c3                   	retq   

Disassembly of section .text._ZNSt6vectorINSt7__cxx1112basic_stringIcSt11char_traitsIcESaIcEEESaIS5_EE15_M_erase_at_endEPS5_:

0000000000000000 <_ZNSt6vectorINSt7__cxx1112basic_stringIcSt11char_traitsIcESaIcEEESaIS5_EE15_M_erase_at_endEPS5_>:
   0:	f3 0f 1e fa          	endbr64 
   4:	55                   	push   %rbp
   5:	48 89 e5             	mov    %rsp,%rbp
   8:	48 83 ec 20          	sub    $0x20,%rsp
   c:	48 89 7d e8          	mov    %rdi,-0x18(%rbp)
  10:	48 89 75 e0          	mov    %rsi,-0x20(%rbp)
  14:	48 8b 45 e8          	mov    -0x18(%rbp),%rax
  18:	48 8b 40 08          	mov    0x8(%rax),%rax
  1c:	48 2b 45 e0          	sub    -0x20(%rbp),%rax
  20:	48 c1 f8 05          	sar    $0x5,%rax
  24:	48 89 45 f8          	mov    %rax,-0x8(%rbp)
  28:	48 83 7d f8 00       	cmpq   $0x0,-0x8(%rbp)
  2d:	74 32                	je     61 <_ZNSt6vectorINSt7__cxx1112basic_stringIcSt11char_traitsIcESaIcEEESaIS5_EE15_M_erase_at_endEPS5_+0x61>
  2f:	48 8b 45 e8          	mov    -0x18(%rbp),%rax
  33:	48 89 c7             	mov    %rax,%rdi
  36:	e8 00 00 00 00       	callq  3b <_ZNSt6vectorINSt7__cxx1112basic_stringIcSt11char_traitsIcESaIcEEESaIS5_EE15_M_erase_at_endEPS5_+0x3b>
  3b:	48 89 c2             	mov    %rax,%rdx
  3e:	48 8b 45 e8          	mov    -0x18(%rbp),%rax
  42:	48 8b 48 08          	mov    0x8(%rax),%rcx
  46:	48 8b 45 e0          	mov    -0x20(%rbp),%rax
  4a:	48 89 ce             	mov    %rcx,%rsi
  4d:	48 89 c7             	mov    %rax,%rdi
  50:	e8 00 00 00 00       	callq  55 <_ZNSt6vectorINSt7__cxx1112basic_stringIcSt11char_traitsIcESaIcEEESaIS5_EE15_M_erase_at_endEPS5_+0x55>
  55:	48 8b 45 e8          	mov    -0x18(%rbp),%rax
  59:	48 8b 55 e0          	mov    -0x20(%rbp),%rdx
  5d:	48 89 50 08          	mov    %rdx,0x8(%rax)
  61:	90                   	nop
  62:	c9                   	leaveq 
  63:	c3                   	retq   

Disassembly of section .text._ZNKSt6vectorINSt7__cxx1112basic_stringIcSt11char_traitsIcESaIcEEESaIS5_EE5beginEv:

0000000000000000 <_ZNKSt6vectorINSt7__cxx1112basic_stringIcSt11char_traitsIcESaIcEEESaIS5_EE5beginEv>:
   0:	f3 0f 1e fa          	endbr64 
   4:	55                   	push   %rbp
   5:	48 89 e5             	mov    %rsp,%rbp
   8:	48 83 ec 30          	sub    $0x30,%rsp
   c:	48 89 7d d8          	mov    %rdi,-0x28(%rbp)
  10:	64 48 8b 04 25 28 00 	mov    %fs:0x28,%rax
  17:	00 00 
  19:	48 89 45 f8          	mov    %rax,-0x8(%rbp)
  1d:	31 c0                	xor    %eax,%eax
  1f:	48 8b 45 d8          	mov    -0x28(%rbp),%rax
  23:	48 8b 00             	mov    (%rax),%rax
  26:	48 89 45 e8          	mov    %rax,-0x18(%rbp)
  2a:	48 8d 55 e8          	lea    -0x18(%rbp),%rdx
  2e:	48 8d 45 f0          	lea    -0x10(%rbp),%rax
  32:	48 89 d6             	mov    %rdx,%rsi
  35:	48 89 c7             	mov    %rax,%rdi
  38:	e8 00 00 00 00       	callq  3d <_ZNKSt6vectorINSt7__cxx1112basic_stringIcSt11char_traitsIcESaIcEEESaIS5_EE5beginEv+0x3d>
  3d:	48 8b 45 f0          	mov    -0x10(%rbp),%rax
  41:	48 8b 4d f8          	mov    -0x8(%rbp),%rcx
  45:	64 48 33 0c 25 28 00 	xor    %fs:0x28,%rcx
  4c:	00 00 
  4e:	74 05                	je     55 <_ZNKSt6vectorINSt7__cxx1112basic_stringIcSt11char_traitsIcESaIcEEESaIS5_EE5beginEv+0x55>
  50:	e8 00 00 00 00       	callq  55 <_ZNKSt6vectorINSt7__cxx1112basic_stringIcSt11char_traitsIcESaIcEEESaIS5_EE5beginEv+0x55>
  55:	c9                   	leaveq 
  56:	c3                   	retq   

Disassembly of section .text._ZNKSt6vectorINSt7__cxx1112basic_stringIcSt11char_traitsIcESaIcEEESaIS5_EE3endEv:

0000000000000000 <_ZNKSt6vectorINSt7__cxx1112basic_stringIcSt11char_traitsIcESaIcEEESaIS5_EE3endEv>:
   0:	f3 0f 1e fa          	endbr64 
   4:	55                   	push   %rbp
   5:	48 89 e5             	mov    %rsp,%rbp
   8:	48 83 ec 30          	sub    $0x30,%rsp
   c:	48 89 7d d8          	mov    %rdi,-0x28(%rbp)
  10:	64 48 8b 04 25 28 00 	mov    %fs:0x28,%rax
  17:	00 00 
  19:	48 89 45 f8          	mov    %rax,-0x8(%rbp)
  1d:	31 c0                	xor    %eax,%eax
  1f:	48 8b 45 d8          	mov    -0x28(%rbp),%rax
  23:	48 8b 40 08          	mov    0x8(%rax),%rax
  27:	48 89 45 e8          	mov    %rax,-0x18(%rbp)
  2b:	48 8d 55 e8          	lea    -0x18(%rbp),%rdx
  2f:	48 8d 45 f0          	lea    -0x10(%rbp),%rax
  33:	48 89 d6             	mov    %rdx,%rsi
  36:	48 89 c7             	mov    %rax,%rdi
  39:	e8 00 00 00 00       	callq  3e <_ZNKSt6vectorINSt7__cxx1112basic_stringIcSt11char_traitsIcESaIcEEESaIS5_EE3endEv+0x3e>
  3e:	48 8b 45 f0          	mov    -0x10(%rbp),%rax
  42:	48 8b 4d f8          	mov    -0x8(%rbp),%rcx
  46:	64 48 33 0c 25 28 00 	xor    %fs:0x28,%rcx
  4d:	00 00 
  4f:	74 05                	je     56 <_ZNKSt6vectorINSt7__cxx1112basic_stringIcSt11char_traitsIcESaIcEEESaIS5_EE3endEv+0x56>
  51:	e8 00 00 00 00       	callq  56 <_ZNKSt6vectorINSt7__cxx1112basic_stringIcSt11char_traitsIcESaIcEEESaIS5_EE3endEv+0x56>
  56:	c9                   	leaveq 
  57:	c3                   	retq   

Disassembly of section .text._ZN9__gnu_cxxeqIPKNSt7__cxx1112basic_stringIcSt11char_traitsIcESaIcEEESt6vectorIS6_SaIS6_EEEEbRKNS_17__normal_iteratorIT_T0_EESH_:

0000000000000000 <_ZN9__gnu_cxxeqIPKNSt7__cxx1112basic_stringIcSt11char_traitsIcESaIcEEESt6vectorIS6_SaIS6_EEEEbRKNS_17__normal_iteratorIT_T0_EESH_>:
   0:	f3 0f 1e fa          	endbr64 
   4:	55                   	push   %rbp
   5:	48 89 e5             	mov    %rsp,%rbp
   8:	53                   	push   %rbx
   9:	48 83 ec 18          	sub    $0x18,%rsp
   d:	48 89 7d e8          	mov    %rdi,-0x18(%rbp)
  11:	48 89 75 e0          	mov    %rsi,-0x20(%rbp)
  15:	48 8b 45 e8          	mov    -0x18(%rbp),%rax
  19:	48 89 c7             	mov    %rax,%rdi
  1c:	e8 00 00 00 00       	callq  21 <_ZN9__gnu_cxxeqIPKNSt7__cxx1112basic_stringIcSt11char_traitsIcESaIcEEESt6vectorIS6_SaIS6_EEEEbRKNS_17__normal_iteratorIT_T0_EESH_+0x21>
  21:	48 8b 18             	mov    (%rax),%rbx
  24:	48 8b 45 e0          	mov    -0x20(%rbp),%rax
  28:	48 89 c7             	mov    %rax,%rdi
  2b:	e8 00 00 00 00       	callq  30 <_ZN9__gnu_cxxeqIPKNSt7__cxx1112basic_stringIcSt11char_traitsIcESaIcEEESt6vectorIS6_SaIS6_EEEEbRKNS_17__normal_iteratorIT_T0_EESH_+0x30>
  30:	48 8b 00             	mov    (%rax),%rax
  33:	48 39 c3             	cmp    %rax,%rbx
  36:	0f 94 c0             	sete   %al
  39:	48 83 c4 18          	add    $0x18,%rsp
  3d:	5b                   	pop    %rbx
  3e:	5d                   	pop    %rbp
  3f:	c3                   	retq   

Disassembly of section .text._ZNSt7__cxx1112basic_stringIcSt11char_traitsIcESaIcEE16_M_construct_auxIPcEEvT_S7_St12__false_type:

0000000000000000 <_ZNSt7__cxx1112basic_stringIcSt11char_traitsIcESaIcEE16_M_construct_auxIPcEEvT_S7_St12__false_type>:
   0:	f3 0f 1e fa          	endbr64 
   4:	55                   	push   %rbp
   5:	48 89 e5             	mov    %rsp,%rbp
   8:	48 83 ec 30          	sub    $0x30,%rsp
   c:	48 89 7d e8          	mov    %rdi,-0x18(%rbp)
  10:	48 89 75 e0          	mov    %rsi,-0x20(%rbp)
  14:	48 89 55 d8          	mov    %rdx,-0x28(%rbp)
  18:	64 48 8b 04 25 28 00 	mov    %fs:0x28,%rax
  1f:	00 00 
  21:	48 89 45 f8          	mov    %rax,-0x8(%rbp)
  25:	31 c0                	xor    %eax,%eax
  27:	48 8b 55 d8          	mov    -0x28(%rbp),%rdx
  2b:	48 8b 4d e0          	mov    -0x20(%rbp),%rcx
  2f:	48 8b 45 e8          	mov    -0x18(%rbp),%rax
  33:	48 89 ce             	mov    %rcx,%rsi
  36:	48 89 c7             	mov    %rax,%rdi
  39:	e8 00 00 00 00       	callq  3e <_ZNSt7__cxx1112basic_stringIcSt11char_traitsIcESaIcEE16_M_construct_auxIPcEEvT_S7_St12__false_type+0x3e>
  3e:	90                   	nop
  3f:	48 8b 45 f8          	mov    -0x8(%rbp),%rax
  43:	64 48 33 04 25 28 00 	xor    %fs:0x28,%rax
  4a:	00 00 
  4c:	74 05                	je     53 <_ZNSt7__cxx1112basic_stringIcSt11char_traitsIcESaIcEE16_M_construct_auxIPcEEvT_S7_St12__false_type+0x53>
  4e:	e8 00 00 00 00       	callq  53 <_ZNSt7__cxx1112basic_stringIcSt11char_traitsIcESaIcEE16_M_construct_auxIPcEEvT_S7_St12__false_type+0x53>
  53:	c9                   	leaveq 
  54:	c3                   	retq   

Disassembly of section .text._ZNSt6vectorIhSaIhEE11_S_max_sizeERKS0_:

0000000000000000 <_ZNSt6vectorIhSaIhEE11_S_max_sizeERKS0_>:
   0:	f3 0f 1e fa          	endbr64 
   4:	55                   	push   %rbp
   5:	48 89 e5             	mov    %rsp,%rbp
   8:	48 83 ec 30          	sub    $0x30,%rsp
   c:	48 89 7d d8          	mov    %rdi,-0x28(%rbp)
  10:	64 48 8b 04 25 28 00 	mov    %fs:0x28,%rax
  17:	00 00 
  19:	48 89 45 f8          	mov    %rax,-0x8(%rbp)
  1d:	31 c0                	xor    %eax,%eax
  1f:	48 b8 ff ff ff ff ff 	movabs $0x7fffffffffffffff,%rax
  26:	ff ff 7f 
  29:	48 89 45 e8          	mov    %rax,-0x18(%rbp)
  2d:	48 8b 45 d8          	mov    -0x28(%rbp),%rax
  31:	48 89 c7             	mov    %rax,%rdi
  34:	e8 00 00 00 00       	callq  39 <_ZNSt6vectorIhSaIhEE11_S_max_sizeERKS0_+0x39>
  39:	48 89 45 f0          	mov    %rax,-0x10(%rbp)
  3d:	48 8d 55 f0          	lea    -0x10(%rbp),%rdx
  41:	48 8d 45 e8          	lea    -0x18(%rbp),%rax
  45:	48 89 d6             	mov    %rdx,%rsi
  48:	48 89 c7             	mov    %rax,%rdi
  4b:	e8 00 00 00 00       	callq  50 <_ZNSt6vectorIhSaIhEE11_S_max_sizeERKS0_+0x50>
  50:	48 8b 00             	mov    (%rax),%rax
  53:	48 8b 4d f8          	mov    -0x8(%rbp),%rcx
  57:	64 48 33 0c 25 28 00 	xor    %fs:0x28,%rcx
  5e:	00 00 
  60:	74 05                	je     67 <_ZNSt6vectorIhSaIhEE11_S_max_sizeERKS0_+0x67>
  62:	e8 00 00 00 00       	callq  67 <_ZNSt6vectorIhSaIhEE11_S_max_sizeERKS0_+0x67>
  67:	c9                   	leaveq 
  68:	c3                   	retq   

Disassembly of section .text._ZNSaIhEC2ERKS_:

0000000000000000 <_ZNSaIhEC1ERKS_>:
   0:	f3 0f 1e fa          	endbr64 
   4:	55                   	push   %rbp
   5:	48 89 e5             	mov    %rsp,%rbp
   8:	48 83 ec 10          	sub    $0x10,%rsp
   c:	48 89 7d f8          	mov    %rdi,-0x8(%rbp)
  10:	48 89 75 f0          	mov    %rsi,-0x10(%rbp)
  14:	48 8b 55 f0          	mov    -0x10(%rbp),%rdx
  18:	48 8b 45 f8          	mov    -0x8(%rbp),%rax
  1c:	48 89 d6             	mov    %rdx,%rsi
  1f:	48 89 c7             	mov    %rax,%rdi
  22:	e8 00 00 00 00       	callq  27 <_ZNSaIhEC1ERKS_+0x27>
  27:	90                   	nop
  28:	c9                   	leaveq 
  29:	c3                   	retq   

Disassembly of section .text._ZNSt12_Vector_baseIhSaIhEE12_Vector_implC2ERKS0_:

0000000000000000 <_ZNSt12_Vector_baseIhSaIhEE12_Vector_implC1ERKS0_>:
   0:	f3 0f 1e fa          	endbr64 
   4:	55                   	push   %rbp
   5:	48 89 e5             	mov    %rsp,%rbp
   8:	48 83 ec 10          	sub    $0x10,%rsp
   c:	48 89 7d f8          	mov    %rdi,-0x8(%rbp)
  10:	48 89 75 f0          	mov    %rsi,-0x10(%rbp)
  14:	48 8b 55 f0          	mov    -0x10(%rbp),%rdx
  18:	48 8b 45 f8          	mov    -0x8(%rbp),%rax
  1c:	48 89 d6             	mov    %rdx,%rsi
  1f:	48 89 c7             	mov    %rax,%rdi
  22:	e8 00 00 00 00       	callq  27 <_ZNSt12_Vector_baseIhSaIhEE12_Vector_implC1ERKS0_+0x27>
  27:	48 8b 45 f8          	mov    -0x8(%rbp),%rax
  2b:	48 89 c7             	mov    %rax,%rdi
  2e:	e8 00 00 00 00       	callq  33 <_ZNSt12_Vector_baseIhSaIhEE12_Vector_implC1ERKS0_+0x33>
  33:	90                   	nop
  34:	c9                   	leaveq 
  35:	c3                   	retq   

Disassembly of section .text._ZNSt12_Vector_baseIhSaIhEE17_M_create_storageEm:

0000000000000000 <_ZNSt12_Vector_baseIhSaIhEE17_M_create_storageEm>:
   0:	f3 0f 1e fa          	endbr64 
   4:	55                   	push   %rbp
   5:	48 89 e5             	mov    %rsp,%rbp
   8:	48 83 ec 10          	sub    $0x10,%rsp
   c:	48 89 7d f8          	mov    %rdi,-0x8(%rbp)
  10:	48 89 75 f0          	mov    %rsi,-0x10(%rbp)
  14:	48 8b 55 f0          	mov    -0x10(%rbp),%rdx
  18:	48 8b 45 f8          	mov    -0x8(%rbp),%rax
  1c:	48 89 d6             	mov    %rdx,%rsi
  1f:	48 89 c7             	mov    %rax,%rdi
  22:	e8 00 00 00 00       	callq  27 <_ZNSt12_Vector_baseIhSaIhEE17_M_create_storageEm+0x27>
  27:	48 8b 55 f8          	mov    -0x8(%rbp),%rdx
  2b:	48 89 02             	mov    %rax,(%rdx)
  2e:	48 8b 45 f8          	mov    -0x8(%rbp),%rax
  32:	48 8b 10             	mov    (%rax),%rdx
  35:	48 8b 45 f8          	mov    -0x8(%rbp),%rax
  39:	48 89 50 08          	mov    %rdx,0x8(%rax)
  3d:	48 8b 45 f8          	mov    -0x8(%rbp),%rax
  41:	48 8b 10             	mov    (%rax),%rdx
  44:	48 8b 45 f0          	mov    -0x10(%rbp),%rax
  48:	48 01 c2             	add    %rax,%rdx
  4b:	48 8b 45 f8          	mov    -0x8(%rbp),%rax
  4f:	48 89 50 10          	mov    %rdx,0x10(%rax)
  53:	90                   	nop
  54:	c9                   	leaveq 
  55:	c3                   	retq   

Disassembly of section .text._ZSt27__uninitialized_default_n_aIPhmhET_S1_T0_RSaIT1_E:

0000000000000000 <_ZSt27__uninitialized_default_n_aIPhmhET_S1_T0_RSaIT1_E>:
   0:	f3 0f 1e fa          	endbr64 
   4:	55                   	push   %rbp
   5:	48 89 e5             	mov    %rsp,%rbp
   8:	48 83 ec 20          	sub    $0x20,%rsp
   c:	48 89 7d f8          	mov    %rdi,-0x8(%rbp)
  10:	48 89 75 f0          	mov    %rsi,-0x10(%rbp)
  14:	48 89 55 e8          	mov    %rdx,-0x18(%rbp)
  18:	48 8b 55 f0          	mov    -0x10(%rbp),%rdx
  1c:	48 8b 45 f8          	mov    -0x8(%rbp),%rax
  20:	48 89 d6             	mov    %rdx,%rsi
  23:	48 89 c7             	mov    %rax,%rdi
  26:	e8 00 00 00 00       	callq  2b <_ZSt27__uninitialized_default_n_aIPhmhET_S1_T0_RSaIT1_E+0x2b>
  2b:	c9                   	leaveq 
  2c:	c3                   	retq   

Disassembly of section .text._ZSt8_DestroyIPhEvT_S1_:

0000000000000000 <_ZSt8_DestroyIPhEvT_S1_>:
   0:	f3 0f 1e fa          	endbr64 
   4:	55                   	push   %rbp
   5:	48 89 e5             	mov    %rsp,%rbp
   8:	48 83 ec 10          	sub    $0x10,%rsp
   c:	48 89 7d f8          	mov    %rdi,-0x8(%rbp)
  10:	48 89 75 f0          	mov    %rsi,-0x10(%rbp)
  14:	48 8b 55 f0          	mov    -0x10(%rbp),%rdx
  18:	48 8b 45 f8          	mov    -0x8(%rbp),%rax
  1c:	48 89 d6             	mov    %rdx,%rsi
  1f:	48 89 c7             	mov    %rax,%rdi
  22:	e8 00 00 00 00       	callq  27 <_ZSt8_DestroyIPhEvT_S1_+0x27>
  27:	90                   	nop
  28:	c9                   	leaveq 
  29:	c3                   	retq   

Disassembly of section .text._ZNKSt6vectorIhSaIhEE8max_sizeEv:

0000000000000000 <_ZNKSt6vectorIhSaIhEE8max_sizeEv>:
   0:	f3 0f 1e fa          	endbr64 
   4:	55                   	push   %rbp
   5:	48 89 e5             	mov    %rsp,%rbp
   8:	48 83 ec 10          	sub    $0x10,%rsp
   c:	48 89 7d f8          	mov    %rdi,-0x8(%rbp)
  10:	48 8b 45 f8          	mov    -0x8(%rbp),%rax
  14:	48 89 c7             	mov    %rax,%rdi
  17:	e8 00 00 00 00       	callq  1c <_ZNKSt6vectorIhSaIhEE8max_sizeEv+0x1c>
  1c:	48 89 c7             	mov    %rax,%rdi
  1f:	e8 00 00 00 00       	callq  24 <_ZNKSt6vectorIhSaIhEE8max_sizeEv+0x24>
  24:	c9                   	leaveq 
  25:	c3                   	retq   

Disassembly of section .text._ZNKSt6vectorIhSaIhEE12_M_check_lenEmPKc:

0000000000000000 <_ZNKSt6vectorIhSaIhEE12_M_check_lenEmPKc>:
   0:	f3 0f 1e fa          	endbr64 
   4:	55                   	push   %rbp
   5:	48 89 e5             	mov    %rsp,%rbp
   8:	53                   	push   %rbx
   9:	48 83 ec 48          	sub    $0x48,%rsp
   d:	48 89 7d c8          	mov    %rdi,-0x38(%rbp)
  11:	48 89 75 c0          	mov    %rsi,-0x40(%rbp)
  15:	48 89 55 b8          	mov    %rdx,-0x48(%rbp)
  19:	64 48 8b 04 25 28 00 	mov    %fs:0x28,%rax
  20:	00 00 
  22:	48 89 45 e8          	mov    %rax,-0x18(%rbp)
  26:	31 c0                	xor    %eax,%eax
  28:	48 8b 45 c8          	mov    -0x38(%rbp),%rax
  2c:	48 89 c7             	mov    %rax,%rdi
  2f:	e8 00 00 00 00       	callq  34 <_ZNKSt6vectorIhSaIhEE12_M_check_lenEmPKc+0x34>
  34:	48 89 c3             	mov    %rax,%rbx
  37:	48 8b 45 c8          	mov    -0x38(%rbp),%rax
  3b:	48 89 c7             	mov    %rax,%rdi
  3e:	e8 00 00 00 00       	callq  43 <_ZNKSt6vectorIhSaIhEE12_M_check_lenEmPKc+0x43>
  43:	48 29 c3             	sub    %rax,%rbx
  46:	48 89 da             	mov    %rbx,%rdx
  49:	48 8b 45 c0          	mov    -0x40(%rbp),%rax
  4d:	48 39 c2             	cmp    %rax,%rdx
  50:	0f 92 c0             	setb   %al
  53:	84 c0                	test   %al,%al
  55:	74 0c                	je     63 <_ZNKSt6vectorIhSaIhEE12_M_check_lenEmPKc+0x63>
  57:	48 8b 45 b8          	mov    -0x48(%rbp),%rax
  5b:	48 89 c7             	mov    %rax,%rdi
  5e:	e8 00 00 00 00       	callq  63 <_ZNKSt6vectorIhSaIhEE12_M_check_lenEmPKc+0x63>
  63:	48 8b 45 c8          	mov    -0x38(%rbp),%rax
  67:	48 89 c7             	mov    %rax,%rdi
  6a:	e8 00 00 00 00       	callq  6f <_ZNKSt6vectorIhSaIhEE12_M_check_lenEmPKc+0x6f>
  6f:	48 89 c3             	mov    %rax,%rbx
  72:	48 8b 45 c8          	mov    -0x38(%rbp),%rax
  76:	48 89 c7             	mov    %rax,%rdi
  79:	e8 00 00 00 00       	callq  7e <_ZNKSt6vectorIhSaIhEE12_M_check_lenEmPKc+0x7e>
  7e:	48 89 45 d8          	mov    %rax,-0x28(%rbp)
  82:	48 8d 55 c0          	lea    -0x40(%rbp),%rdx
  86:	48 8d 45 d8          	lea    -0x28(%rbp),%rax
  8a:	48 89 d6             	mov    %rdx,%rsi
  8d:	48 89 c7             	mov    %rax,%rdi
  90:	e8 00 00 00 00       	callq  95 <_ZNKSt6vectorIhSaIhEE12_M_check_lenEmPKc+0x95>
  95:	48 8b 00             	mov    (%rax),%rax
  98:	48 01 d8             	add    %rbx,%rax
  9b:	48 89 45 e0          	mov    %rax,-0x20(%rbp)
  9f:	48 8b 45 c8          	mov    -0x38(%rbp),%rax
  a3:	48 89 c7             	mov    %rax,%rdi
  a6:	e8 00 00 00 00       	callq  ab <_ZNKSt6vectorIhSaIhEE12_M_check_lenEmPKc+0xab>
  ab:	48 39 45 e0          	cmp    %rax,-0x20(%rbp)
  af:	72 12                	jb     c3 <_ZNKSt6vectorIhSaIhEE12_M_check_lenEmPKc+0xc3>
  b1:	48 8b 45 c8          	mov    -0x38(%rbp),%rax
  b5:	48 89 c7             	mov    %rax,%rdi
  b8:	e8 00 00 00 00       	callq  bd <_ZNKSt6vectorIhSaIhEE12_M_check_lenEmPKc+0xbd>
  bd:	48 39 45 e0          	cmp    %rax,-0x20(%rbp)
  c1:	76 0e                	jbe    d1 <_ZNKSt6vectorIhSaIhEE12_M_check_lenEmPKc+0xd1>
  c3:	48 8b 45 c8          	mov    -0x38(%rbp),%rax
  c7:	48 89 c7             	mov    %rax,%rdi
  ca:	e8 00 00 00 00       	callq  cf <_ZNKSt6vectorIhSaIhEE12_M_check_lenEmPKc+0xcf>
  cf:	eb 04                	jmp    d5 <_ZNKSt6vectorIhSaIhEE12_M_check_lenEmPKc+0xd5>
  d1:	48 8b 45 e0          	mov    -0x20(%rbp),%rax
  d5:	48 8b 4d e8          	mov    -0x18(%rbp),%rcx
  d9:	64 48 33 0c 25 28 00 	xor    %fs:0x28,%rcx
  e0:	00 00 
  e2:	74 05                	je     e9 <_ZNKSt6vectorIhSaIhEE12_M_check_lenEmPKc+0xe9>
  e4:	e8 00 00 00 00       	callq  e9 <_ZNKSt6vectorIhSaIhEE12_M_check_lenEmPKc+0xe9>
  e9:	48 83 c4 48          	add    $0x48,%rsp
  ed:	5b                   	pop    %rbx
  ee:	5d                   	pop    %rbp
  ef:	c3                   	retq   

Disassembly of section .text._ZNSt12_Vector_baseIhSaIhEE11_M_allocateEm:

0000000000000000 <_ZNSt12_Vector_baseIhSaIhEE11_M_allocateEm>:
   0:	f3 0f 1e fa          	endbr64 
   4:	55                   	push   %rbp
   5:	48 89 e5             	mov    %rsp,%rbp
   8:	48 83 ec 10          	sub    $0x10,%rsp
   c:	48 89 7d f8          	mov    %rdi,-0x8(%rbp)
  10:	48 89 75 f0          	mov    %rsi,-0x10(%rbp)
  14:	48 83 7d f0 00       	cmpq   $0x0,-0x10(%rbp)
  19:	74 15                	je     30 <_ZNSt12_Vector_baseIhSaIhEE11_M_allocateEm+0x30>
  1b:	48 8b 45 f8          	mov    -0x8(%rbp),%rax
  1f:	48 8b 55 f0          	mov    -0x10(%rbp),%rdx
  23:	48 89 d6             	mov    %rdx,%rsi
  26:	48 89 c7             	mov    %rax,%rdi
  29:	e8 00 00 00 00       	callq  2e <_ZNSt12_Vector_baseIhSaIhEE11_M_allocateEm+0x2e>
  2e:	eb 05                	jmp    35 <_ZNSt12_Vector_baseIhSaIhEE11_M_allocateEm+0x35>
  30:	b8 00 00 00 00       	mov    $0x0,%eax
  35:	c9                   	leaveq 
  36:	c3                   	retq   

Disassembly of section .text._ZNSt6vectorIhSaIhEE11_S_relocateEPhS2_S2_RS0_:

0000000000000000 <_ZNSt6vectorIhSaIhEE11_S_relocateEPhS2_S2_RS0_>:
   0:	f3 0f 1e fa          	endbr64 
   4:	55                   	push   %rbp
   5:	48 89 e5             	mov    %rsp,%rbp
   8:	48 83 ec 30          	sub    $0x30,%rsp
   c:	48 89 7d e8          	mov    %rdi,-0x18(%rbp)
  10:	48 89 75 e0          	mov    %rsi,-0x20(%rbp)
  14:	48 89 55 d8          	mov    %rdx,-0x28(%rbp)
  18:	48 89 4d d0          	mov    %rcx,-0x30(%rbp)
  1c:	64 48 8b 04 25 28 00 	mov    %fs:0x28,%rax
  23:	00 00 
  25:	48 89 45 f8          	mov    %rax,-0x8(%rbp)
  29:	31 c0                	xor    %eax,%eax
  2b:	48 8b 4d d0          	mov    -0x30(%rbp),%rcx
  2f:	48 8b 55 d8          	mov    -0x28(%rbp),%rdx
  33:	48 8b 75 e0          	mov    -0x20(%rbp),%rsi
  37:	48 8b 45 e8          	mov    -0x18(%rbp),%rax
  3b:	48 89 c7             	mov    %rax,%rdi
  3e:	e8 00 00 00 00       	callq  43 <_ZNSt6vectorIhSaIhEE11_S_relocateEPhS2_S2_RS0_+0x43>
  43:	48 8b 7d f8          	mov    -0x8(%rbp),%rdi
  47:	64 48 33 3c 25 28 00 	xor    %fs:0x28,%rdi
  4e:	00 00 
  50:	74 05                	je     57 <_ZNSt6vectorIhSaIhEE11_S_relocateEPhS2_S2_RS0_+0x57>
  52:	e8 00 00 00 00       	callq  57 <_ZNSt6vectorIhSaIhEE11_S_relocateEPhS2_S2_RS0_+0x57>
  57:	c9                   	leaveq 
  58:	c3                   	retq   

Disassembly of section .text._ZSt34__uninitialized_move_if_noexcept_aIPhS0_SaIhEET0_T_S3_S2_RT1_:

0000000000000000 <_ZSt34__uninitialized_move_if_noexcept_aIPhS0_SaIhEET0_T_S3_S2_RT1_>:
   0:	f3 0f 1e fa          	endbr64 
   4:	55                   	push   %rbp
   5:	48 89 e5             	mov    %rsp,%rbp
   8:	53                   	push   %rbx
   9:	48 83 ec 28          	sub    $0x28,%rsp
   d:	48 89 7d e8          	mov    %rdi,-0x18(%rbp)
  11:	48 89 75 e0          	mov    %rsi,-0x20(%rbp)
  15:	48 89 55 d8          	mov    %rdx,-0x28(%rbp)
  19:	48 89 4d d0          	mov    %rcx,-0x30(%rbp)
  1d:	48 8b 45 e0          	mov    -0x20(%rbp),%rax
  21:	48 89 c7             	mov    %rax,%rdi
  24:	e8 00 00 00 00       	callq  29 <_ZSt34__uninitialized_move_if_noexcept_aIPhS0_SaIhEET0_T_S3_S2_RT1_+0x29>
  29:	48 89 c3             	mov    %rax,%rbx
  2c:	48 8b 45 e8          	mov    -0x18(%rbp),%rax
  30:	48 89 c7             	mov    %rax,%rdi
  33:	e8 00 00 00 00       	callq  38 <_ZSt34__uninitialized_move_if_noexcept_aIPhS0_SaIhEET0_T_S3_S2_RT1_+0x38>
  38:	48 89 c7             	mov    %rax,%rdi
  3b:	48 8b 55 d0          	mov    -0x30(%rbp),%rdx
  3f:	48 8b 45 d8          	mov    -0x28(%rbp),%rax
  43:	48 89 d1             	mov    %rdx,%rcx
  46:	48 89 c2             	mov    %rax,%rdx
  49:	48 89 de             	mov    %rbx,%rsi
  4c:	e8 00 00 00 00       	callq  51 <_ZSt34__uninitialized_move_if_noexcept_aIPhS0_SaIhEET0_T_S3_S2_RT1_+0x51>
  51:	48 83 c4 28          	add    $0x28,%rsp
  55:	5b                   	pop    %rbx
  56:	5d                   	pop    %rbp
  57:	c3                   	retq   

Disassembly of section .text._ZNSt16allocator_traitsISaIhEE10deallocateERS0_Phm:

0000000000000000 <_ZNSt16allocator_traitsISaIhEE10deallocateERS0_Phm>:
   0:	f3 0f 1e fa          	endbr64 
   4:	55                   	push   %rbp
   5:	48 89 e5             	mov    %rsp,%rbp
   8:	48 83 ec 20          	sub    $0x20,%rsp
   c:	48 89 7d f8          	mov    %rdi,-0x8(%rbp)
  10:	48 89 75 f0          	mov    %rsi,-0x10(%rbp)
  14:	48 89 55 e8          	mov    %rdx,-0x18(%rbp)
  18:	48 8b 55 e8          	mov    -0x18(%rbp),%rdx
  1c:	48 8b 4d f0          	mov    -0x10(%rbp),%rcx
  20:	48 8b 45 f8          	mov    -0x8(%rbp),%rax
  24:	48 89 ce             	mov    %rcx,%rsi
  27:	48 89 c7             	mov    %rax,%rdi
  2a:	e8 00 00 00 00       	callq  2f <_ZNSt16allocator_traitsISaIhEE10deallocateERS0_Phm+0x2f>
  2f:	90                   	nop
  30:	c9                   	leaveq 
  31:	c3                   	retq   

Disassembly of section .text._ZN9__gnu_cxx5__ops16_Iter_equals_valIKcEC2ERS2_:

0000000000000000 <_ZN9__gnu_cxx5__ops16_Iter_equals_valIKcEC1ERS2_>:
   0:	f3 0f 1e fa          	endbr64 
   4:	55                   	push   %rbp
   5:	48 89 e5             	mov    %rsp,%rbp
   8:	48 89 7d f8          	mov    %rdi,-0x8(%rbp)
   c:	48 89 75 f0          	mov    %rsi,-0x10(%rbp)
  10:	48 8b 45 f8          	mov    -0x8(%rbp),%rax
  14:	48 8b 55 f0          	mov    -0x10(%rbp),%rdx
  18:	48 89 10             	mov    %rdx,(%rax)
  1b:	90                   	nop
  1c:	5d                   	pop    %rbp
  1d:	c3                   	retq   

Disassembly of section .text._ZSt19__iterator_categoryIN9__gnu_cxx17__normal_iteratorIPhSt6vectorIhSaIhEEEEENSt15iterator_traitsIT_E17iterator_categoryERKS8_:

0000000000000000 <_ZSt19__iterator_categoryIN9__gnu_cxx17__normal_iteratorIPhSt6vectorIhSaIhEEEEENSt15iterator_traitsIT_E17iterator_categoryERKS8_>:
   0:	f3 0f 1e fa          	endbr64 
   4:	55                   	push   %rbp
   5:	48 89 e5             	mov    %rsp,%rbp
   8:	48 89 7d f8          	mov    %rdi,-0x8(%rbp)
   c:	5d                   	pop    %rbp
   d:	c3                   	retq   

Disassembly of section .text._ZSt9__find_ifIN9__gnu_cxx17__normal_iteratorIPhSt6vectorIhSaIhEEEENS0_5__ops16_Iter_equals_valIKcEEET_SB_SB_T0_St26random_access_iterator_tag:

0000000000000000 <_ZSt9__find_ifIN9__gnu_cxx17__normal_iteratorIPhSt6vectorIhSaIhEEEENS0_5__ops16_Iter_equals_valIKcEEET_SB_SB_T0_St26random_access_iterator_tag>:
   0:	f3 0f 1e fa          	endbr64 
   4:	55                   	push   %rbp
   5:	48 89 e5             	mov    %rsp,%rbp
   8:	48 83 ec 30          	sub    $0x30,%rsp
   c:	48 89 7d e8          	mov    %rdi,-0x18(%rbp)
  10:	48 89 75 e0          	mov    %rsi,-0x20(%rbp)
  14:	48 89 55 d8          	mov    %rdx,-0x28(%rbp)
  18:	48 8d 55 e8          	lea    -0x18(%rbp),%rdx
  1c:	48 8d 45 e0          	lea    -0x20(%rbp),%rax
  20:	48 89 d6             	mov    %rdx,%rsi
  23:	48 89 c7             	mov    %rax,%rdi
  26:	e8 00 00 00 00       	callq  2b <_ZSt9__find_ifIN9__gnu_cxx17__normal_iteratorIPhSt6vectorIhSaIhEEEENS0_5__ops16_Iter_equals_valIKcEEET_SB_SB_T0_St26random_access_iterator_tag+0x2b>
  2b:	48 c1 f8 02          	sar    $0x2,%rax
  2f:	48 89 45 f8          	mov    %rax,-0x8(%rbp)
  33:	48 83 7d f8 00       	cmpq   $0x0,-0x8(%rbp)
  38:	0f 8e ba 00 00 00    	jle    f8 <_ZSt9__find_ifIN9__gnu_cxx17__normal_iteratorIPhSt6vectorIhSaIhEEEENS0_5__ops16_Iter_equals_valIKcEEET_SB_SB_T0_St26random_access_iterator_tag+0xf8>
  3e:	48 8b 55 e8          	mov    -0x18(%rbp),%rdx
  42:	48 8d 45 d8          	lea    -0x28(%rbp),%rax
  46:	48 89 d6             	mov    %rdx,%rsi
  49:	48 89 c7             	mov    %rax,%rdi
  4c:	e8 00 00 00 00       	callq  51 <_ZSt9__find_ifIN9__gnu_cxx17__normal_iteratorIPhSt6vectorIhSaIhEEEENS0_5__ops16_Iter_equals_valIKcEEET_SB_SB_T0_St26random_access_iterator_tag+0x51>
  51:	84 c0                	test   %al,%al
  53:	74 09                	je     5e <_ZSt9__find_ifIN9__gnu_cxx17__normal_iteratorIPhSt6vectorIhSaIhEEEENS0_5__ops16_Iter_equals_valIKcEEET_SB_SB_T0_St26random_access_iterator_tag+0x5e>
  55:	48 8b 45 e8          	mov    -0x18(%rbp),%rax
  59:	e9 4a 01 00 00       	jmpq   1a8 <_ZSt9__find_ifIN9__gnu_cxx17__normal_iteratorIPhSt6vectorIhSaIhEEEENS0_5__ops16_Iter_equals_valIKcEEET_SB_SB_T0_St26random_access_iterator_tag+0x1a8>
  5e:	48 8d 45 e8          	lea    -0x18(%rbp),%rax
  62:	48 89 c7             	mov    %rax,%rdi
  65:	e8 00 00 00 00       	callq  6a <_ZSt9__find_ifIN9__gnu_cxx17__normal_iteratorIPhSt6vectorIhSaIhEEEENS0_5__ops16_Iter_equals_valIKcEEET_SB_SB_T0_St26random_access_iterator_tag+0x6a>
  6a:	48 8b 55 e8          	mov    -0x18(%rbp),%rdx
  6e:	48 8d 45 d8          	lea    -0x28(%rbp),%rax
  72:	48 89 d6             	mov    %rdx,%rsi
  75:	48 89 c7             	mov    %rax,%rdi
  78:	e8 00 00 00 00       	callq  7d <_ZSt9__find_ifIN9__gnu_cxx17__normal_iteratorIPhSt6vectorIhSaIhEEEENS0_5__ops16_Iter_equals_valIKcEEET_SB_SB_T0_St26random_access_iterator_tag+0x7d>
  7d:	84 c0                	test   %al,%al
  7f:	74 09                	je     8a <_ZSt9__find_ifIN9__gnu_cxx17__normal_iteratorIPhSt6vectorIhSaIhEEEENS0_5__ops16_Iter_equals_valIKcEEET_SB_SB_T0_St26random_access_iterator_tag+0x8a>
  81:	48 8b 45 e8          	mov    -0x18(%rbp),%rax
  85:	e9 1e 01 00 00       	jmpq   1a8 <_ZSt9__find_ifIN9__gnu_cxx17__normal_iteratorIPhSt6vectorIhSaIhEEEENS0_5__ops16_Iter_equals_valIKcEEET_SB_SB_T0_St26random_access_iterator_tag+0x1a8>
  8a:	48 8d 45 e8          	lea    -0x18(%rbp),%rax
  8e:	48 89 c7             	mov    %rax,%rdi
  91:	e8 00 00 00 00       	callq  96 <_ZSt9__find_ifIN9__gnu_cxx17__normal_iteratorIPhSt6vectorIhSaIhEEEENS0_5__ops16_Iter_equals_valIKcEEET_SB_SB_T0_St26random_access_iterator_tag+0x96>
  96:	48 8b 55 e8          	mov    -0x18(%rbp),%rdx
  9a:	48 8d 45 d8          	lea    -0x28(%rbp),%rax
  9e:	48 89 d6             	mov    %rdx,%rsi
  a1:	48 89 c7             	mov    %rax,%rdi
  a4:	e8 00 00 00 00       	callq  a9 <_ZSt9__find_ifIN9__gnu_cxx17__normal_iteratorIPhSt6vectorIhSaIhEEEENS0_5__ops16_Iter_equals_valIKcEEET_SB_SB_T0_St26random_access_iterator_tag+0xa9>
  a9:	84 c0                	test   %al,%al
  ab:	74 09                	je     b6 <_ZSt9__find_ifIN9__gnu_cxx17__normal_iteratorIPhSt6vectorIhSaIhEEEENS0_5__ops16_Iter_equals_valIKcEEET_SB_SB_T0_St26random_access_iterator_tag+0xb6>
  ad:	48 8b 45 e8          	mov    -0x18(%rbp),%rax
  b1:	e9 f2 00 00 00       	jmpq   1a8 <_ZSt9__find_ifIN9__gnu_cxx17__normal_iteratorIPhSt6vectorIhSaIhEEEENS0_5__ops16_Iter_equals_valIKcEEET_SB_SB_T0_St26random_access_iterator_tag+0x1a8>
  b6:	48 8d 45 e8          	lea    -0x18(%rbp),%rax
  ba:	48 89 c7             	mov    %rax,%rdi
  bd:	e8 00 00 00 00       	callq  c2 <_ZSt9__find_ifIN9__gnu_cxx17__normal_iteratorIPhSt6vectorIhSaIhEEEENS0_5__ops16_Iter_equals_valIKcEEET_SB_SB_T0_St26random_access_iterator_tag+0xc2>
  c2:	48 8b 55 e8          	mov    -0x18(%rbp),%rdx
  c6:	48 8d 45 d8          	lea    -0x28(%rbp),%rax
  ca:	48 89 d6             	mov    %rdx,%rsi
  cd:	48 89 c7             	mov    %rax,%rdi
  d0:	e8 00 00 00 00       	callq  d5 <_ZSt9__find_ifIN9__gnu_cxx17__normal_iteratorIPhSt6vectorIhSaIhEEEENS0_5__ops16_Iter_equals_valIKcEEET_SB_SB_T0_St26random_access_iterator_tag+0xd5>
  d5:	84 c0                	test   %al,%al
  d7:	74 09                	je     e2 <_ZSt9__find_ifIN9__gnu_cxx17__normal_iteratorIPhSt6vectorIhSaIhEEEENS0_5__ops16_Iter_equals_valIKcEEET_SB_SB_T0_St26random_access_iterator_tag+0xe2>
  d9:	48 8b 45 e8          	mov    -0x18(%rbp),%rax
  dd:	e9 c6 00 00 00       	jmpq   1a8 <_ZSt9__find_ifIN9__gnu_cxx17__normal_iteratorIPhSt6vectorIhSaIhEEEENS0_5__ops16_Iter_equals_valIKcEEET_SB_SB_T0_St26random_access_iterator_tag+0x1a8>
  e2:	48 8d 45 e8          	lea    -0x18(%rbp),%rax
  e6:	48 89 c7             	mov    %rax,%rdi
  e9:	e8 00 00 00 00       	callq  ee <_ZSt9__find_ifIN9__gnu_cxx17__normal_iteratorIPhSt6vectorIhSaIhEEEENS0_5__ops16_Iter_equals_valIKcEEET_SB_SB_T0_St26random_access_iterator_tag+0xee>
  ee:	48 83 6d f8 01       	subq   $0x1,-0x8(%rbp)
  f3:	e9 3b ff ff ff       	jmpq   33 <_ZSt9__find_ifIN9__gnu_cxx17__normal_iteratorIPhSt6vectorIhSaIhEEEENS0_5__ops16_Iter_equals_valIKcEEET_SB_SB_T0_St26random_access_iterator_tag+0x33>
  f8:	48 8d 55 e8          	lea    -0x18(%rbp),%rdx
  fc:	48 8d 45 e0          	lea    -0x20(%rbp),%rax
 100:	48 89 d6             	mov    %rdx,%rsi
 103:	48 89 c7             	mov    %rax,%rdi
 106:	e8 00 00 00 00       	callq  10b <_ZSt9__find_ifIN9__gnu_cxx17__normal_iteratorIPhSt6vectorIhSaIhEEEENS0_5__ops16_Iter_equals_valIKcEEET_SB_SB_T0_St26random_access_iterator_tag+0x10b>
 10b:	48 83 f8 03          	cmp    $0x3,%rax
 10f:	74 18                	je     129 <_ZSt9__find_ifIN9__gnu_cxx17__normal_iteratorIPhSt6vectorIhSaIhEEEENS0_5__ops16_Iter_equals_valIKcEEET_SB_SB_T0_St26random_access_iterator_tag+0x129>
 111:	48 83 f8 03          	cmp    $0x3,%rax
 115:	0f 8f 89 00 00 00    	jg     1a4 <_ZSt9__find_ifIN9__gnu_cxx17__normal_iteratorIPhSt6vectorIhSaIhEEEENS0_5__ops16_Iter_equals_valIKcEEET_SB_SB_T0_St26random_access_iterator_tag+0x1a4>
 11b:	48 83 f8 01          	cmp    $0x1,%rax
 11f:	74 5a                	je     17b <_ZSt9__find_ifIN9__gnu_cxx17__normal_iteratorIPhSt6vectorIhSaIhEEEENS0_5__ops16_Iter_equals_valIKcEEET_SB_SB_T0_St26random_access_iterator_tag+0x17b>
 121:	48 83 f8 02          	cmp    $0x2,%rax
 125:	74 2b                	je     152 <_ZSt9__find_ifIN9__gnu_cxx17__normal_iteratorIPhSt6vectorIhSaIhEEEENS0_5__ops16_Iter_equals_valIKcEEET_SB_SB_T0_St26random_access_iterator_tag+0x152>
 127:	eb 7b                	jmp    1a4 <_ZSt9__find_ifIN9__gnu_cxx17__normal_iteratorIPhSt6vectorIhSaIhEEEENS0_5__ops16_Iter_equals_valIKcEEET_SB_SB_T0_St26random_access_iterator_tag+0x1a4>
 129:	48 8b 55 e8          	mov    -0x18(%rbp),%rdx
 12d:	48 8d 45 d8          	lea    -0x28(%rbp),%rax
 131:	48 89 d6             	mov    %rdx,%rsi
 134:	48 89 c7             	mov    %rax,%rdi
 137:	e8 00 00 00 00       	callq  13c <_ZSt9__find_ifIN9__gnu_cxx17__normal_iteratorIPhSt6vectorIhSaIhEEEENS0_5__ops16_Iter_equals_valIKcEEET_SB_SB_T0_St26random_access_iterator_tag+0x13c>
 13c:	84 c0                	test   %al,%al
 13e:	74 06                	je     146 <_ZSt9__find_ifIN9__gnu_cxx17__normal_iteratorIPhSt6vectorIhSaIhEEEENS0_5__ops16_Iter_equals_valIKcEEET_SB_SB_T0_St26random_access_iterator_tag+0x146>
 140:	48 8b 45 e8          	mov    -0x18(%rbp),%rax
 144:	eb 62                	jmp    1a8 <_ZSt9__find_ifIN9__gnu_cxx17__normal_iteratorIPhSt6vectorIhSaIhEEEENS0_5__ops16_Iter_equals_valIKcEEET_SB_SB_T0_St26random_access_iterator_tag+0x1a8>
 146:	48 8d 45 e8          	lea    -0x18(%rbp),%rax
 14a:	48 89 c7             	mov    %rax,%rdi
 14d:	e8 00 00 00 00       	callq  152 <_ZSt9__find_ifIN9__gnu_cxx17__normal_iteratorIPhSt6vectorIhSaIhEEEENS0_5__ops16_Iter_equals_valIKcEEET_SB_SB_T0_St26random_access_iterator_tag+0x152>
 152:	48 8b 55 e8          	mov    -0x18(%rbp),%rdx
 156:	48 8d 45 d8          	lea    -0x28(%rbp),%rax
 15a:	48 89 d6             	mov    %rdx,%rsi
 15d:	48 89 c7             	mov    %rax,%rdi
 160:	e8 00 00 00 00       	callq  165 <_ZSt9__find_ifIN9__gnu_cxx17__normal_iteratorIPhSt6vectorIhSaIhEEEENS0_5__ops16_Iter_equals_valIKcEEET_SB_SB_T0_St26random_access_iterator_tag+0x165>
 165:	84 c0                	test   %al,%al
 167:	74 06                	je     16f <_ZSt9__find_ifIN9__gnu_cxx17__normal_iteratorIPhSt6vectorIhSaIhEEEENS0_5__ops16_Iter_equals_valIKcEEET_SB_SB_T0_St26random_access_iterator_tag+0x16f>
 169:	48 8b 45 e8          	mov    -0x18(%rbp),%rax
 16d:	eb 39                	jmp    1a8 <_ZSt9__find_ifIN9__gnu_cxx17__normal_iteratorIPhSt6vectorIhSaIhEEEENS0_5__ops16_Iter_equals_valIKcEEET_SB_SB_T0_St26random_access_iterator_tag+0x1a8>
 16f:	48 8d 45 e8          	lea    -0x18(%rbp),%rax
 173:	48 89 c7             	mov    %rax,%rdi
 176:	e8 00 00 00 00       	callq  17b <_ZSt9__find_ifIN9__gnu_cxx17__normal_iteratorIPhSt6vectorIhSaIhEEEENS0_5__ops16_Iter_equals_valIKcEEET_SB_SB_T0_St26random_access_iterator_tag+0x17b>
 17b:	48 8b 55 e8          	mov    -0x18(%rbp),%rdx
 17f:	48 8d 45 d8          	lea    -0x28(%rbp),%rax
 183:	48 89 d6             	mov    %rdx,%rsi
 186:	48 89 c7             	mov    %rax,%rdi
 189:	e8 00 00 00 00       	callq  18e <_ZSt9__find_ifIN9__gnu_cxx17__normal_iteratorIPhSt6vectorIhSaIhEEEENS0_5__ops16_Iter_equals_valIKcEEET_SB_SB_T0_St26random_access_iterator_tag+0x18e>
 18e:	84 c0                	test   %al,%al
 190:	74 06                	je     198 <_ZSt9__find_ifIN9__gnu_cxx17__normal_iteratorIPhSt6vectorIhSaIhEEEENS0_5__ops16_Iter_equals_valIKcEEET_SB_SB_T0_St26random_access_iterator_tag+0x198>
 192:	48 8b 45 e8          	mov    -0x18(%rbp),%rax
 196:	eb 10                	jmp    1a8 <_ZSt9__find_ifIN9__gnu_cxx17__normal_iteratorIPhSt6vectorIhSaIhEEEENS0_5__ops16_Iter_equals_valIKcEEET_SB_SB_T0_St26random_access_iterator_tag+0x1a8>
 198:	48 8d 45 e8          	lea    -0x18(%rbp),%rax
 19c:	48 89 c7             	mov    %rax,%rdi
 19f:	e8 00 00 00 00       	callq  1a4 <_ZSt9__find_ifIN9__gnu_cxx17__normal_iteratorIPhSt6vectorIhSaIhEEEENS0_5__ops16_Iter_equals_valIKcEEET_SB_SB_T0_St26random_access_iterator_tag+0x1a4>
 1a4:	48 8b 45 e0          	mov    -0x20(%rbp),%rax
 1a8:	c9                   	leaveq 
 1a9:	c3                   	retq   

Disassembly of section .text._ZNK9__gnu_cxx17__normal_iteratorIPcNSt7__cxx1112basic_stringIcSt11char_traitsIcESaIcEEEE4baseEv:

0000000000000000 <_ZNK9__gnu_cxx17__normal_iteratorIPcNSt7__cxx1112basic_stringIcSt11char_traitsIcESaIcEEEE4baseEv>:
   0:	f3 0f 1e fa          	endbr64 
   4:	55                   	push   %rbp
   5:	48 89 e5             	mov    %rsp,%rbp
   8:	48 89 7d f8          	mov    %rdi,-0x8(%rbp)
   c:	48 8b 45 f8          	mov    -0x8(%rbp),%rax
  10:	5d                   	pop    %rbp
  11:	c3                   	retq   

Disassembly of section .text._ZNSt7__cxx1112basic_stringIcSt11char_traitsIcESaIcEE19_M_replace_dispatchIN9__gnu_cxx17__normal_iteratorIPhSt6vectorIhSaIhEEEEEERS4_NS7_IPKcS4_EESG_T_SH_St12__false_type:

0000000000000000 <_ZNSt7__cxx1112basic_stringIcSt11char_traitsIcESaIcEE19_M_replace_dispatchIN9__gnu_cxx17__normal_iteratorIPhSt6vectorIhSaIhEEEEEERS4_NS7_IPKcS4_EESG_T_SH_St12__false_type>:
   0:	f3 0f 1e fa          	endbr64 
   4:	55                   	push   %rbp
   5:	48 89 e5             	mov    %rsp,%rbp
   8:	41 54                	push   %r12
   a:	53                   	push   %rbx
   b:	48 83 ec 70          	sub    $0x70,%rsp
   f:	48 89 7d a8          	mov    %rdi,-0x58(%rbp)
  13:	48 89 75 a0          	mov    %rsi,-0x60(%rbp)
  17:	48 89 55 98          	mov    %rdx,-0x68(%rbp)
  1b:	48 89 4d 90          	mov    %rcx,-0x70(%rbp)
  1f:	4c 89 45 88          	mov    %r8,-0x78(%rbp)
  23:	64 48 8b 04 25 28 00 	mov    %fs:0x28,%rax
  2a:	00 00 
  2c:	48 89 45 e8          	mov    %rax,-0x18(%rbp)
  30:	31 c0                	xor    %eax,%eax
  32:	48 8d 45 b0          	lea    -0x50(%rbp),%rax
  36:	48 89 c7             	mov    %rax,%rdi
  39:	e8 00 00 00 00       	callq  3e <_ZNSt7__cxx1112basic_stringIcSt11char_traitsIcESaIcEE19_M_replace_dispatchIN9__gnu_cxx17__normal_iteratorIPhSt6vectorIhSaIhEEEEEERS4_NS7_IPKcS4_EESG_T_SH_St12__false_type+0x3e>
  3e:	48 8d 4d b0          	lea    -0x50(%rbp),%rcx
  42:	48 8b 55 88          	mov    -0x78(%rbp),%rdx
  46:	48 8b 75 90          	mov    -0x70(%rbp),%rsi
  4a:	48 8d 45 c0          	lea    -0x40(%rbp),%rax
  4e:	48 89 c7             	mov    %rax,%rdi
  51:	e8 00 00 00 00       	callq  56 <_ZNSt7__cxx1112basic_stringIcSt11char_traitsIcESaIcEE19_M_replace_dispatchIN9__gnu_cxx17__normal_iteratorIPhSt6vectorIhSaIhEEEEEERS4_NS7_IPKcS4_EESG_T_SH_St12__false_type+0x56>
  56:	48 8d 45 b0          	lea    -0x50(%rbp),%rax
  5a:	48 89 c7             	mov    %rax,%rdi
  5d:	e8 00 00 00 00       	callq  62 <_ZNSt7__cxx1112basic_stringIcSt11char_traitsIcESaIcEE19_M_replace_dispatchIN9__gnu_cxx17__normal_iteratorIPhSt6vectorIhSaIhEEEEEERS4_NS7_IPKcS4_EESG_T_SH_St12__false_type+0x62>
  62:	48 8d 55 a0          	lea    -0x60(%rbp),%rdx
  66:	48 8d 45 98          	lea    -0x68(%rbp),%rax
  6a:	48 89 d6             	mov    %rdx,%rsi
  6d:	48 89 c7             	mov    %rax,%rdi
  70:	e8 00 00 00 00       	callq  75 <_ZNSt7__cxx1112basic_stringIcSt11char_traitsIcESaIcEE19_M_replace_dispatchIN9__gnu_cxx17__normal_iteratorIPhSt6vectorIhSaIhEEEEEERS4_NS7_IPKcS4_EESG_T_SH_St12__false_type+0x75>
  75:	48 89 45 b8          	mov    %rax,-0x48(%rbp)
  79:	48 8d 45 c0          	lea    -0x40(%rbp),%rax
  7d:	48 89 c7             	mov    %rax,%rdi
  80:	e8 00 00 00 00       	callq  85 <_ZNSt7__cxx1112basic_stringIcSt11char_traitsIcESaIcEE19_M_replace_dispatchIN9__gnu_cxx17__normal_iteratorIPhSt6vectorIhSaIhEEEEEERS4_NS7_IPKcS4_EESG_T_SH_St12__false_type+0x85>
  85:	49 89 c4             	mov    %rax,%r12
  88:	48 8d 45 c0          	lea    -0x40(%rbp),%rax
  8c:	48 89 c7             	mov    %rax,%rdi
  8f:	e8 00 00 00 00       	callq  94 <_ZNSt7__cxx1112basic_stringIcSt11char_traitsIcESaIcEE19_M_replace_dispatchIN9__gnu_cxx17__normal_iteratorIPhSt6vectorIhSaIhEEEEEERS4_NS7_IPKcS4_EESG_T_SH_St12__false_type+0x94>
  94:	48 89 c3             	mov    %rax,%rbx
  97:	48 8b 45 a8          	mov    -0x58(%rbp),%rax
  9b:	48 89 c7             	mov    %rax,%rdi
  9e:	e8 00 00 00 00       	callq  a3 <_ZNSt7__cxx1112basic_stringIcSt11char_traitsIcESaIcEE19_M_replace_dispatchIN9__gnu_cxx17__normal_iteratorIPhSt6vectorIhSaIhEEEEEERS4_NS7_IPKcS4_EESG_T_SH_St12__false_type+0xa3>
  a3:	48 89 45 b0          	mov    %rax,-0x50(%rbp)
  a7:	48 8d 55 b0          	lea    -0x50(%rbp),%rdx
  ab:	48 8d 45 a0          	lea    -0x60(%rbp),%rax
  af:	48 89 d6             	mov    %rdx,%rsi
  b2:	48 89 c7             	mov    %rax,%rdi
  b5:	e8 00 00 00 00       	callq  ba <_ZNSt7__cxx1112basic_stringIcSt11char_traitsIcESaIcEE19_M_replace_dispatchIN9__gnu_cxx17__normal_iteratorIPhSt6vectorIhSaIhEEEEEERS4_NS7_IPKcS4_EESG_T_SH_St12__false_type+0xba>
  ba:	48 89 c6             	mov    %rax,%rsi
  bd:	48 8b 55 b8          	mov    -0x48(%rbp),%rdx
  c1:	48 8b 45 a8          	mov    -0x58(%rbp),%rax
  c5:	4d 89 e0             	mov    %r12,%r8
  c8:	48 89 d9             	mov    %rbx,%rcx
  cb:	48 89 c7             	mov    %rax,%rdi
  ce:	e8 00 00 00 00       	callq  d3 <_ZNSt7__cxx1112basic_stringIcSt11char_traitsIcESaIcEE19_M_replace_dispatchIN9__gnu_cxx17__normal_iteratorIPhSt6vectorIhSaIhEEEEEERS4_NS7_IPKcS4_EESG_T_SH_St12__false_type+0xd3>
  d3:	48 89 c3             	mov    %rax,%rbx
  d6:	48 8d 45 c0          	lea    -0x40(%rbp),%rax
  da:	48 89 c7             	mov    %rax,%rdi
  dd:	e8 00 00 00 00       	callq  e2 <_ZNSt7__cxx1112basic_stringIcSt11char_traitsIcESaIcEE19_M_replace_dispatchIN9__gnu_cxx17__normal_iteratorIPhSt6vectorIhSaIhEEEEEERS4_NS7_IPKcS4_EESG_T_SH_St12__false_type+0xe2>
  e2:	48 89 d8             	mov    %rbx,%rax
  e5:	48 8b 4d e8          	mov    -0x18(%rbp),%rcx
  e9:	64 48 33 0c 25 28 00 	xor    %fs:0x28,%rcx
  f0:	00 00 
  f2:	74 43                	je     137 <_ZNSt7__cxx1112basic_stringIcSt11char_traitsIcESaIcEE19_M_replace_dispatchIN9__gnu_cxx17__normal_iteratorIPhSt6vectorIhSaIhEEEEEERS4_NS7_IPKcS4_EESG_T_SH_St12__false_type+0x137>
  f4:	eb 3c                	jmp    132 <_ZNSt7__cxx1112basic_stringIcSt11char_traitsIcESaIcEE19_M_replace_dispatchIN9__gnu_cxx17__normal_iteratorIPhSt6vectorIhSaIhEEEEEERS4_NS7_IPKcS4_EESG_T_SH_St12__false_type+0x132>
  f6:	f3 0f 1e fa          	endbr64 
  fa:	48 89 c3             	mov    %rax,%rbx
  fd:	48 8d 45 b0          	lea    -0x50(%rbp),%rax
 101:	48 89 c7             	mov    %rax,%rdi
 104:	e8 00 00 00 00       	callq  109 <_ZNSt7__cxx1112basic_stringIcSt11char_traitsIcESaIcEE19_M_replace_dispatchIN9__gnu_cxx17__normal_iteratorIPhSt6vectorIhSaIhEEEEEERS4_NS7_IPKcS4_EESG_T_SH_St12__false_type+0x109>
 109:	48 89 d8             	mov    %rbx,%rax
 10c:	48 89 c7             	mov    %rax,%rdi
 10f:	e8 00 00 00 00       	callq  114 <_ZNSt7__cxx1112basic_stringIcSt11char_traitsIcESaIcEE19_M_replace_dispatchIN9__gnu_cxx17__normal_iteratorIPhSt6vectorIhSaIhEEEEEERS4_NS7_IPKcS4_EESG_T_SH_St12__false_type+0x114>
 114:	f3 0f 1e fa          	endbr64 
 118:	48 89 c3             	mov    %rax,%rbx
 11b:	48 8d 45 c0          	lea    -0x40(%rbp),%rax
 11f:	48 89 c7             	mov    %rax,%rdi
 122:	e8 00 00 00 00       	callq  127 <_ZNSt7__cxx1112basic_stringIcSt11char_traitsIcESaIcEE19_M_replace_dispatchIN9__gnu_cxx17__normal_iteratorIPhSt6vectorIhSaIhEEEEEERS4_NS7_IPKcS4_EESG_T_SH_St12__false_type+0x127>
 127:	48 89 d8             	mov    %rbx,%rax
 12a:	48 89 c7             	mov    %rax,%rdi
 12d:	e8 00 00 00 00       	callq  132 <_ZNSt7__cxx1112basic_stringIcSt11char_traitsIcESaIcEE19_M_replace_dispatchIN9__gnu_cxx17__normal_iteratorIPhSt6vectorIhSaIhEEEEEERS4_NS7_IPKcS4_EESG_T_SH_St12__false_type+0x132>
 132:	e8 00 00 00 00       	callq  137 <_ZNSt7__cxx1112basic_stringIcSt11char_traitsIcESaIcEE19_M_replace_dispatchIN9__gnu_cxx17__normal_iteratorIPhSt6vectorIhSaIhEEEEEERS4_NS7_IPKcS4_EESG_T_SH_St12__false_type+0x137>
 137:	48 83 c4 70          	add    $0x70,%rsp
 13b:	5b                   	pop    %rbx
 13c:	41 5c                	pop    %r12
 13e:	5d                   	pop    %rbp
 13f:	c3                   	retq   

Disassembly of section .text._ZN9__gnu_cxx17__normal_iteratorIPKhSt6vectorIhSaIhEEEC2ERKS2_:

0000000000000000 <_ZN9__gnu_cxx17__normal_iteratorIPKhSt6vectorIhSaIhEEEC1ERKS2_>:
   0:	f3 0f 1e fa          	endbr64 
   4:	55                   	push   %rbp
   5:	48 89 e5             	mov    %rsp,%rbp
   8:	48 89 7d f8          	mov    %rdi,-0x8(%rbp)
   c:	48 89 75 f0          	mov    %rsi,-0x10(%rbp)
  10:	48 8b 45 f0          	mov    -0x10(%rbp),%rax
  14:	48 8b 10             	mov    (%rax),%rdx
  17:	48 8b 45 f8          	mov    -0x8(%rbp),%rax
  1b:	48 89 10             	mov    %rdx,(%rax)
  1e:	90                   	nop
  1f:	5d                   	pop    %rbp
  20:	c3                   	retq   

Disassembly of section .text._ZNK9__gnu_cxx17__normal_iteratorIPKhSt6vectorIhSaIhEEE4baseEv:

0000000000000000 <_ZNK9__gnu_cxx17__normal_iteratorIPKhSt6vectorIhSaIhEEE4baseEv>:
   0:	f3 0f 1e fa          	endbr64 
   4:	55                   	push   %rbp
   5:	48 89 e5             	mov    %rsp,%rbp
   8:	48 89 7d f8          	mov    %rdi,-0x8(%rbp)
   c:	48 8b 45 f8          	mov    -0x8(%rbp),%rax
  10:	5d                   	pop    %rbp
  11:	c3                   	retq   

Disassembly of section .text._ZSt4moveIN9__gnu_cxx17__normal_iteratorIPhSt6vectorIhSaIhEEEES6_ET0_T_S8_S7_:

0000000000000000 <_ZSt4moveIN9__gnu_cxx17__normal_iteratorIPhSt6vectorIhSaIhEEEES6_ET0_T_S8_S7_>:
   0:	f3 0f 1e fa          	endbr64 
   4:	55                   	push   %rbp
   5:	48 89 e5             	mov    %rsp,%rbp
   8:	53                   	push   %rbx
   9:	48 83 ec 28          	sub    $0x28,%rsp
   d:	48 89 7d e8          	mov    %rdi,-0x18(%rbp)
  11:	48 89 75 e0          	mov    %rsi,-0x20(%rbp)
  15:	48 89 55 d8          	mov    %rdx,-0x28(%rbp)
  19:	48 8b 45 e0          	mov    -0x20(%rbp),%rax
  1d:	48 89 c7             	mov    %rax,%rdi
  20:	e8 00 00 00 00       	callq  25 <_ZSt4moveIN9__gnu_cxx17__normal_iteratorIPhSt6vectorIhSaIhEEEES6_ET0_T_S8_S7_+0x25>
  25:	48 89 c3             	mov    %rax,%rbx
  28:	48 8b 45 e8          	mov    -0x18(%rbp),%rax
  2c:	48 89 c7             	mov    %rax,%rdi
  2f:	e8 00 00 00 00       	callq  34 <_ZSt4moveIN9__gnu_cxx17__normal_iteratorIPhSt6vectorIhSaIhEEEES6_ET0_T_S8_S7_+0x34>
  34:	48 89 c1             	mov    %rax,%rcx
  37:	48 8b 45 d8          	mov    -0x28(%rbp),%rax
  3b:	48 89 c2             	mov    %rax,%rdx
  3e:	48 89 de             	mov    %rbx,%rsi
  41:	48 89 cf             	mov    %rcx,%rdi
  44:	e8 00 00 00 00       	callq  49 <_ZSt4moveIN9__gnu_cxx17__normal_iteratorIPhSt6vectorIhSaIhEEEES6_ET0_T_S8_S7_+0x49>
  49:	48 83 c4 28          	add    $0x28,%rsp
  4d:	5b                   	pop    %rbx
  4e:	5d                   	pop    %rbp
  4f:	c3                   	retq   

Disassembly of section .text._ZN9__gnu_cxxmiIPhSt6vectorIhSaIhEEEENS_17__normal_iteratorIT_T0_E15difference_typeERKS8_SB_:

0000000000000000 <_ZN9__gnu_cxxmiIPhSt6vectorIhSaIhEEEENS_17__normal_iteratorIT_T0_E15difference_typeERKS8_SB_>:
   0:	f3 0f 1e fa          	endbr64 
   4:	55                   	push   %rbp
   5:	48 89 e5             	mov    %rsp,%rbp
   8:	53                   	push   %rbx
   9:	48 83 ec 18          	sub    $0x18,%rsp
   d:	48 89 7d e8          	mov    %rdi,-0x18(%rbp)
  11:	48 89 75 e0          	mov    %rsi,-0x20(%rbp)
  15:	48 8b 45 e8          	mov    -0x18(%rbp),%rax
  19:	48 89 c7             	mov    %rax,%rdi
  1c:	e8 00 00 00 00       	callq  21 <_ZN9__gnu_cxxmiIPhSt6vectorIhSaIhEEEENS_17__normal_iteratorIT_T0_E15difference_typeERKS8_SB_+0x21>
  21:	48 8b 18             	mov    (%rax),%rbx
  24:	48 8b 45 e0          	mov    -0x20(%rbp),%rax
  28:	48 89 c7             	mov    %rax,%rdi
  2b:	e8 00 00 00 00       	callq  30 <_ZN9__gnu_cxxmiIPhSt6vectorIhSaIhEEEENS_17__normal_iteratorIT_T0_E15difference_typeERKS8_SB_+0x30>
  30:	48 8b 00             	mov    (%rax),%rax
  33:	48 29 c3             	sub    %rax,%rbx
  36:	48 89 d8             	mov    %rbx,%rax
  39:	48 83 c4 18          	add    $0x18,%rsp
  3d:	5b                   	pop    %rbx
  3e:	5d                   	pop    %rbp
  3f:	c3                   	retq   

Disassembly of section .text._ZNSt6vectorIhSaIhEE15_M_range_insertIN9__gnu_cxx17__normal_iteratorIPhS1_EEEEvS6_T_S7_St20forward_iterator_tag:

0000000000000000 <_ZNSt6vectorIhSaIhEE15_M_range_insertIN9__gnu_cxx17__normal_iteratorIPhS1_EEEEvS6_T_S7_St20forward_iterator_tag>:
   0:	f3 0f 1e fa          	endbr64 
   4:	55                   	push   %rbp
   5:	48 89 e5             	mov    %rsp,%rbp
   8:	41 54                	push   %r12
   a:	53                   	push   %rbx
   b:	48 83 ec 60          	sub    $0x60,%rsp
   f:	48 89 7d a8          	mov    %rdi,-0x58(%rbp)
  13:	48 89 75 a0          	mov    %rsi,-0x60(%rbp)
  17:	48 89 55 98          	mov    %rdx,-0x68(%rbp)
  1b:	48 89 4d 90          	mov    %rcx,-0x70(%rbp)
  1f:	64 48 8b 04 25 28 00 	mov    %fs:0x28,%rax
  26:	00 00 
  28:	48 89 45 e8          	mov    %rax,-0x18(%rbp)
  2c:	31 c0                	xor    %eax,%eax
  2e:	48 8d 55 90          	lea    -0x70(%rbp),%rdx
  32:	48 8d 45 98          	lea    -0x68(%rbp),%rax
  36:	48 89 d6             	mov    %rdx,%rsi
  39:	48 89 c7             	mov    %rax,%rdi
  3c:	e8 00 00 00 00       	callq  41 <_ZNSt6vectorIhSaIhEE15_M_range_insertIN9__gnu_cxx17__normal_iteratorIPhS1_EEEEvS6_T_S7_St20forward_iterator_tag+0x41>
  41:	84 c0                	test   %al,%al
  43:	0f 84 9e 03 00 00    	je     3e7 <_ZNSt6vectorIhSaIhEE15_M_range_insertIN9__gnu_cxx17__normal_iteratorIPhS1_EEEEvS6_T_S7_St20forward_iterator_tag+0x3e7>
  49:	48 8b 55 90          	mov    -0x70(%rbp),%rdx
  4d:	48 8b 45 98          	mov    -0x68(%rbp),%rax
  51:	48 89 d6             	mov    %rdx,%rsi
  54:	48 89 c7             	mov    %rax,%rdi
  57:	e8 00 00 00 00       	callq  5c <_ZNSt6vectorIhSaIhEE15_M_range_insertIN9__gnu_cxx17__normal_iteratorIPhS1_EEEEvS6_T_S7_St20forward_iterator_tag+0x5c>
  5c:	48 89 45 c0          	mov    %rax,-0x40(%rbp)
  60:	48 8b 45 a8          	mov    -0x58(%rbp),%rax
  64:	48 8b 50 10          	mov    0x10(%rax),%rdx
  68:	48 8b 45 a8          	mov    -0x58(%rbp),%rax
  6c:	48 8b 40 08          	mov    0x8(%rax),%rax
  70:	48 29 c2             	sub    %rax,%rdx
  73:	48 89 d0             	mov    %rdx,%rax
  76:	48 39 45 c0          	cmp    %rax,-0x40(%rbp)
  7a:	0f 87 a8 01 00 00    	ja     228 <_ZNSt6vectorIhSaIhEE15_M_range_insertIN9__gnu_cxx17__normal_iteratorIPhS1_EEEEvS6_T_S7_St20forward_iterator_tag+0x228>
  80:	48 8b 45 a8          	mov    -0x58(%rbp),%rax
  84:	48 89 c7             	mov    %rax,%rdi
  87:	e8 00 00 00 00       	callq  8c <_ZNSt6vectorIhSaIhEE15_M_range_insertIN9__gnu_cxx17__normal_iteratorIPhS1_EEEEvS6_T_S7_St20forward_iterator_tag+0x8c>
  8c:	48 89 45 b0          	mov    %rax,-0x50(%rbp)
  90:	48 8d 55 a0          	lea    -0x60(%rbp),%rdx
  94:	48 8d 45 b0          	lea    -0x50(%rbp),%rax
  98:	48 89 d6             	mov    %rdx,%rsi
  9b:	48 89 c7             	mov    %rax,%rdi
  9e:	e8 00 00 00 00       	callq  a3 <_ZNSt6vectorIhSaIhEE15_M_range_insertIN9__gnu_cxx17__normal_iteratorIPhS1_EEEEvS6_T_S7_St20forward_iterator_tag+0xa3>
  a3:	48 89 45 d8          	mov    %rax,-0x28(%rbp)
  a7:	48 8b 45 a8          	mov    -0x58(%rbp),%rax
  ab:	48 8b 40 08          	mov    0x8(%rax),%rax
  af:	48 89 45 e0          	mov    %rax,-0x20(%rbp)
  b3:	48 8b 45 d8          	mov    -0x28(%rbp),%rax
  b7:	48 3b 45 c0          	cmp    -0x40(%rbp),%rax
  bb:	0f 86 9f 00 00 00    	jbe    160 <_ZNSt6vectorIhSaIhEE15_M_range_insertIN9__gnu_cxx17__normal_iteratorIPhS1_EEEEvS6_T_S7_St20forward_iterator_tag+0x160>
  c1:	48 8b 45 a8          	mov    -0x58(%rbp),%rax
  c5:	48 89 c7             	mov    %rax,%rdi
  c8:	e8 00 00 00 00       	callq  cd <_ZNSt6vectorIhSaIhEE15_M_range_insertIN9__gnu_cxx17__normal_iteratorIPhS1_EEEEvS6_T_S7_St20forward_iterator_tag+0xcd>
  cd:	48 89 c6             	mov    %rax,%rsi
  d0:	48 8b 45 a8          	mov    -0x58(%rbp),%rax
  d4:	48 8b 50 08          	mov    0x8(%rax),%rdx
  d8:	48 8b 45 a8          	mov    -0x58(%rbp),%rax
  dc:	48 8b 40 08          	mov    0x8(%rax),%rax
  e0:	48 8b 4d a8          	mov    -0x58(%rbp),%rcx
  e4:	48 8b 49 08          	mov    0x8(%rcx),%rcx
  e8:	48 8b 7d c0          	mov    -0x40(%rbp),%rdi
  ec:	48 f7 df             	neg    %rdi
  ef:	48 01 cf             	add    %rcx,%rdi
  f2:	48 89 f1             	mov    %rsi,%rcx
  f5:	48 89 c6             	mov    %rax,%rsi
  f8:	e8 00 00 00 00       	callq  fd <_ZNSt6vectorIhSaIhEE15_M_range_insertIN9__gnu_cxx17__normal_iteratorIPhS1_EEEEvS6_T_S7_St20forward_iterator_tag+0xfd>
  fd:	48 8b 45 a8          	mov    -0x58(%rbp),%rax
 101:	48 8b 50 08          	mov    0x8(%rax),%rdx
 105:	48 8b 45 c0          	mov    -0x40(%rbp),%rax
 109:	48 01 c2             	add    %rax,%rdx
 10c:	48 8b 45 a8          	mov    -0x58(%rbp),%rax
 110:	48 89 50 08          	mov    %rdx,0x8(%rax)
 114:	48 8b 45 c0          	mov    -0x40(%rbp),%rax
 118:	48 f7 d8             	neg    %rax
 11b:	48 89 c2             	mov    %rax,%rdx
 11e:	48 8b 45 e0          	mov    -0x20(%rbp),%rax
 122:	48 8d 1c 02          	lea    (%rdx,%rax,1),%rbx
 126:	48 8d 45 a0          	lea    -0x60(%rbp),%rax
 12a:	48 89 c7             	mov    %rax,%rdi
 12d:	e8 00 00 00 00       	callq  132 <_ZNSt6vectorIhSaIhEE15_M_range_insertIN9__gnu_cxx17__normal_iteratorIPhS1_EEEEvS6_T_S7_St20forward_iterator_tag+0x132>
 132:	48 8b 00             	mov    (%rax),%rax
 135:	48 8b 55 e0          	mov    -0x20(%rbp),%rdx
 139:	48 89 de             	mov    %rbx,%rsi
 13c:	48 89 c7             	mov    %rax,%rdi
 13f:	e8 00 00 00 00       	callq  144 <_ZNSt6vectorIhSaIhEE15_M_range_insertIN9__gnu_cxx17__normal_iteratorIPhS1_EEEEvS6_T_S7_St20forward_iterator_tag+0x144>
 144:	48 8b 55 a0          	mov    -0x60(%rbp),%rdx
 148:	48 8b 4d 90          	mov    -0x70(%rbp),%rcx
 14c:	48 8b 45 98          	mov    -0x68(%rbp),%rax
 150:	48 89 ce             	mov    %rcx,%rsi
 153:	48 89 c7             	mov    %rax,%rdi
 156:	e8 00 00 00 00       	callq  15b <_ZNSt6vectorIhSaIhEE15_M_range_insertIN9__gnu_cxx17__normal_iteratorIPhS1_EEEEvS6_T_S7_St20forward_iterator_tag+0x15b>
 15b:	e9 87 02 00 00       	jmpq   3e7 <_ZNSt6vectorIhSaIhEE15_M_range_insertIN9__gnu_cxx17__normal_iteratorIPhS1_EEEEvS6_T_S7_St20forward_iterator_tag+0x3e7>
 160:	48 8b 45 98          	mov    -0x68(%rbp),%rax
 164:	48 89 45 b0          	mov    %rax,-0x50(%rbp)
 168:	48 8b 55 d8          	mov    -0x28(%rbp),%rdx
 16c:	48 8d 45 b0          	lea    -0x50(%rbp),%rax
 170:	48 89 d6             	mov    %rdx,%rsi
 173:	48 89 c7             	mov    %rax,%rdi
 176:	e8 00 00 00 00       	callq  17b <_ZNSt6vectorIhSaIhEE15_M_range_insertIN9__gnu_cxx17__normal_iteratorIPhS1_EEEEvS6_T_S7_St20forward_iterator_tag+0x17b>
 17b:	48 8b 45 a8          	mov    -0x58(%rbp),%rax
 17f:	48 89 c7             	mov    %rax,%rdi
 182:	e8 00 00 00 00       	callq  187 <_ZNSt6vectorIhSaIhEE15_M_range_insertIN9__gnu_cxx17__normal_iteratorIPhS1_EEEEvS6_T_S7_St20forward_iterator_tag+0x187>
 187:	48 89 c1             	mov    %rax,%rcx
 18a:	48 8b 45 a8          	mov    -0x58(%rbp),%rax
 18e:	48 8b 50 08          	mov    0x8(%rax),%rdx
 192:	48 8b 75 90          	mov    -0x70(%rbp),%rsi
 196:	48 8b 45 b0          	mov    -0x50(%rbp),%rax
 19a:	48 89 c7             	mov    %rax,%rdi
 19d:	e8 00 00 00 00       	callq  1a2 <_ZNSt6vectorIhSaIhEE15_M_range_insertIN9__gnu_cxx17__normal_iteratorIPhS1_EEEEvS6_T_S7_St20forward_iterator_tag+0x1a2>
 1a2:	48 8b 45 a8          	mov    -0x58(%rbp),%rax
 1a6:	48 8b 50 08          	mov    0x8(%rax),%rdx
 1aa:	48 8b 45 c0          	mov    -0x40(%rbp),%rax
 1ae:	48 2b 45 d8          	sub    -0x28(%rbp),%rax
 1b2:	48 01 c2             	add    %rax,%rdx
 1b5:	48 8b 45 a8          	mov    -0x58(%rbp),%rax
 1b9:	48 89 50 08          	mov    %rdx,0x8(%rax)
 1bd:	48 8b 45 a8          	mov    -0x58(%rbp),%rax
 1c1:	48 89 c7             	mov    %rax,%rdi
 1c4:	e8 00 00 00 00       	callq  1c9 <_ZNSt6vectorIhSaIhEE15_M_range_insertIN9__gnu_cxx17__normal_iteratorIPhS1_EEEEvS6_T_S7_St20forward_iterator_tag+0x1c9>
 1c9:	49 89 c4             	mov    %rax,%r12
 1cc:	48 8b 45 a8          	mov    -0x58(%rbp),%rax
 1d0:	48 8b 58 08          	mov    0x8(%rax),%rbx
 1d4:	48 8d 45 a0          	lea    -0x60(%rbp),%rax
 1d8:	48 89 c7             	mov    %rax,%rdi
 1db:	e8 00 00 00 00       	callq  1e0 <_ZNSt6vectorIhSaIhEE15_M_range_insertIN9__gnu_cxx17__normal_iteratorIPhS1_EEEEvS6_T_S7_St20forward_iterator_tag+0x1e0>
 1e0:	48 8b 00             	mov    (%rax),%rax
 1e3:	48 8b 75 e0          	mov    -0x20(%rbp),%rsi
 1e7:	4c 89 e1             	mov    %r12,%rcx
 1ea:	48 89 da             	mov    %rbx,%rdx
 1ed:	48 89 c7             	mov    %rax,%rdi
 1f0:	e8 00 00 00 00       	callq  1f5 <_ZNSt6vectorIhSaIhEE15_M_range_insertIN9__gnu_cxx17__normal_iteratorIPhS1_EEEEvS6_T_S7_St20forward_iterator_tag+0x1f5>
 1f5:	48 8b 45 a8          	mov    -0x58(%rbp),%rax
 1f9:	48 8b 50 08          	mov    0x8(%rax),%rdx
 1fd:	48 8b 45 d8          	mov    -0x28(%rbp),%rax
 201:	48 01 c2             	add    %rax,%rdx
 204:	48 8b 45 a8          	mov    -0x58(%rbp),%rax
 208:	48 89 50 08          	mov    %rdx,0x8(%rax)
 20c:	48 8b 55 a0          	mov    -0x60(%rbp),%rdx
 210:	48 8b 4d b0          	mov    -0x50(%rbp),%rcx
 214:	48 8b 45 98          	mov    -0x68(%rbp),%rax
 218:	48 89 ce             	mov    %rcx,%rsi
 21b:	48 89 c7             	mov    %rax,%rdi
 21e:	e8 00 00 00 00       	callq  223 <_ZNSt6vectorIhSaIhEE15_M_range_insertIN9__gnu_cxx17__normal_iteratorIPhS1_EEEEvS6_T_S7_St20forward_iterator_tag+0x223>
 223:	e9 bf 01 00 00       	jmpq   3e7 <_ZNSt6vectorIhSaIhEE15_M_range_insertIN9__gnu_cxx17__normal_iteratorIPhS1_EEEEvS6_T_S7_St20forward_iterator_tag+0x3e7>
 228:	48 8b 4d c0          	mov    -0x40(%rbp),%rcx
 22c:	48 8b 45 a8          	mov    -0x58(%rbp),%rax
 230:	48 8d 15 00 00 00 00 	lea    0x0(%rip),%rdx        # 237 <_ZNSt6vectorIhSaIhEE15_M_range_insertIN9__gnu_cxx17__normal_iteratorIPhS1_EEEEvS6_T_S7_St20forward_iterator_tag+0x237>
 237:	48 89 ce             	mov    %rcx,%rsi
 23a:	48 89 c7             	mov    %rax,%rdi
 23d:	e8 00 00 00 00       	callq  242 <_ZNSt6vectorIhSaIhEE15_M_range_insertIN9__gnu_cxx17__normal_iteratorIPhS1_EEEEvS6_T_S7_St20forward_iterator_tag+0x242>
 242:	48 89 45 c8          	mov    %rax,-0x38(%rbp)
 246:	48 8b 45 a8          	mov    -0x58(%rbp),%rax
 24a:	48 8b 55 c8          	mov    -0x38(%rbp),%rdx
 24e:	48 89 d6             	mov    %rdx,%rsi
 251:	48 89 c7             	mov    %rax,%rdi
 254:	e8 00 00 00 00       	callq  259 <_ZNSt6vectorIhSaIhEE15_M_range_insertIN9__gnu_cxx17__normal_iteratorIPhS1_EEEEvS6_T_S7_St20forward_iterator_tag+0x259>
 259:	48 89 45 d0          	mov    %rax,-0x30(%rbp)
 25d:	48 8b 45 d0          	mov    -0x30(%rbp),%rax
 261:	48 89 45 b8          	mov    %rax,-0x48(%rbp)
 265:	48 8b 45 a8          	mov    -0x58(%rbp),%rax
 269:	48 89 c7             	mov    %rax,%rdi
 26c:	e8 00 00 00 00       	callq  271 <_ZNSt6vectorIhSaIhEE15_M_range_insertIN9__gnu_cxx17__normal_iteratorIPhS1_EEEEvS6_T_S7_St20forward_iterator_tag+0x271>
 271:	48 89 c3             	mov    %rax,%rbx
 274:	48 8d 45 a0          	lea    -0x60(%rbp),%rax
 278:	48 89 c7             	mov    %rax,%rdi
 27b:	e8 00 00 00 00       	callq  280 <_ZNSt6vectorIhSaIhEE15_M_range_insertIN9__gnu_cxx17__normal_iteratorIPhS1_EEEEvS6_T_S7_St20forward_iterator_tag+0x280>
 280:	48 8b 30             	mov    (%rax),%rsi
 283:	48 8b 45 a8          	mov    -0x58(%rbp),%rax
 287:	48 8b 00             	mov    (%rax),%rax
 28a:	48 8b 55 d0          	mov    -0x30(%rbp),%rdx
 28e:	48 89 d9             	mov    %rbx,%rcx
 291:	48 89 c7             	mov    %rax,%rdi
 294:	e8 00 00 00 00       	callq  299 <_ZNSt6vectorIhSaIhEE15_M_range_insertIN9__gnu_cxx17__normal_iteratorIPhS1_EEEEvS6_T_S7_St20forward_iterator_tag+0x299>
 299:	48 89 45 b8          	mov    %rax,-0x48(%rbp)
 29d:	48 8b 45 a8          	mov    -0x58(%rbp),%rax
 2a1:	48 89 c7             	mov    %rax,%rdi
 2a4:	e8 00 00 00 00       	callq  2a9 <_ZNSt6vectorIhSaIhEE15_M_range_insertIN9__gnu_cxx17__normal_iteratorIPhS1_EEEEvS6_T_S7_St20forward_iterator_tag+0x2a9>
 2a9:	48 89 c1             	mov    %rax,%rcx
 2ac:	48 8b 55 b8          	mov    -0x48(%rbp),%rdx
 2b0:	48 8b 75 90          	mov    -0x70(%rbp),%rsi
 2b4:	48 8b 45 98          	mov    -0x68(%rbp),%rax
 2b8:	48 89 c7             	mov    %rax,%rdi
 2bb:	e8 00 00 00 00       	callq  2c0 <_ZNSt6vectorIhSaIhEE15_M_range_insertIN9__gnu_cxx17__normal_iteratorIPhS1_EEEEvS6_T_S7_St20forward_iterator_tag+0x2c0>
 2c0:	48 89 45 b8          	mov    %rax,-0x48(%rbp)
 2c4:	48 8b 45 a8          	mov    -0x58(%rbp),%rax
 2c8:	48 89 c7             	mov    %rax,%rdi
 2cb:	e8 00 00 00 00       	callq  2d0 <_ZNSt6vectorIhSaIhEE15_M_range_insertIN9__gnu_cxx17__normal_iteratorIPhS1_EEEEvS6_T_S7_St20forward_iterator_tag+0x2d0>
 2d0:	49 89 c4             	mov    %rax,%r12
 2d3:	48 8b 45 a8          	mov    -0x58(%rbp),%rax
 2d7:	48 8b 58 08          	mov    0x8(%rax),%rbx
 2db:	48 8d 45 a0          	lea    -0x60(%rbp),%rax
 2df:	48 89 c7             	mov    %rax,%rdi
 2e2:	e8 00 00 00 00       	callq  2e7 <_ZNSt6vectorIhSaIhEE15_M_range_insertIN9__gnu_cxx17__normal_iteratorIPhS1_EEEEvS6_T_S7_St20forward_iterator_tag+0x2e7>
 2e7:	48 8b 00             	mov    (%rax),%rax
 2ea:	48 8b 55 b8          	mov    -0x48(%rbp),%rdx
 2ee:	4c 89 e1             	mov    %r12,%rcx
 2f1:	48 89 de             	mov    %rbx,%rsi
 2f4:	48 89 c7             	mov    %rax,%rdi
 2f7:	e8 00 00 00 00       	callq  2fc <_ZNSt6vectorIhSaIhEE15_M_range_insertIN9__gnu_cxx17__normal_iteratorIPhS1_EEEEvS6_T_S7_St20forward_iterator_tag+0x2fc>
 2fc:	48 89 45 b8          	mov    %rax,-0x48(%rbp)
 300:	48 8b 45 a8          	mov    -0x58(%rbp),%rax
 304:	48 89 c7             	mov    %rax,%rdi
 307:	e8 00 00 00 00       	callq  30c <_ZNSt6vectorIhSaIhEE15_M_range_insertIN9__gnu_cxx17__normal_iteratorIPhS1_EEEEvS6_T_S7_St20forward_iterator_tag+0x30c>
 30c:	48 89 c2             	mov    %rax,%rdx
 30f:	48 8b 45 a8          	mov    -0x58(%rbp),%rax
 313:	48 8b 48 08          	mov    0x8(%rax),%rcx
 317:	48 8b 45 a8          	mov    -0x58(%rbp),%rax
 31b:	48 8b 00             	mov    (%rax),%rax
 31e:	48 89 ce             	mov    %rcx,%rsi
 321:	48 89 c7             	mov    %rax,%rdi
 324:	e8 00 00 00 00       	callq  329 <_ZNSt6vectorIhSaIhEE15_M_range_insertIN9__gnu_cxx17__normal_iteratorIPhS1_EEEEvS6_T_S7_St20forward_iterator_tag+0x329>
 329:	48 8b 45 a8          	mov    -0x58(%rbp),%rax
 32d:	48 8b 55 a8          	mov    -0x58(%rbp),%rdx
 331:	48 8b 4a 10          	mov    0x10(%rdx),%rcx
 335:	48 8b 55 a8          	mov    -0x58(%rbp),%rdx
 339:	48 8b 12             	mov    (%rdx),%rdx
 33c:	48 29 d1             	sub    %rdx,%rcx
 33f:	48 89 ca             	mov    %rcx,%rdx
 342:	48 89 d6             	mov    %rdx,%rsi
 345:	48 8b 55 a8          	mov    -0x58(%rbp),%rdx
 349:	48 8b 0a             	mov    (%rdx),%rcx
 34c:	48 89 f2             	mov    %rsi,%rdx
 34f:	48 89 ce             	mov    %rcx,%rsi
 352:	48 89 c7             	mov    %rax,%rdi
 355:	e8 00 00 00 00       	callq  35a <_ZNSt6vectorIhSaIhEE15_M_range_insertIN9__gnu_cxx17__normal_iteratorIPhS1_EEEEvS6_T_S7_St20forward_iterator_tag+0x35a>
 35a:	48 8b 45 a8          	mov    -0x58(%rbp),%rax
 35e:	48 8b 55 d0          	mov    -0x30(%rbp),%rdx
 362:	48 89 10             	mov    %rdx,(%rax)
 365:	48 8b 45 a8          	mov    -0x58(%rbp),%rax
 369:	48 8b 55 b8          	mov    -0x48(%rbp),%rdx
 36d:	48 89 50 08          	mov    %rdx,0x8(%rax)
 371:	48 8b 55 d0          	mov    -0x30(%rbp),%rdx
 375:	48 8b 45 c8          	mov    -0x38(%rbp),%rax
 379:	48 01 c2             	add    %rax,%rdx
 37c:	48 8b 45 a8          	mov    -0x58(%rbp),%rax
 380:	48 89 50 10          	mov    %rdx,0x10(%rax)
 384:	eb 61                	jmp    3e7 <_ZNSt6vectorIhSaIhEE15_M_range_insertIN9__gnu_cxx17__normal_iteratorIPhS1_EEEEvS6_T_S7_St20forward_iterator_tag+0x3e7>
 386:	f3 0f 1e fa          	endbr64 
 38a:	48 89 c7             	mov    %rax,%rdi
 38d:	e8 00 00 00 00       	callq  392 <_ZNSt6vectorIhSaIhEE15_M_range_insertIN9__gnu_cxx17__normal_iteratorIPhS1_EEEEvS6_T_S7_St20forward_iterator_tag+0x392>
 392:	48 8b 45 a8          	mov    -0x58(%rbp),%rax
 396:	48 89 c7             	mov    %rax,%rdi
 399:	e8 00 00 00 00       	callq  39e <_ZNSt6vectorIhSaIhEE15_M_range_insertIN9__gnu_cxx17__normal_iteratorIPhS1_EEEEvS6_T_S7_St20forward_iterator_tag+0x39e>
 39e:	48 89 c2             	mov    %rax,%rdx
 3a1:	48 8b 4d b8          	mov    -0x48(%rbp),%rcx
 3a5:	48 8b 45 d0          	mov    -0x30(%rbp),%rax
 3a9:	48 89 ce             	mov    %rcx,%rsi
 3ac:	48 89 c7             	mov    %rax,%rdi
 3af:	e8 00 00 00 00       	callq  3b4 <_ZNSt6vectorIhSaIhEE15_M_range_insertIN9__gnu_cxx17__normal_iteratorIPhS1_EEEEvS6_T_S7_St20forward_iterator_tag+0x3b4>
 3b4:	48 8b 45 a8          	mov    -0x58(%rbp),%rax
 3b8:	48 8b 55 c8          	mov    -0x38(%rbp),%rdx
 3bc:	48 8b 4d d0          	mov    -0x30(%rbp),%rcx
 3c0:	48 89 ce             	mov    %rcx,%rsi
 3c3:	48 89 c7             	mov    %rax,%rdi
 3c6:	e8 00 00 00 00       	callq  3cb <_ZNSt6vectorIhSaIhEE15_M_range_insertIN9__gnu_cxx17__normal_iteratorIPhS1_EEEEvS6_T_S7_St20forward_iterator_tag+0x3cb>
 3cb:	e8 00 00 00 00       	callq  3d0 <_ZNSt6vectorIhSaIhEE15_M_range_insertIN9__gnu_cxx17__normal_iteratorIPhS1_EEEEvS6_T_S7_St20forward_iterator_tag+0x3d0>
 3d0:	f3 0f 1e fa          	endbr64 
 3d4:	48 89 c3             	mov    %rax,%rbx
 3d7:	e8 00 00 00 00       	callq  3dc <_ZNSt6vectorIhSaIhEE15_M_range_insertIN9__gnu_cxx17__normal_iteratorIPhS1_EEEEvS6_T_S7_St20forward_iterator_tag+0x3dc>
 3dc:	48 89 d8             	mov    %rbx,%rax
 3df:	48 89 c7             	mov    %rax,%rdi
 3e2:	e8 00 00 00 00       	callq  3e7 <_ZNSt6vectorIhSaIhEE15_M_range_insertIN9__gnu_cxx17__normal_iteratorIPhS1_EEEEvS6_T_S7_St20forward_iterator_tag+0x3e7>
 3e7:	90                   	nop
 3e8:	48 8b 45 e8          	mov    -0x18(%rbp),%rax
 3ec:	64 48 33 04 25 28 00 	xor    %fs:0x28,%rax
 3f3:	00 00 
 3f5:	74 05                	je     3fc <_ZNSt6vectorIhSaIhEE15_M_range_insertIN9__gnu_cxx17__normal_iteratorIPhS1_EEEEvS6_T_S7_St20forward_iterator_tag+0x3fc>
 3f7:	e8 00 00 00 00       	callq  3fc <_ZNSt6vectorIhSaIhEE15_M_range_insertIN9__gnu_cxx17__normal_iteratorIPhS1_EEEEvS6_T_S7_St20forward_iterator_tag+0x3fc>
 3fc:	48 83 c4 60          	add    $0x60,%rsp
 400:	5b                   	pop    %rbx
 401:	41 5c                	pop    %r12
 403:	5d                   	pop    %rbp
 404:	c3                   	retq   

Disassembly of section .text._ZN9__gnu_cxx13new_allocatorISt6vectorINSt7__cxx1112basic_stringIcSt11char_traitsIcESaIcEEESaIS7_EEEC2Ev:

0000000000000000 <_ZN9__gnu_cxx13new_allocatorISt6vectorINSt7__cxx1112basic_stringIcSt11char_traitsIcESaIcEEESaIS7_EEEC1Ev>:
   0:	f3 0f 1e fa          	endbr64 
   4:	55                   	push   %rbp
   5:	48 89 e5             	mov    %rsp,%rbp
   8:	48 89 7d f8          	mov    %rdi,-0x8(%rbp)
   c:	90                   	nop
   d:	5d                   	pop    %rbp
   e:	c3                   	retq   

Disassembly of section .text._ZNSt16allocator_traitsISaISt6vectorINSt7__cxx1112basic_stringIcSt11char_traitsIcESaIcEEESaIS6_EEEE10deallocateERS9_PS8_m:

0000000000000000 <_ZNSt16allocator_traitsISaISt6vectorINSt7__cxx1112basic_stringIcSt11char_traitsIcESaIcEEESaIS6_EEEE10deallocateERS9_PS8_m>:
   0:	f3 0f 1e fa          	endbr64 
   4:	55                   	push   %rbp
   5:	48 89 e5             	mov    %rsp,%rbp
   8:	48 83 ec 20          	sub    $0x20,%rsp
   c:	48 89 7d f8          	mov    %rdi,-0x8(%rbp)
  10:	48 89 75 f0          	mov    %rsi,-0x10(%rbp)
  14:	48 89 55 e8          	mov    %rdx,-0x18(%rbp)
  18:	48 8b 55 e8          	mov    -0x18(%rbp),%rdx
  1c:	48 8b 4d f0          	mov    -0x10(%rbp),%rcx
  20:	48 8b 45 f8          	mov    -0x8(%rbp),%rax
  24:	48 89 ce             	mov    %rcx,%rsi
  27:	48 89 c7             	mov    %rax,%rdi
  2a:	e8 00 00 00 00       	callq  2f <_ZNSt16allocator_traitsISaISt6vectorINSt7__cxx1112basic_stringIcSt11char_traitsIcESaIcEEESaIS6_EEEE10deallocateERS9_PS8_m+0x2f>
  2f:	90                   	nop
  30:	c9                   	leaveq 
  31:	c3                   	retq   

Disassembly of section .text._ZSt8_DestroyIPSt6vectorINSt7__cxx1112basic_stringIcSt11char_traitsIcESaIcEEESaIS6_EEEvT_SA_:

0000000000000000 <_ZSt8_DestroyIPSt6vectorINSt7__cxx1112basic_stringIcSt11char_traitsIcESaIcEEESaIS6_EEEvT_SA_>:
   0:	f3 0f 1e fa          	endbr64 
   4:	55                   	push   %rbp
   5:	48 89 e5             	mov    %rsp,%rbp
   8:	48 83 ec 10          	sub    $0x10,%rsp
   c:	48 89 7d f8          	mov    %rdi,-0x8(%rbp)
  10:	48 89 75 f0          	mov    %rsi,-0x10(%rbp)
  14:	48 8b 55 f0          	mov    -0x10(%rbp),%rdx
  18:	48 8b 45 f8          	mov    -0x8(%rbp),%rax
  1c:	48 89 d6             	mov    %rdx,%rsi
  1f:	48 89 c7             	mov    %rax,%rdi
  22:	e8 00 00 00 00       	callq  27 <_ZSt8_DestroyIPSt6vectorINSt7__cxx1112basic_stringIcSt11char_traitsIcESaIcEEESaIS6_EEEvT_SA_+0x27>
  27:	90                   	nop
  28:	c9                   	leaveq 
  29:	c3                   	retq   

Disassembly of section .text._ZN9__gnu_cxx13new_allocatorINSt7__cxx1112basic_stringIcSt11char_traitsIcESaIcEEEEC2Ev:

0000000000000000 <_ZN9__gnu_cxx13new_allocatorINSt7__cxx1112basic_stringIcSt11char_traitsIcESaIcEEEEC1Ev>:
   0:	f3 0f 1e fa          	endbr64 
   4:	55                   	push   %rbp
   5:	48 89 e5             	mov    %rsp,%rbp
   8:	48 89 7d f8          	mov    %rdi,-0x8(%rbp)
   c:	90                   	nop
   d:	5d                   	pop    %rbp
   e:	c3                   	retq   

Disassembly of section .text._ZNSt16allocator_traitsISaINSt7__cxx1112basic_stringIcSt11char_traitsIcESaIcEEEEE10deallocateERS6_PS5_m:

0000000000000000 <_ZNSt16allocator_traitsISaINSt7__cxx1112basic_stringIcSt11char_traitsIcESaIcEEEEE10deallocateERS6_PS5_m>:
   0:	f3 0f 1e fa          	endbr64 
   4:	55                   	push   %rbp
   5:	48 89 e5             	mov    %rsp,%rbp
   8:	48 83 ec 20          	sub    $0x20,%rsp
   c:	48 89 7d f8          	mov    %rdi,-0x8(%rbp)
  10:	48 89 75 f0          	mov    %rsi,-0x10(%rbp)
  14:	48 89 55 e8          	mov    %rdx,-0x18(%rbp)
  18:	48 8b 55 e8          	mov    -0x18(%rbp),%rdx
  1c:	48 8b 4d f0          	mov    -0x10(%rbp),%rcx
  20:	48 8b 45 f8          	mov    -0x8(%rbp),%rax
  24:	48 89 ce             	mov    %rcx,%rsi
  27:	48 89 c7             	mov    %rax,%rdi
  2a:	e8 00 00 00 00       	callq  2f <_ZNSt16allocator_traitsISaINSt7__cxx1112basic_stringIcSt11char_traitsIcESaIcEEEEE10deallocateERS6_PS5_m+0x2f>
  2f:	90                   	nop
  30:	c9                   	leaveq 
  31:	c3                   	retq   

Disassembly of section .text._ZSt8_DestroyIPNSt7__cxx1112basic_stringIcSt11char_traitsIcESaIcEEEEvT_S7_:

0000000000000000 <_ZSt8_DestroyIPNSt7__cxx1112basic_stringIcSt11char_traitsIcESaIcEEEEvT_S7_>:
   0:	f3 0f 1e fa          	endbr64 
   4:	55                   	push   %rbp
   5:	48 89 e5             	mov    %rsp,%rbp
   8:	48 83 ec 10          	sub    $0x10,%rsp
   c:	48 89 7d f8          	mov    %rdi,-0x8(%rbp)
  10:	48 89 75 f0          	mov    %rsi,-0x10(%rbp)
  14:	48 8b 55 f0          	mov    -0x10(%rbp),%rdx
  18:	48 8b 45 f8          	mov    -0x8(%rbp),%rax
  1c:	48 89 d6             	mov    %rdx,%rsi
  1f:	48 89 c7             	mov    %rax,%rdi
  22:	e8 00 00 00 00       	callq  27 <_ZSt8_DestroyIPNSt7__cxx1112basic_stringIcSt11char_traitsIcESaIcEEEEvT_S7_+0x27>
  27:	90                   	nop
  28:	c9                   	leaveq 
  29:	c3                   	retq   

Disassembly of section .text._ZSt7forwardIRKNSt7__cxx1112basic_stringIcSt11char_traitsIcESaIcEEEEOT_RNSt16remove_referenceIS8_E4typeE:

0000000000000000 <_ZSt7forwardIRKNSt7__cxx1112basic_stringIcSt11char_traitsIcESaIcEEEEOT_RNSt16remove_referenceIS8_E4typeE>:
   0:	f3 0f 1e fa          	endbr64 
   4:	55                   	push   %rbp
   5:	48 89 e5             	mov    %rsp,%rbp
   8:	48 89 7d f8          	mov    %rdi,-0x8(%rbp)
   c:	48 8b 45 f8          	mov    -0x8(%rbp),%rax
  10:	5d                   	pop    %rbp
  11:	c3                   	retq   

Disassembly of section .text._ZN9__gnu_cxx13new_allocatorINSt7__cxx1112basic_stringIcSt11char_traitsIcESaIcEEEE9constructIS6_JRKS6_EEEvPT_DpOT0_:

0000000000000000 <_ZN9__gnu_cxx13new_allocatorINSt7__cxx1112basic_stringIcSt11char_traitsIcESaIcEEEE9constructIS6_JRKS6_EEEvPT_DpOT0_>:
   0:	f3 0f 1e fa          	endbr64 
   4:	55                   	push   %rbp
   5:	48 89 e5             	mov    %rsp,%rbp
   8:	41 55                	push   %r13
   a:	41 54                	push   %r12
   c:	53                   	push   %rbx
   d:	48 83 ec 28          	sub    $0x28,%rsp
  11:	48 89 7d d8          	mov    %rdi,-0x28(%rbp)
  15:	48 89 75 d0          	mov    %rsi,-0x30(%rbp)
  19:	48 89 55 c8          	mov    %rdx,-0x38(%rbp)
  1d:	48 8b 45 c8          	mov    -0x38(%rbp),%rax
  21:	48 89 c7             	mov    %rax,%rdi
  24:	e8 00 00 00 00       	callq  29 <_ZN9__gnu_cxx13new_allocatorINSt7__cxx1112basic_stringIcSt11char_traitsIcESaIcEEEE9constructIS6_JRKS6_EEEvPT_DpOT0_+0x29>
  29:	49 89 c5             	mov    %rax,%r13
  2c:	48 8b 5d d0          	mov    -0x30(%rbp),%rbx
  30:	48 89 de             	mov    %rbx,%rsi
  33:	bf 20 00 00 00       	mov    $0x20,%edi
  38:	e8 00 00 00 00       	callq  3d <_ZN9__gnu_cxx13new_allocatorINSt7__cxx1112basic_stringIcSt11char_traitsIcESaIcEEEE9constructIS6_JRKS6_EEEvPT_DpOT0_+0x3d>
  3d:	49 89 c4             	mov    %rax,%r12
  40:	4c 89 ee             	mov    %r13,%rsi
  43:	4c 89 e7             	mov    %r12,%rdi
  46:	e8 00 00 00 00       	callq  4b <_ZN9__gnu_cxx13new_allocatorINSt7__cxx1112basic_stringIcSt11char_traitsIcESaIcEEEE9constructIS6_JRKS6_EEEvPT_DpOT0_+0x4b>
  4b:	eb 1d                	jmp    6a <_ZN9__gnu_cxx13new_allocatorINSt7__cxx1112basic_stringIcSt11char_traitsIcESaIcEEEE9constructIS6_JRKS6_EEEvPT_DpOT0_+0x6a>
  4d:	f3 0f 1e fa          	endbr64 
  51:	49 89 c5             	mov    %rax,%r13
  54:	48 89 de             	mov    %rbx,%rsi
  57:	4c 89 e7             	mov    %r12,%rdi
  5a:	e8 00 00 00 00       	callq  5f <_ZN9__gnu_cxx13new_allocatorINSt7__cxx1112basic_stringIcSt11char_traitsIcESaIcEEEE9constructIS6_JRKS6_EEEvPT_DpOT0_+0x5f>
  5f:	4c 89 e8             	mov    %r13,%rax
  62:	48 89 c7             	mov    %rax,%rdi
  65:	e8 00 00 00 00       	callq  6a <_ZN9__gnu_cxx13new_allocatorINSt7__cxx1112basic_stringIcSt11char_traitsIcESaIcEEEE9constructIS6_JRKS6_EEEvPT_DpOT0_+0x6a>
  6a:	48 83 c4 28          	add    $0x28,%rsp
  6e:	5b                   	pop    %rbx
  6f:	41 5c                	pop    %r12
  71:	41 5d                	pop    %r13
  73:	5d                   	pop    %rbp
  74:	c3                   	retq   

Disassembly of section .text._ZN9__gnu_cxx17__normal_iteratorIPNSt7__cxx1112basic_stringIcSt11char_traitsIcESaIcEEESt6vectorIS6_SaIS6_EEEC2ERKS7_:

0000000000000000 <_ZN9__gnu_cxx17__normal_iteratorIPNSt7__cxx1112basic_stringIcSt11char_traitsIcESaIcEEESt6vectorIS6_SaIS6_EEEC1ERKS7_>:
   0:	f3 0f 1e fa          	endbr64 
   4:	55                   	push   %rbp
   5:	48 89 e5             	mov    %rsp,%rbp
   8:	48 89 7d f8          	mov    %rdi,-0x8(%rbp)
   c:	48 89 75 f0          	mov    %rsi,-0x10(%rbp)
  10:	48 8b 45 f0          	mov    -0x10(%rbp),%rax
  14:	48 8b 10             	mov    (%rax),%rdx
  17:	48 8b 45 f8          	mov    -0x8(%rbp),%rax
  1b:	48 89 10             	mov    %rdx,(%rax)
  1e:	90                   	nop
  1f:	5d                   	pop    %rbp
  20:	c3                   	retq   

Disassembly of section .text._ZNKSt6vectorINSt7__cxx1112basic_stringIcSt11char_traitsIcESaIcEEESaIS5_EE12_M_check_lenEmPKc:

0000000000000000 <_ZNKSt6vectorINSt7__cxx1112basic_stringIcSt11char_traitsIcESaIcEEESaIS5_EE12_M_check_lenEmPKc>:
   0:	f3 0f 1e fa          	endbr64 
   4:	55                   	push   %rbp
   5:	48 89 e5             	mov    %rsp,%rbp
   8:	53                   	push   %rbx
   9:	48 83 ec 48          	sub    $0x48,%rsp
   d:	48 89 7d c8          	mov    %rdi,-0x38(%rbp)
  11:	48 89 75 c0          	mov    %rsi,-0x40(%rbp)
  15:	48 89 55 b8          	mov    %rdx,-0x48(%rbp)
  19:	64 48 8b 04 25 28 00 	mov    %fs:0x28,%rax
  20:	00 00 
  22:	48 89 45 e8          	mov    %rax,-0x18(%rbp)
  26:	31 c0                	xor    %eax,%eax
  28:	48 8b 45 c8          	mov    -0x38(%rbp),%rax
  2c:	48 89 c7             	mov    %rax,%rdi
  2f:	e8 00 00 00 00       	callq  34 <_ZNKSt6vectorINSt7__cxx1112basic_stringIcSt11char_traitsIcESaIcEEESaIS5_EE12_M_check_lenEmPKc+0x34>
  34:	48 89 c3             	mov    %rax,%rbx
  37:	48 8b 45 c8          	mov    -0x38(%rbp),%rax
  3b:	48 89 c7             	mov    %rax,%rdi
  3e:	e8 00 00 00 00       	callq  43 <_ZNKSt6vectorINSt7__cxx1112basic_stringIcSt11char_traitsIcESaIcEEESaIS5_EE12_M_check_lenEmPKc+0x43>
  43:	48 29 c3             	sub    %rax,%rbx
  46:	48 89 da             	mov    %rbx,%rdx
  49:	48 8b 45 c0          	mov    -0x40(%rbp),%rax
  4d:	48 39 c2             	cmp    %rax,%rdx
  50:	0f 92 c0             	setb   %al
  53:	84 c0                	test   %al,%al
  55:	74 0c                	je     63 <_ZNKSt6vectorINSt7__cxx1112basic_stringIcSt11char_traitsIcESaIcEEESaIS5_EE12_M_check_lenEmPKc+0x63>
  57:	48 8b 45 b8          	mov    -0x48(%rbp),%rax
  5b:	48 89 c7             	mov    %rax,%rdi
  5e:	e8 00 00 00 00       	callq  63 <_ZNKSt6vectorINSt7__cxx1112basic_stringIcSt11char_traitsIcESaIcEEESaIS5_EE12_M_check_lenEmPKc+0x63>
  63:	48 8b 45 c8          	mov    -0x38(%rbp),%rax
  67:	48 89 c7             	mov    %rax,%rdi
  6a:	e8 00 00 00 00       	callq  6f <_ZNKSt6vectorINSt7__cxx1112basic_stringIcSt11char_traitsIcESaIcEEESaIS5_EE12_M_check_lenEmPKc+0x6f>
  6f:	48 89 c3             	mov    %rax,%rbx
  72:	48 8b 45 c8          	mov    -0x38(%rbp),%rax
  76:	48 89 c7             	mov    %rax,%rdi
  79:	e8 00 00 00 00       	callq  7e <_ZNKSt6vectorINSt7__cxx1112basic_stringIcSt11char_traitsIcESaIcEEESaIS5_EE12_M_check_lenEmPKc+0x7e>
  7e:	48 89 45 d8          	mov    %rax,-0x28(%rbp)
  82:	48 8d 55 c0          	lea    -0x40(%rbp),%rdx
  86:	48 8d 45 d8          	lea    -0x28(%rbp),%rax
  8a:	48 89 d6             	mov    %rdx,%rsi
  8d:	48 89 c7             	mov    %rax,%rdi
  90:	e8 00 00 00 00       	callq  95 <_ZNKSt6vectorINSt7__cxx1112basic_stringIcSt11char_traitsIcESaIcEEESaIS5_EE12_M_check_lenEmPKc+0x95>
  95:	48 8b 00             	mov    (%rax),%rax
  98:	48 01 d8             	add    %rbx,%rax
  9b:	48 89 45 e0          	mov    %rax,-0x20(%rbp)
  9f:	48 8b 45 c8          	mov    -0x38(%rbp),%rax
  a3:	48 89 c7             	mov    %rax,%rdi
  a6:	e8 00 00 00 00       	callq  ab <_ZNKSt6vectorINSt7__cxx1112basic_stringIcSt11char_traitsIcESaIcEEESaIS5_EE12_M_check_lenEmPKc+0xab>
  ab:	48 39 45 e0          	cmp    %rax,-0x20(%rbp)
  af:	72 12                	jb     c3 <_ZNKSt6vectorINSt7__cxx1112basic_stringIcSt11char_traitsIcESaIcEEESaIS5_EE12_M_check_lenEmPKc+0xc3>
  b1:	48 8b 45 c8          	mov    -0x38(%rbp),%rax
  b5:	48 89 c7             	mov    %rax,%rdi
  b8:	e8 00 00 00 00       	callq  bd <_ZNKSt6vectorINSt7__cxx1112basic_stringIcSt11char_traitsIcESaIcEEESaIS5_EE12_M_check_lenEmPKc+0xbd>
  bd:	48 39 45 e0          	cmp    %rax,-0x20(%rbp)
  c1:	76 0e                	jbe    d1 <_ZNKSt6vectorINSt7__cxx1112basic_stringIcSt11char_traitsIcESaIcEEESaIS5_EE12_M_check_lenEmPKc+0xd1>
  c3:	48 8b 45 c8          	mov    -0x38(%rbp),%rax
  c7:	48 89 c7             	mov    %rax,%rdi
  ca:	e8 00 00 00 00       	callq  cf <_ZNKSt6vectorINSt7__cxx1112basic_stringIcSt11char_traitsIcESaIcEEESaIS5_EE12_M_check_lenEmPKc+0xcf>
  cf:	eb 04                	jmp    d5 <_ZNKSt6vectorINSt7__cxx1112basic_stringIcSt11char_traitsIcESaIcEEESaIS5_EE12_M_check_lenEmPKc+0xd5>
  d1:	48 8b 45 e0          	mov    -0x20(%rbp),%rax
  d5:	48 8b 4d e8          	mov    -0x18(%rbp),%rcx
  d9:	64 48 33 0c 25 28 00 	xor    %fs:0x28,%rcx
  e0:	00 00 
  e2:	74 05                	je     e9 <_ZNKSt6vectorINSt7__cxx1112basic_stringIcSt11char_traitsIcESaIcEEESaIS5_EE12_M_check_lenEmPKc+0xe9>
  e4:	e8 00 00 00 00       	callq  e9 <_ZNKSt6vectorINSt7__cxx1112basic_stringIcSt11char_traitsIcESaIcEEESaIS5_EE12_M_check_lenEmPKc+0xe9>
  e9:	48 83 c4 48          	add    $0x48,%rsp
  ed:	5b                   	pop    %rbx
  ee:	5d                   	pop    %rbp
  ef:	c3                   	retq   

Disassembly of section .text._ZNSt6vectorINSt7__cxx1112basic_stringIcSt11char_traitsIcESaIcEEESaIS5_EE5beginEv:

0000000000000000 <_ZNSt6vectorINSt7__cxx1112basic_stringIcSt11char_traitsIcESaIcEEESaIS5_EE5beginEv>:
   0:	f3 0f 1e fa          	endbr64 
   4:	55                   	push   %rbp
   5:	48 89 e5             	mov    %rsp,%rbp
   8:	48 83 ec 20          	sub    $0x20,%rsp
   c:	48 89 7d e8          	mov    %rdi,-0x18(%rbp)
  10:	64 48 8b 04 25 28 00 	mov    %fs:0x28,%rax
  17:	00 00 
  19:	48 89 45 f8          	mov    %rax,-0x8(%rbp)
  1d:	31 c0                	xor    %eax,%eax
  1f:	48 8b 55 e8          	mov    -0x18(%rbp),%rdx
  23:	48 8d 45 f0          	lea    -0x10(%rbp),%rax
  27:	48 89 d6             	mov    %rdx,%rsi
  2a:	48 89 c7             	mov    %rax,%rdi
  2d:	e8 00 00 00 00       	callq  32 <_ZNSt6vectorINSt7__cxx1112basic_stringIcSt11char_traitsIcESaIcEEESaIS5_EE5beginEv+0x32>
  32:	48 8b 45 f0          	mov    -0x10(%rbp),%rax
  36:	48 8b 4d f8          	mov    -0x8(%rbp),%rcx
  3a:	64 48 33 0c 25 28 00 	xor    %fs:0x28,%rcx
  41:	00 00 
  43:	74 05                	je     4a <_ZNSt6vectorINSt7__cxx1112basic_stringIcSt11char_traitsIcESaIcEEESaIS5_EE5beginEv+0x4a>
  45:	e8 00 00 00 00       	callq  4a <_ZNSt6vectorINSt7__cxx1112basic_stringIcSt11char_traitsIcESaIcEEESaIS5_EE5beginEv+0x4a>
  4a:	c9                   	leaveq 
  4b:	c3                   	retq   

Disassembly of section .text._ZN9__gnu_cxxmiIPNSt7__cxx1112basic_stringIcSt11char_traitsIcESaIcEEESt6vectorIS6_SaIS6_EEEENS_17__normal_iteratorIT_T0_E15difference_typeERKSE_SH_:

0000000000000000 <_ZN9__gnu_cxxmiIPNSt7__cxx1112basic_stringIcSt11char_traitsIcESaIcEEESt6vectorIS6_SaIS6_EEEENS_17__normal_iteratorIT_T0_E15difference_typeERKSE_SH_>:
   0:	f3 0f 1e fa          	endbr64 
   4:	55                   	push   %rbp
   5:	48 89 e5             	mov    %rsp,%rbp
   8:	53                   	push   %rbx
   9:	48 83 ec 18          	sub    $0x18,%rsp
   d:	48 89 7d e8          	mov    %rdi,-0x18(%rbp)
  11:	48 89 75 e0          	mov    %rsi,-0x20(%rbp)
  15:	48 8b 45 e8          	mov    -0x18(%rbp),%rax
  19:	48 89 c7             	mov    %rax,%rdi
  1c:	e8 00 00 00 00       	callq  21 <_ZN9__gnu_cxxmiIPNSt7__cxx1112basic_stringIcSt11char_traitsIcESaIcEEESt6vectorIS6_SaIS6_EEEENS_17__normal_iteratorIT_T0_E15difference_typeERKSE_SH_+0x21>
  21:	48 8b 18             	mov    (%rax),%rbx
  24:	48 8b 45 e0          	mov    -0x20(%rbp),%rax
  28:	48 89 c7             	mov    %rax,%rdi
  2b:	e8 00 00 00 00       	callq  30 <_ZN9__gnu_cxxmiIPNSt7__cxx1112basic_stringIcSt11char_traitsIcESaIcEEESt6vectorIS6_SaIS6_EEEENS_17__normal_iteratorIT_T0_E15difference_typeERKSE_SH_+0x30>
  30:	48 8b 00             	mov    (%rax),%rax
  33:	48 29 c3             	sub    %rax,%rbx
  36:	48 89 d8             	mov    %rbx,%rax
  39:	48 c1 f8 05          	sar    $0x5,%rax
  3d:	48 83 c4 18          	add    $0x18,%rsp
  41:	5b                   	pop    %rbx
  42:	5d                   	pop    %rbp
  43:	c3                   	retq   

Disassembly of section .text._ZNSt12_Vector_baseINSt7__cxx1112basic_stringIcSt11char_traitsIcESaIcEEESaIS5_EE11_M_allocateEm:

0000000000000000 <_ZNSt12_Vector_baseINSt7__cxx1112basic_stringIcSt11char_traitsIcESaIcEEESaIS5_EE11_M_allocateEm>:
   0:	f3 0f 1e fa          	endbr64 
   4:	55                   	push   %rbp
   5:	48 89 e5             	mov    %rsp,%rbp
   8:	48 83 ec 10          	sub    $0x10,%rsp
   c:	48 89 7d f8          	mov    %rdi,-0x8(%rbp)
  10:	48 89 75 f0          	mov    %rsi,-0x10(%rbp)
  14:	48 83 7d f0 00       	cmpq   $0x0,-0x10(%rbp)
  19:	74 15                	je     30 <_ZNSt12_Vector_baseINSt7__cxx1112basic_stringIcSt11char_traitsIcESaIcEEESaIS5_EE11_M_allocateEm+0x30>
  1b:	48 8b 45 f8          	mov    -0x8(%rbp),%rax
  1f:	48 8b 55 f0          	mov    -0x10(%rbp),%rdx
  23:	48 89 d6             	mov    %rdx,%rsi
  26:	48 89 c7             	mov    %rax,%rdi
  29:	e8 00 00 00 00       	callq  2e <_ZNSt12_Vector_baseINSt7__cxx1112basic_stringIcSt11char_traitsIcESaIcEEESaIS5_EE11_M_allocateEm+0x2e>
  2e:	eb 05                	jmp    35 <_ZNSt12_Vector_baseINSt7__cxx1112basic_stringIcSt11char_traitsIcESaIcEEESaIS5_EE11_M_allocateEm+0x35>
  30:	b8 00 00 00 00       	mov    $0x0,%eax
  35:	c9                   	leaveq 
  36:	c3                   	retq   

Disassembly of section .text._ZNSt6vectorINSt7__cxx1112basic_stringIcSt11char_traitsIcESaIcEEESaIS5_EE11_S_relocateEPS5_S8_S8_RS6_:

0000000000000000 <_ZNSt6vectorINSt7__cxx1112basic_stringIcSt11char_traitsIcESaIcEEESaIS5_EE11_S_relocateEPS5_S8_S8_RS6_>:
   0:	f3 0f 1e fa          	endbr64 
   4:	55                   	push   %rbp
   5:	48 89 e5             	mov    %rsp,%rbp
   8:	48 83 ec 30          	sub    $0x30,%rsp
   c:	48 89 7d e8          	mov    %rdi,-0x18(%rbp)
  10:	48 89 75 e0          	mov    %rsi,-0x20(%rbp)
  14:	48 89 55 d8          	mov    %rdx,-0x28(%rbp)
  18:	48 89 4d d0          	mov    %rcx,-0x30(%rbp)
  1c:	64 48 8b 04 25 28 00 	mov    %fs:0x28,%rax
  23:	00 00 
  25:	48 89 45 f8          	mov    %rax,-0x8(%rbp)
  29:	31 c0                	xor    %eax,%eax
  2b:	48 8b 4d d0          	mov    -0x30(%rbp),%rcx
  2f:	48 8b 55 d8          	mov    -0x28(%rbp),%rdx
  33:	48 8b 75 e0          	mov    -0x20(%rbp),%rsi
  37:	48 8b 45 e8          	mov    -0x18(%rbp),%rax
  3b:	48 89 c7             	mov    %rax,%rdi
  3e:	e8 00 00 00 00       	callq  43 <_ZNSt6vectorINSt7__cxx1112basic_stringIcSt11char_traitsIcESaIcEEESaIS5_EE11_S_relocateEPS5_S8_S8_RS6_+0x43>
  43:	48 8b 7d f8          	mov    -0x8(%rbp),%rdi
  47:	64 48 33 3c 25 28 00 	xor    %fs:0x28,%rdi
  4e:	00 00 
  50:	74 05                	je     57 <_ZNSt6vectorINSt7__cxx1112basic_stringIcSt11char_traitsIcESaIcEEESaIS5_EE11_S_relocateEPS5_S8_S8_RS6_+0x57>
  52:	e8 00 00 00 00       	callq  57 <_ZNSt6vectorINSt7__cxx1112basic_stringIcSt11char_traitsIcESaIcEEESaIS5_EE11_S_relocateEPS5_S8_S8_RS6_+0x57>
  57:	c9                   	leaveq 
  58:	c3                   	retq   

Disassembly of section .text._ZNK9__gnu_cxx17__normal_iteratorIPNSt7__cxx1112basic_stringIcSt11char_traitsIcESaIcEEESt6vectorIS6_SaIS6_EEE4baseEv:

0000000000000000 <_ZNK9__gnu_cxx17__normal_iteratorIPNSt7__cxx1112basic_stringIcSt11char_traitsIcESaIcEEESt6vectorIS6_SaIS6_EEE4baseEv>:
   0:	f3 0f 1e fa          	endbr64 
   4:	55                   	push   %rbp
   5:	48 89 e5             	mov    %rsp,%rbp
   8:	48 89 7d f8          	mov    %rdi,-0x8(%rbp)
   c:	48 8b 45 f8          	mov    -0x8(%rbp),%rax
  10:	5d                   	pop    %rbp
  11:	c3                   	retq   

Disassembly of section .text._ZSt34__uninitialized_move_if_noexcept_aIPNSt7__cxx1112basic_stringIcSt11char_traitsIcESaIcEEES6_SaIS5_EET0_T_S9_S8_RT1_:

0000000000000000 <_ZSt34__uninitialized_move_if_noexcept_aIPNSt7__cxx1112basic_stringIcSt11char_traitsIcESaIcEEES6_SaIS5_EET0_T_S9_S8_RT1_>:
   0:	f3 0f 1e fa          	endbr64 
   4:	55                   	push   %rbp
   5:	48 89 e5             	mov    %rsp,%rbp
   8:	53                   	push   %rbx
   9:	48 83 ec 28          	sub    $0x28,%rsp
   d:	48 89 7d e8          	mov    %rdi,-0x18(%rbp)
  11:	48 89 75 e0          	mov    %rsi,-0x20(%rbp)
  15:	48 89 55 d8          	mov    %rdx,-0x28(%rbp)
  19:	48 89 4d d0          	mov    %rcx,-0x30(%rbp)
  1d:	48 8b 45 e0          	mov    -0x20(%rbp),%rax
  21:	48 89 c7             	mov    %rax,%rdi
  24:	e8 00 00 00 00       	callq  29 <_ZSt34__uninitialized_move_if_noexcept_aIPNSt7__cxx1112basic_stringIcSt11char_traitsIcESaIcEEES6_SaIS5_EET0_T_S9_S8_RT1_+0x29>
  29:	48 89 c3             	mov    %rax,%rbx
  2c:	48 8b 45 e8          	mov    -0x18(%rbp),%rax
  30:	48 89 c7             	mov    %rax,%rdi
  33:	e8 00 00 00 00       	callq  38 <_ZSt34__uninitialized_move_if_noexcept_aIPNSt7__cxx1112basic_stringIcSt11char_traitsIcESaIcEEES6_SaIS5_EET0_T_S9_S8_RT1_+0x38>
  38:	48 89 c7             	mov    %rax,%rdi
  3b:	48 8b 55 d0          	mov    -0x30(%rbp),%rdx
  3f:	48 8b 45 d8          	mov    -0x28(%rbp),%rax
  43:	48 89 d1             	mov    %rdx,%rcx
  46:	48 89 c2             	mov    %rax,%rdx
  49:	48 89 de             	mov    %rbx,%rsi
  4c:	e8 00 00 00 00       	callq  51 <_ZSt34__uninitialized_move_if_noexcept_aIPNSt7__cxx1112basic_stringIcSt11char_traitsIcESaIcEEES6_SaIS5_EET0_T_S9_S8_RT1_+0x51>
  51:	48 83 c4 28          	add    $0x28,%rsp
  55:	5b                   	pop    %rbx
  56:	5d                   	pop    %rbp
  57:	c3                   	retq   

Disassembly of section .text._ZNSt16allocator_traitsISaINSt7__cxx1112basic_stringIcSt11char_traitsIcESaIcEEEEE7destroyIS5_EEvRS6_PT_:

0000000000000000 <_ZNSt16allocator_traitsISaINSt7__cxx1112basic_stringIcSt11char_traitsIcESaIcEEEEE7destroyIS5_EEvRS6_PT_>:
   0:	f3 0f 1e fa          	endbr64 
   4:	55                   	push   %rbp
   5:	48 89 e5             	mov    %rsp,%rbp
   8:	48 83 ec 10          	sub    $0x10,%rsp
   c:	48 89 7d f8          	mov    %rdi,-0x8(%rbp)
  10:	48 89 75 f0          	mov    %rsi,-0x10(%rbp)
  14:	48 8b 55 f0          	mov    -0x10(%rbp),%rdx
  18:	48 8b 45 f8          	mov    -0x8(%rbp),%rax
  1c:	48 89 d6             	mov    %rdx,%rsi
  1f:	48 89 c7             	mov    %rax,%rdi
  22:	e8 00 00 00 00       	callq  27 <_ZNSt16allocator_traitsISaINSt7__cxx1112basic_stringIcSt11char_traitsIcESaIcEEEEE7destroyIS5_EEvRS6_PT_+0x27>
  27:	90                   	nop
  28:	c9                   	leaveq 
  29:	c3                   	retq   

Disassembly of section .text._ZSt7forwardINSt7__cxx1112basic_stringIcSt11char_traitsIcESaIcEEEEOT_RNSt16remove_referenceIS6_E4typeE:

0000000000000000 <_ZSt7forwardINSt7__cxx1112basic_stringIcSt11char_traitsIcESaIcEEEEOT_RNSt16remove_referenceIS6_E4typeE>:
   0:	f3 0f 1e fa          	endbr64 
   4:	55                   	push   %rbp
   5:	48 89 e5             	mov    %rsp,%rbp
   8:	48 89 7d f8          	mov    %rdi,-0x8(%rbp)
   c:	48 8b 45 f8          	mov    -0x8(%rbp),%rax
  10:	5d                   	pop    %rbp
  11:	c3                   	retq   

Disassembly of section .text._ZNSt16allocator_traitsISaINSt7__cxx1112basic_stringIcSt11char_traitsIcESaIcEEEEE9constructIS5_JS5_EEEvRS6_PT_DpOT0_:

0000000000000000 <_ZNSt16allocator_traitsISaINSt7__cxx1112basic_stringIcSt11char_traitsIcESaIcEEEEE9constructIS5_JS5_EEEvRS6_PT_DpOT0_>:
   0:	f3 0f 1e fa          	endbr64 
   4:	55                   	push   %rbp
   5:	48 89 e5             	mov    %rsp,%rbp
   8:	48 83 ec 20          	sub    $0x20,%rsp
   c:	48 89 7d f8          	mov    %rdi,-0x8(%rbp)
  10:	48 89 75 f0          	mov    %rsi,-0x10(%rbp)
  14:	48 89 55 e8          	mov    %rdx,-0x18(%rbp)
  18:	48 8b 45 e8          	mov    -0x18(%rbp),%rax
  1c:	48 89 c7             	mov    %rax,%rdi
  1f:	e8 00 00 00 00       	callq  24 <_ZNSt16allocator_traitsISaINSt7__cxx1112basic_stringIcSt11char_traitsIcESaIcEEEEE9constructIS5_JS5_EEEvRS6_PT_DpOT0_+0x24>
  24:	48 89 c2             	mov    %rax,%rdx
  27:	48 8b 4d f0          	mov    -0x10(%rbp),%rcx
  2b:	48 8b 45 f8          	mov    -0x8(%rbp),%rax
  2f:	48 89 ce             	mov    %rcx,%rsi
  32:	48 89 c7             	mov    %rax,%rdi
  35:	e8 00 00 00 00       	callq  3a <_ZNSt16allocator_traitsISaINSt7__cxx1112basic_stringIcSt11char_traitsIcESaIcEEEEE9constructIS5_JS5_EEEvRS6_PT_DpOT0_+0x3a>
  3a:	90                   	nop
  3b:	c9                   	leaveq 
  3c:	c3                   	retq   

Disassembly of section .text._ZNSt6vectorINSt7__cxx1112basic_stringIcSt11char_traitsIcESaIcEEESaIS5_EE17_M_realloc_insertIJS5_EEEvN9__gnu_cxx17__normal_iteratorIPS5_S7_EEDpOT_:

0000000000000000 <_ZNSt6vectorINSt7__cxx1112basic_stringIcSt11char_traitsIcESaIcEEESaIS5_EE17_M_realloc_insertIJS5_EEEvN9__gnu_cxx17__normal_iteratorIPS5_S7_EEDpOT_>:
   0:	f3 0f 1e fa          	endbr64 
   4:	55                   	push   %rbp
   5:	48 89 e5             	mov    %rsp,%rbp
   8:	53                   	push   %rbx
   9:	48 83 ec 68          	sub    $0x68,%rsp
   d:	48 89 7d a8          	mov    %rdi,-0x58(%rbp)
  11:	48 89 75 a0          	mov    %rsi,-0x60(%rbp)
  15:	48 89 55 98          	mov    %rdx,-0x68(%rbp)
  19:	64 48 8b 04 25 28 00 	mov    %fs:0x28,%rax
  20:	00 00 
  22:	48 89 45 e8          	mov    %rax,-0x18(%rbp)
  26:	31 c0                	xor    %eax,%eax
  28:	48 8b 45 a8          	mov    -0x58(%rbp),%rax
  2c:	48 8d 15 00 00 00 00 	lea    0x0(%rip),%rdx        # 33 <_ZNSt6vectorINSt7__cxx1112basic_stringIcSt11char_traitsIcESaIcEEESaIS5_EE17_M_realloc_insertIJS5_EEEvN9__gnu_cxx17__normal_iteratorIPS5_S7_EEDpOT_+0x33>
  33:	be 01 00 00 00       	mov    $0x1,%esi
  38:	48 89 c7             	mov    %rax,%rdi
  3b:	e8 00 00 00 00       	callq  40 <_ZNSt6vectorINSt7__cxx1112basic_stringIcSt11char_traitsIcESaIcEEESaIS5_EE17_M_realloc_insertIJS5_EEEvN9__gnu_cxx17__normal_iteratorIPS5_S7_EEDpOT_+0x40>
  40:	48 89 45 c0          	mov    %rax,-0x40(%rbp)
  44:	48 8b 45 a8          	mov    -0x58(%rbp),%rax
  48:	48 8b 00             	mov    (%rax),%rax
  4b:	48 89 45 c8          	mov    %rax,-0x38(%rbp)
  4f:	48 8b 45 a8          	mov    -0x58(%rbp),%rax
  53:	48 8b 40 08          	mov    0x8(%rax),%rax
  57:	48 89 45 d0          	mov    %rax,-0x30(%rbp)
  5b:	48 8b 45 a8          	mov    -0x58(%rbp),%rax
  5f:	48 89 c7             	mov    %rax,%rdi
  62:	e8 00 00 00 00       	callq  67 <_ZNSt6vectorINSt7__cxx1112basic_stringIcSt11char_traitsIcESaIcEEESaIS5_EE17_M_realloc_insertIJS5_EEEvN9__gnu_cxx17__normal_iteratorIPS5_S7_EEDpOT_+0x67>
  67:	48 89 45 b0          	mov    %rax,-0x50(%rbp)
  6b:	48 8d 55 b0          	lea    -0x50(%rbp),%rdx
  6f:	48 8d 45 a0          	lea    -0x60(%rbp),%rax
  73:	48 89 d6             	mov    %rdx,%rsi
  76:	48 89 c7             	mov    %rax,%rdi
  79:	e8 00 00 00 00       	callq  7e <_ZNSt6vectorINSt7__cxx1112basic_stringIcSt11char_traitsIcESaIcEEESaIS5_EE17_M_realloc_insertIJS5_EEEvN9__gnu_cxx17__normal_iteratorIPS5_S7_EEDpOT_+0x7e>
  7e:	48 89 45 d8          	mov    %rax,-0x28(%rbp)
  82:	48 8b 45 a8          	mov    -0x58(%rbp),%rax
  86:	48 8b 55 c0          	mov    -0x40(%rbp),%rdx
  8a:	48 89 d6             	mov    %rdx,%rsi
  8d:	48 89 c7             	mov    %rax,%rdi
  90:	e8 00 00 00 00       	callq  95 <_ZNSt6vectorINSt7__cxx1112basic_stringIcSt11char_traitsIcESaIcEEESaIS5_EE17_M_realloc_insertIJS5_EEEvN9__gnu_cxx17__normal_iteratorIPS5_S7_EEDpOT_+0x95>
  95:	48 89 45 e0          	mov    %rax,-0x20(%rbp)
  99:	48 8b 45 e0          	mov    -0x20(%rbp),%rax
  9d:	48 89 45 b8          	mov    %rax,-0x48(%rbp)
  a1:	48 8b 45 98          	mov    -0x68(%rbp),%rax
  a5:	48 89 c7             	mov    %rax,%rdi
  a8:	e8 00 00 00 00       	callq  ad <_ZNSt6vectorINSt7__cxx1112basic_stringIcSt11char_traitsIcESaIcEEESaIS5_EE17_M_realloc_insertIJS5_EEEvN9__gnu_cxx17__normal_iteratorIPS5_S7_EEDpOT_+0xad>
  ad:	48 89 c2             	mov    %rax,%rdx
  b0:	48 8b 45 d8          	mov    -0x28(%rbp),%rax
  b4:	48 c1 e0 05          	shl    $0x5,%rax
  b8:	48 89 c1             	mov    %rax,%rcx
  bb:	48 8b 45 e0          	mov    -0x20(%rbp),%rax
  bf:	48 01 c1             	add    %rax,%rcx
  c2:	48 8b 45 a8          	mov    -0x58(%rbp),%rax
  c6:	48 89 ce             	mov    %rcx,%rsi
  c9:	48 89 c7             	mov    %rax,%rdi
  cc:	e8 00 00 00 00       	callq  d1 <_ZNSt6vectorINSt7__cxx1112basic_stringIcSt11char_traitsIcESaIcEEESaIS5_EE17_M_realloc_insertIJS5_EEEvN9__gnu_cxx17__normal_iteratorIPS5_S7_EEDpOT_+0xd1>
  d1:	48 c7 45 b8 00 00 00 	movq   $0x0,-0x48(%rbp)
  d8:	00 
  d9:	e8 00 00 00 00       	callq  de <_ZNSt6vectorINSt7__cxx1112basic_stringIcSt11char_traitsIcESaIcEEESaIS5_EE17_M_realloc_insertIJS5_EEEvN9__gnu_cxx17__normal_iteratorIPS5_S7_EEDpOT_+0xde>
  de:	84 c0                	test   %al,%al
  e0:	74 71                	je     153 <_ZNSt6vectorINSt7__cxx1112basic_stringIcSt11char_traitsIcESaIcEEESaIS5_EE17_M_realloc_insertIJS5_EEEvN9__gnu_cxx17__normal_iteratorIPS5_S7_EEDpOT_+0x153>
  e2:	48 8b 45 a8          	mov    -0x58(%rbp),%rax
  e6:	48 89 c7             	mov    %rax,%rdi
  e9:	e8 00 00 00 00       	callq  ee <_ZNSt6vectorINSt7__cxx1112basic_stringIcSt11char_traitsIcESaIcEEESaIS5_EE17_M_realloc_insertIJS5_EEEvN9__gnu_cxx17__normal_iteratorIPS5_S7_EEDpOT_+0xee>
  ee:	48 89 c3             	mov    %rax,%rbx
  f1:	48 8d 45 a0          	lea    -0x60(%rbp),%rax
  f5:	48 89 c7             	mov    %rax,%rdi
  f8:	e8 00 00 00 00       	callq  fd <_ZNSt6vectorINSt7__cxx1112basic_stringIcSt11char_traitsIcESaIcEEESaIS5_EE17_M_realloc_insertIJS5_EEEvN9__gnu_cxx17__normal_iteratorIPS5_S7_EEDpOT_+0xfd>
  fd:	48 8b 30             	mov    (%rax),%rsi
 100:	48 8b 55 e0          	mov    -0x20(%rbp),%rdx
 104:	48 8b 45 c8          	mov    -0x38(%rbp),%rax
 108:	48 89 d9             	mov    %rbx,%rcx
 10b:	48 89 c7             	mov    %rax,%rdi
 10e:	e8 00 00 00 00       	callq  113 <_ZNSt6vectorINSt7__cxx1112basic_stringIcSt11char_traitsIcESaIcEEESaIS5_EE17_M_realloc_insertIJS5_EEEvN9__gnu_cxx17__normal_iteratorIPS5_S7_EEDpOT_+0x113>
 113:	48 89 45 b8          	mov    %rax,-0x48(%rbp)
 117:	48 83 45 b8 20       	addq   $0x20,-0x48(%rbp)
 11c:	48 8b 45 a8          	mov    -0x58(%rbp),%rax
 120:	48 89 c7             	mov    %rax,%rdi
 123:	e8 00 00 00 00       	callq  128 <_ZNSt6vectorINSt7__cxx1112basic_stringIcSt11char_traitsIcESaIcEEESaIS5_EE17_M_realloc_insertIJS5_EEEvN9__gnu_cxx17__normal_iteratorIPS5_S7_EEDpOT_+0x128>
 128:	48 89 c3             	mov    %rax,%rbx
 12b:	48 8d 45 a0          	lea    -0x60(%rbp),%rax
 12f:	48 89 c7             	mov    %rax,%rdi
 132:	e8 00 00 00 00       	callq  137 <_ZNSt6vectorINSt7__cxx1112basic_stringIcSt11char_traitsIcESaIcEEESaIS5_EE17_M_realloc_insertIJS5_EEEvN9__gnu_cxx17__normal_iteratorIPS5_S7_EEDpOT_+0x137>
 137:	48 8b 00             	mov    (%rax),%rax
 13a:	48 8b 55 b8          	mov    -0x48(%rbp),%rdx
 13e:	48 8b 75 d0          	mov    -0x30(%rbp),%rsi
 142:	48 89 d9             	mov    %rbx,%rcx
 145:	48 89 c7             	mov    %rax,%rdi
 148:	e8 00 00 00 00       	callq  14d <_ZNSt6vectorINSt7__cxx1112basic_stringIcSt11char_traitsIcESaIcEEESaIS5_EE17_M_realloc_insertIJS5_EEEvN9__gnu_cxx17__normal_iteratorIPS5_S7_EEDpOT_+0x14d>
 14d:	48 89 45 b8          	mov    %rax,-0x48(%rbp)
 151:	eb 6f                	jmp    1c2 <_ZNSt6vectorINSt7__cxx1112basic_stringIcSt11char_traitsIcESaIcEEESaIS5_EE17_M_realloc_insertIJS5_EEEvN9__gnu_cxx17__normal_iteratorIPS5_S7_EEDpOT_+0x1c2>
 153:	48 8b 45 a8          	mov    -0x58(%rbp),%rax
 157:	48 89 c7             	mov    %rax,%rdi
 15a:	e8 00 00 00 00       	callq  15f <_ZNSt6vectorINSt7__cxx1112basic_stringIcSt11char_traitsIcESaIcEEESaIS5_EE17_M_realloc_insertIJS5_EEEvN9__gnu_cxx17__normal_iteratorIPS5_S7_EEDpOT_+0x15f>
 15f:	48 89 c3             	mov    %rax,%rbx
 162:	48 8d 45 a0          	lea    -0x60(%rbp),%rax
 166:	48 89 c7             	mov    %rax,%rdi
 169:	e8 00 00 00 00       	callq  16e <_ZNSt6vectorINSt7__cxx1112basic_stringIcSt11char_traitsIcESaIcEEESaIS5_EE17_M_realloc_insertIJS5_EEEvN9__gnu_cxx17__normal_iteratorIPS5_S7_EEDpOT_+0x16e>
 16e:	48 8b 30             	mov    (%rax),%rsi
 171:	48 8b 55 e0          	mov    -0x20(%rbp),%rdx
 175:	48 8b 45 c8          	mov    -0x38(%rbp),%rax
 179:	48 89 d9             	mov    %rbx,%rcx
 17c:	48 89 c7             	mov    %rax,%rdi
 17f:	e8 00 00 00 00       	callq  184 <_ZNSt6vectorINSt7__cxx1112basic_stringIcSt11char_traitsIcESaIcEEESaIS5_EE17_M_realloc_insertIJS5_EEEvN9__gnu_cxx17__normal_iteratorIPS5_S7_EEDpOT_+0x184>
 184:	48 89 45 b8          	mov    %rax,-0x48(%rbp)
 188:	48 83 45 b8 20       	addq   $0x20,-0x48(%rbp)
 18d:	48 8b 45 a8          	mov    -0x58(%rbp),%rax
 191:	48 89 c7             	mov    %rax,%rdi
 194:	e8 00 00 00 00       	callq  199 <_ZNSt6vectorINSt7__cxx1112basic_stringIcSt11char_traitsIcESaIcEEESaIS5_EE17_M_realloc_insertIJS5_EEEvN9__gnu_cxx17__normal_iteratorIPS5_S7_EEDpOT_+0x199>
 199:	48 89 c3             	mov    %rax,%rbx
 19c:	48 8d 45 a0          	lea    -0x60(%rbp),%rax
 1a0:	48 89 c7             	mov    %rax,%rdi
 1a3:	e8 00 00 00 00       	callq  1a8 <_ZNSt6vectorINSt7__cxx1112basic_stringIcSt11char_traitsIcESaIcEEESaIS5_EE17_M_realloc_insertIJS5_EEEvN9__gnu_cxx17__normal_iteratorIPS5_S7_EEDpOT_+0x1a8>
 1a8:	48 8b 00             	mov    (%rax),%rax
 1ab:	48 8b 55 b8          	mov    -0x48(%rbp),%rdx
 1af:	48 8b 75 d0          	mov    -0x30(%rbp),%rsi
 1b3:	48 89 d9             	mov    %rbx,%rcx
 1b6:	48 89 c7             	mov    %rax,%rdi
 1b9:	e8 00 00 00 00       	callq  1be <_ZNSt6vectorINSt7__cxx1112basic_stringIcSt11char_traitsIcESaIcEEESaIS5_EE17_M_realloc_insertIJS5_EEEvN9__gnu_cxx17__normal_iteratorIPS5_S7_EEDpOT_+0x1be>
 1be:	48 89 45 b8          	mov    %rax,-0x48(%rbp)
 1c2:	e8 00 00 00 00       	callq  1c7 <_ZNSt6vectorINSt7__cxx1112basic_stringIcSt11char_traitsIcESaIcEEESaIS5_EE17_M_realloc_insertIJS5_EEEvN9__gnu_cxx17__normal_iteratorIPS5_S7_EEDpOT_+0x1c7>
 1c7:	83 f0 01             	xor    $0x1,%eax
 1ca:	84 c0                	test   %al,%al
 1cc:	74 22                	je     1f0 <_ZNSt6vectorINSt7__cxx1112basic_stringIcSt11char_traitsIcESaIcEEESaIS5_EE17_M_realloc_insertIJS5_EEEvN9__gnu_cxx17__normal_iteratorIPS5_S7_EEDpOT_+0x1f0>
 1ce:	48 8b 45 a8          	mov    -0x58(%rbp),%rax
 1d2:	48 89 c7             	mov    %rax,%rdi
 1d5:	e8 00 00 00 00       	callq  1da <_ZNSt6vectorINSt7__cxx1112basic_stringIcSt11char_traitsIcESaIcEEESaIS5_EE17_M_realloc_insertIJS5_EEEvN9__gnu_cxx17__normal_iteratorIPS5_S7_EEDpOT_+0x1da>
 1da:	48 89 c2             	mov    %rax,%rdx
 1dd:	48 8b 4d d0          	mov    -0x30(%rbp),%rcx
 1e1:	48 8b 45 c8          	mov    -0x38(%rbp),%rax
 1e5:	48 89 ce             	mov    %rcx,%rsi
 1e8:	48 89 c7             	mov    %rax,%rdi
 1eb:	e8 00 00 00 00       	callq  1f0 <_ZNSt6vectorINSt7__cxx1112basic_stringIcSt11char_traitsIcESaIcEEESaIS5_EE17_M_realloc_insertIJS5_EEEvN9__gnu_cxx17__normal_iteratorIPS5_S7_EEDpOT_+0x1f0>
 1f0:	48 8b 45 a8          	mov    -0x58(%rbp),%rax
 1f4:	48 8b 55 a8          	mov    -0x58(%rbp),%rdx
 1f8:	48 8b 52 10          	mov    0x10(%rdx),%rdx
 1fc:	48 2b 55 c8          	sub    -0x38(%rbp),%rdx
 200:	48 c1 fa 05          	sar    $0x5,%rdx
 204:	48 8b 4d c8          	mov    -0x38(%rbp),%rcx
 208:	48 89 ce             	mov    %rcx,%rsi
 20b:	48 89 c7             	mov    %rax,%rdi
 20e:	e8 00 00 00 00       	callq  213 <_ZNSt6vectorINSt7__cxx1112basic_stringIcSt11char_traitsIcESaIcEEESaIS5_EE17_M_realloc_insertIJS5_EEEvN9__gnu_cxx17__normal_iteratorIPS5_S7_EEDpOT_+0x213>
 213:	48 8b 45 a8          	mov    -0x58(%rbp),%rax
 217:	48 8b 55 e0          	mov    -0x20(%rbp),%rdx
 21b:	48 89 10             	mov    %rdx,(%rax)
 21e:	48 8b 45 a8          	mov    -0x58(%rbp),%rax
 222:	48 8b 55 b8          	mov    -0x48(%rbp),%rdx
 226:	48 89 50 08          	mov    %rdx,0x8(%rax)
 22a:	48 8b 45 c0          	mov    -0x40(%rbp),%rax
 22e:	48 c1 e0 05          	shl    $0x5,%rax
 232:	48 89 c2             	mov    %rax,%rdx
 235:	48 8b 45 e0          	mov    -0x20(%rbp),%rax
 239:	48 01 c2             	add    %rax,%rdx
 23c:	48 8b 45 a8          	mov    -0x58(%rbp),%rax
 240:	48 89 50 10          	mov    %rdx,0x10(%rax)
 244:	90                   	nop
 245:	48 8b 45 e8          	mov    -0x18(%rbp),%rax
 249:	64 48 33 04 25 28 00 	xor    %fs:0x28,%rax
 250:	00 00 
 252:	0f 84 95 00 00 00    	je     2ed <_ZNSt6vectorINSt7__cxx1112basic_stringIcSt11char_traitsIcESaIcEEESaIS5_EE17_M_realloc_insertIJS5_EEEvN9__gnu_cxx17__normal_iteratorIPS5_S7_EEDpOT_+0x2ed>
 258:	e9 8b 00 00 00       	jmpq   2e8 <_ZNSt6vectorINSt7__cxx1112basic_stringIcSt11char_traitsIcESaIcEEESaIS5_EE17_M_realloc_insertIJS5_EEEvN9__gnu_cxx17__normal_iteratorIPS5_S7_EEDpOT_+0x2e8>
 25d:	f3 0f 1e fa          	endbr64 
 261:	48 89 c7             	mov    %rax,%rdi
 264:	e8 00 00 00 00       	callq  269 <_ZNSt6vectorINSt7__cxx1112basic_stringIcSt11char_traitsIcESaIcEEESaIS5_EE17_M_realloc_insertIJS5_EEEvN9__gnu_cxx17__normal_iteratorIPS5_S7_EEDpOT_+0x269>
 269:	48 83 7d b8 00       	cmpq   $0x0,-0x48(%rbp)
 26e:	75 23                	jne    293 <_ZNSt6vectorINSt7__cxx1112basic_stringIcSt11char_traitsIcESaIcEEESaIS5_EE17_M_realloc_insertIJS5_EEEvN9__gnu_cxx17__normal_iteratorIPS5_S7_EEDpOT_+0x293>
 270:	48 8b 45 d8          	mov    -0x28(%rbp),%rax
 274:	48 c1 e0 05          	shl    $0x5,%rax
 278:	48 89 c2             	mov    %rax,%rdx
 27b:	48 8b 45 e0          	mov    -0x20(%rbp),%rax
 27f:	48 01 c2             	add    %rax,%rdx
 282:	48 8b 45 a8          	mov    -0x58(%rbp),%rax
 286:	48 89 d6             	mov    %rdx,%rsi
 289:	48 89 c7             	mov    %rax,%rdi
 28c:	e8 00 00 00 00       	callq  291 <_ZNSt6vectorINSt7__cxx1112basic_stringIcSt11char_traitsIcESaIcEEESaIS5_EE17_M_realloc_insertIJS5_EEEvN9__gnu_cxx17__normal_iteratorIPS5_S7_EEDpOT_+0x291>
 291:	eb 22                	jmp    2b5 <_ZNSt6vectorINSt7__cxx1112basic_stringIcSt11char_traitsIcESaIcEEESaIS5_EE17_M_realloc_insertIJS5_EEEvN9__gnu_cxx17__normal_iteratorIPS5_S7_EEDpOT_+0x2b5>
 293:	48 8b 45 a8          	mov    -0x58(%rbp),%rax
 297:	48 89 c7             	mov    %rax,%rdi
 29a:	e8 00 00 00 00       	callq  29f <_ZNSt6vectorINSt7__cxx1112basic_stringIcSt11char_traitsIcESaIcEEESaIS5_EE17_M_realloc_insertIJS5_EEEvN9__gnu_cxx17__normal_iteratorIPS5_S7_EEDpOT_+0x29f>
 29f:	48 89 c2             	mov    %rax,%rdx
 2a2:	48 8b 4d b8          	mov    -0x48(%rbp),%rcx
 2a6:	48 8b 45 e0          	mov    -0x20(%rbp),%rax
 2aa:	48 89 ce             	mov    %rcx,%rsi
 2ad:	48 89 c7             	mov    %rax,%rdi
 2b0:	e8 00 00 00 00       	callq  2b5 <_ZNSt6vectorINSt7__cxx1112basic_stringIcSt11char_traitsIcESaIcEEESaIS5_EE17_M_realloc_insertIJS5_EEEvN9__gnu_cxx17__normal_iteratorIPS5_S7_EEDpOT_+0x2b5>
 2b5:	48 8b 45 a8          	mov    -0x58(%rbp),%rax
 2b9:	48 8b 55 c0          	mov    -0x40(%rbp),%rdx
 2bd:	48 8b 4d e0          	mov    -0x20(%rbp),%rcx
 2c1:	48 89 ce             	mov    %rcx,%rsi
 2c4:	48 89 c7             	mov    %rax,%rdi
 2c7:	e8 00 00 00 00       	callq  2cc <_ZNSt6vectorINSt7__cxx1112basic_stringIcSt11char_traitsIcESaIcEEESaIS5_EE17_M_realloc_insertIJS5_EEEvN9__gnu_cxx17__normal_iteratorIPS5_S7_EEDpOT_+0x2cc>
 2cc:	e8 00 00 00 00       	callq  2d1 <_ZNSt6vectorINSt7__cxx1112basic_stringIcSt11char_traitsIcESaIcEEESaIS5_EE17_M_realloc_insertIJS5_EEEvN9__gnu_cxx17__normal_iteratorIPS5_S7_EEDpOT_+0x2d1>
 2d1:	f3 0f 1e fa          	endbr64 
 2d5:	48 89 c3             	mov    %rax,%rbx
 2d8:	e8 00 00 00 00       	callq  2dd <_ZNSt6vectorINSt7__cxx1112basic_stringIcSt11char_traitsIcESaIcEEESaIS5_EE17_M_realloc_insertIJS5_EEEvN9__gnu_cxx17__normal_iteratorIPS5_S7_EEDpOT_+0x2dd>
 2dd:	48 89 d8             	mov    %rbx,%rax
 2e0:	48 89 c7             	mov    %rax,%rdi
 2e3:	e8 00 00 00 00       	callq  2e8 <_ZNSt6vectorINSt7__cxx1112basic_stringIcSt11char_traitsIcESaIcEEESaIS5_EE17_M_realloc_insertIJS5_EEEvN9__gnu_cxx17__normal_iteratorIPS5_S7_EEDpOT_+0x2e8>
 2e8:	e8 00 00 00 00       	callq  2ed <_ZNSt6vectorINSt7__cxx1112basic_stringIcSt11char_traitsIcESaIcEEESaIS5_EE17_M_realloc_insertIJS5_EEEvN9__gnu_cxx17__normal_iteratorIPS5_S7_EEDpOT_+0x2ed>
 2ed:	48 83 c4 68          	add    $0x68,%rsp
 2f1:	5b                   	pop    %rbx
 2f2:	5d                   	pop    %rbp
 2f3:	c3                   	retq   

Disassembly of section .text._ZSt7forwardIRKSt6vectorINSt7__cxx1112basic_stringIcSt11char_traitsIcESaIcEEESaIS6_EEEOT_RNSt16remove_referenceISB_E4typeE:

0000000000000000 <_ZSt7forwardIRKSt6vectorINSt7__cxx1112basic_stringIcSt11char_traitsIcESaIcEEESaIS6_EEEOT_RNSt16remove_referenceISB_E4typeE>:
   0:	f3 0f 1e fa          	endbr64 
   4:	55                   	push   %rbp
   5:	48 89 e5             	mov    %rsp,%rbp
   8:	48 89 7d f8          	mov    %rdi,-0x8(%rbp)
   c:	48 8b 45 f8          	mov    -0x8(%rbp),%rax
  10:	5d                   	pop    %rbp
  11:	c3                   	retq   

Disassembly of section .text._ZN9__gnu_cxx13new_allocatorISt6vectorINSt7__cxx1112basic_stringIcSt11char_traitsIcESaIcEEESaIS7_EEE9constructIS9_JRKS9_EEEvPT_DpOT0_:

0000000000000000 <_ZN9__gnu_cxx13new_allocatorISt6vectorINSt7__cxx1112basic_stringIcSt11char_traitsIcESaIcEEESaIS7_EEE9constructIS9_JRKS9_EEEvPT_DpOT0_>:
   0:	f3 0f 1e fa          	endbr64 
   4:	55                   	push   %rbp
   5:	48 89 e5             	mov    %rsp,%rbp
   8:	41 55                	push   %r13
   a:	41 54                	push   %r12
   c:	53                   	push   %rbx
   d:	48 83 ec 28          	sub    $0x28,%rsp
  11:	48 89 7d d8          	mov    %rdi,-0x28(%rbp)
  15:	48 89 75 d0          	mov    %rsi,-0x30(%rbp)
  19:	48 89 55 c8          	mov    %rdx,-0x38(%rbp)
  1d:	48 8b 45 c8          	mov    -0x38(%rbp),%rax
  21:	48 89 c7             	mov    %rax,%rdi
  24:	e8 00 00 00 00       	callq  29 <_ZN9__gnu_cxx13new_allocatorISt6vectorINSt7__cxx1112basic_stringIcSt11char_traitsIcESaIcEEESaIS7_EEE9constructIS9_JRKS9_EEEvPT_DpOT0_+0x29>
  29:	49 89 c5             	mov    %rax,%r13
  2c:	48 8b 5d d0          	mov    -0x30(%rbp),%rbx
  30:	48 89 de             	mov    %rbx,%rsi
  33:	bf 18 00 00 00       	mov    $0x18,%edi
  38:	e8 00 00 00 00       	callq  3d <_ZN9__gnu_cxx13new_allocatorISt6vectorINSt7__cxx1112basic_stringIcSt11char_traitsIcESaIcEEESaIS7_EEE9constructIS9_JRKS9_EEEvPT_DpOT0_+0x3d>
  3d:	49 89 c4             	mov    %rax,%r12
  40:	4c 89 ee             	mov    %r13,%rsi
  43:	4c 89 e7             	mov    %r12,%rdi
  46:	e8 00 00 00 00       	callq  4b <_ZN9__gnu_cxx13new_allocatorISt6vectorINSt7__cxx1112basic_stringIcSt11char_traitsIcESaIcEEESaIS7_EEE9constructIS9_JRKS9_EEEvPT_DpOT0_+0x4b>
  4b:	eb 1d                	jmp    6a <_ZN9__gnu_cxx13new_allocatorISt6vectorINSt7__cxx1112basic_stringIcSt11char_traitsIcESaIcEEESaIS7_EEE9constructIS9_JRKS9_EEEvPT_DpOT0_+0x6a>
  4d:	f3 0f 1e fa          	endbr64 
  51:	49 89 c5             	mov    %rax,%r13
  54:	48 89 de             	mov    %rbx,%rsi
  57:	4c 89 e7             	mov    %r12,%rdi
  5a:	e8 00 00 00 00       	callq  5f <_ZN9__gnu_cxx13new_allocatorISt6vectorINSt7__cxx1112basic_stringIcSt11char_traitsIcESaIcEEESaIS7_EEE9constructIS9_JRKS9_EEEvPT_DpOT0_+0x5f>
  5f:	4c 89 e8             	mov    %r13,%rax
  62:	48 89 c7             	mov    %rax,%rdi
  65:	e8 00 00 00 00       	callq  6a <_ZN9__gnu_cxx13new_allocatorISt6vectorINSt7__cxx1112basic_stringIcSt11char_traitsIcESaIcEEESaIS7_EEE9constructIS9_JRKS9_EEEvPT_DpOT0_+0x6a>
  6a:	48 83 c4 28          	add    $0x28,%rsp
  6e:	5b                   	pop    %rbx
  6f:	41 5c                	pop    %r12
  71:	41 5d                	pop    %r13
  73:	5d                   	pop    %rbp
  74:	c3                   	retq   

Disassembly of section .text._ZN9__gnu_cxx17__normal_iteratorIPSt6vectorINSt7__cxx1112basic_stringIcSt11char_traitsIcESaIcEEESaIS7_EES1_IS9_SaIS9_EEEC2ERKSA_:

0000000000000000 <_ZN9__gnu_cxx17__normal_iteratorIPSt6vectorINSt7__cxx1112basic_stringIcSt11char_traitsIcESaIcEEESaIS7_EES1_IS9_SaIS9_EEEC1ERKSA_>:
   0:	f3 0f 1e fa          	endbr64 
   4:	55                   	push   %rbp
   5:	48 89 e5             	mov    %rsp,%rbp
   8:	48 89 7d f8          	mov    %rdi,-0x8(%rbp)
   c:	48 89 75 f0          	mov    %rsi,-0x10(%rbp)
  10:	48 8b 45 f0          	mov    -0x10(%rbp),%rax
  14:	48 8b 10             	mov    (%rax),%rdx
  17:	48 8b 45 f8          	mov    -0x8(%rbp),%rax
  1b:	48 89 10             	mov    %rdx,(%rax)
  1e:	90                   	nop
  1f:	5d                   	pop    %rbp
  20:	c3                   	retq   

Disassembly of section .text._ZNKSt6vectorIS_INSt7__cxx1112basic_stringIcSt11char_traitsIcESaIcEEESaIS5_EESaIS7_EE12_M_check_lenEmPKc:

0000000000000000 <_ZNKSt6vectorIS_INSt7__cxx1112basic_stringIcSt11char_traitsIcESaIcEEESaIS5_EESaIS7_EE12_M_check_lenEmPKc>:
   0:	f3 0f 1e fa          	endbr64 
   4:	55                   	push   %rbp
   5:	48 89 e5             	mov    %rsp,%rbp
   8:	53                   	push   %rbx
   9:	48 83 ec 48          	sub    $0x48,%rsp
   d:	48 89 7d c8          	mov    %rdi,-0x38(%rbp)
  11:	48 89 75 c0          	mov    %rsi,-0x40(%rbp)
  15:	48 89 55 b8          	mov    %rdx,-0x48(%rbp)
  19:	64 48 8b 04 25 28 00 	mov    %fs:0x28,%rax
  20:	00 00 
  22:	48 89 45 e8          	mov    %rax,-0x18(%rbp)
  26:	31 c0                	xor    %eax,%eax
  28:	48 8b 45 c8          	mov    -0x38(%rbp),%rax
  2c:	48 89 c7             	mov    %rax,%rdi
  2f:	e8 00 00 00 00       	callq  34 <_ZNKSt6vectorIS_INSt7__cxx1112basic_stringIcSt11char_traitsIcESaIcEEESaIS5_EESaIS7_EE12_M_check_lenEmPKc+0x34>
  34:	48 89 c3             	mov    %rax,%rbx
  37:	48 8b 45 c8          	mov    -0x38(%rbp),%rax
  3b:	48 89 c7             	mov    %rax,%rdi
  3e:	e8 00 00 00 00       	callq  43 <_ZNKSt6vectorIS_INSt7__cxx1112basic_stringIcSt11char_traitsIcESaIcEEESaIS5_EESaIS7_EE12_M_check_lenEmPKc+0x43>
  43:	48 29 c3             	sub    %rax,%rbx
  46:	48 89 da             	mov    %rbx,%rdx
  49:	48 8b 45 c0          	mov    -0x40(%rbp),%rax
  4d:	48 39 c2             	cmp    %rax,%rdx
  50:	0f 92 c0             	setb   %al
  53:	84 c0                	test   %al,%al
  55:	74 0c                	je     63 <_ZNKSt6vectorIS_INSt7__cxx1112basic_stringIcSt11char_traitsIcESaIcEEESaIS5_EESaIS7_EE12_M_check_lenEmPKc+0x63>
  57:	48 8b 45 b8          	mov    -0x48(%rbp),%rax
  5b:	48 89 c7             	mov    %rax,%rdi
  5e:	e8 00 00 00 00       	callq  63 <_ZNKSt6vectorIS_INSt7__cxx1112basic_stringIcSt11char_traitsIcESaIcEEESaIS5_EESaIS7_EE12_M_check_lenEmPKc+0x63>
  63:	48 8b 45 c8          	mov    -0x38(%rbp),%rax
  67:	48 89 c7             	mov    %rax,%rdi
  6a:	e8 00 00 00 00       	callq  6f <_ZNKSt6vectorIS_INSt7__cxx1112basic_stringIcSt11char_traitsIcESaIcEEESaIS5_EESaIS7_EE12_M_check_lenEmPKc+0x6f>
  6f:	48 89 c3             	mov    %rax,%rbx
  72:	48 8b 45 c8          	mov    -0x38(%rbp),%rax
  76:	48 89 c7             	mov    %rax,%rdi
  79:	e8 00 00 00 00       	callq  7e <_ZNKSt6vectorIS_INSt7__cxx1112basic_stringIcSt11char_traitsIcESaIcEEESaIS5_EESaIS7_EE12_M_check_lenEmPKc+0x7e>
  7e:	48 89 45 d8          	mov    %rax,-0x28(%rbp)
  82:	48 8d 55 c0          	lea    -0x40(%rbp),%rdx
  86:	48 8d 45 d8          	lea    -0x28(%rbp),%rax
  8a:	48 89 d6             	mov    %rdx,%rsi
  8d:	48 89 c7             	mov    %rax,%rdi
  90:	e8 00 00 00 00       	callq  95 <_ZNKSt6vectorIS_INSt7__cxx1112basic_stringIcSt11char_traitsIcESaIcEEESaIS5_EESaIS7_EE12_M_check_lenEmPKc+0x95>
  95:	48 8b 00             	mov    (%rax),%rax
  98:	48 01 d8             	add    %rbx,%rax
  9b:	48 89 45 e0          	mov    %rax,-0x20(%rbp)
  9f:	48 8b 45 c8          	mov    -0x38(%rbp),%rax
  a3:	48 89 c7             	mov    %rax,%rdi
  a6:	e8 00 00 00 00       	callq  ab <_ZNKSt6vectorIS_INSt7__cxx1112basic_stringIcSt11char_traitsIcESaIcEEESaIS5_EESaIS7_EE12_M_check_lenEmPKc+0xab>
  ab:	48 39 45 e0          	cmp    %rax,-0x20(%rbp)
  af:	72 12                	jb     c3 <_ZNKSt6vectorIS_INSt7__cxx1112basic_stringIcSt11char_traitsIcESaIcEEESaIS5_EESaIS7_EE12_M_check_lenEmPKc+0xc3>
  b1:	48 8b 45 c8          	mov    -0x38(%rbp),%rax
  b5:	48 89 c7             	mov    %rax,%rdi
  b8:	e8 00 00 00 00       	callq  bd <_ZNKSt6vectorIS_INSt7__cxx1112basic_stringIcSt11char_traitsIcESaIcEEESaIS5_EESaIS7_EE12_M_check_lenEmPKc+0xbd>
  bd:	48 39 45 e0          	cmp    %rax,-0x20(%rbp)
  c1:	76 0e                	jbe    d1 <_ZNKSt6vectorIS_INSt7__cxx1112basic_stringIcSt11char_traitsIcESaIcEEESaIS5_EESaIS7_EE12_M_check_lenEmPKc+0xd1>
  c3:	48 8b 45 c8          	mov    -0x38(%rbp),%rax
  c7:	48 89 c7             	mov    %rax,%rdi
  ca:	e8 00 00 00 00       	callq  cf <_ZNKSt6vectorIS_INSt7__cxx1112basic_stringIcSt11char_traitsIcESaIcEEESaIS5_EESaIS7_EE12_M_check_lenEmPKc+0xcf>
  cf:	eb 04                	jmp    d5 <_ZNKSt6vectorIS_INSt7__cxx1112basic_stringIcSt11char_traitsIcESaIcEEESaIS5_EESaIS7_EE12_M_check_lenEmPKc+0xd5>
  d1:	48 8b 45 e0          	mov    -0x20(%rbp),%rax
  d5:	48 8b 4d e8          	mov    -0x18(%rbp),%rcx
  d9:	64 48 33 0c 25 28 00 	xor    %fs:0x28,%rcx
  e0:	00 00 
  e2:	74 05                	je     e9 <_ZNKSt6vectorIS_INSt7__cxx1112basic_stringIcSt11char_traitsIcESaIcEEESaIS5_EESaIS7_EE12_M_check_lenEmPKc+0xe9>
  e4:	e8 00 00 00 00       	callq  e9 <_ZNKSt6vectorIS_INSt7__cxx1112basic_stringIcSt11char_traitsIcESaIcEEESaIS5_EESaIS7_EE12_M_check_lenEmPKc+0xe9>
  e9:	48 83 c4 48          	add    $0x48,%rsp
  ed:	5b                   	pop    %rbx
  ee:	5d                   	pop    %rbp
  ef:	c3                   	retq   

Disassembly of section .text._ZNSt6vectorIS_INSt7__cxx1112basic_stringIcSt11char_traitsIcESaIcEEESaIS5_EESaIS7_EE5beginEv:

0000000000000000 <_ZNSt6vectorIS_INSt7__cxx1112basic_stringIcSt11char_traitsIcESaIcEEESaIS5_EESaIS7_EE5beginEv>:
   0:	f3 0f 1e fa          	endbr64 
   4:	55                   	push   %rbp
   5:	48 89 e5             	mov    %rsp,%rbp
   8:	48 83 ec 20          	sub    $0x20,%rsp
   c:	48 89 7d e8          	mov    %rdi,-0x18(%rbp)
  10:	64 48 8b 04 25 28 00 	mov    %fs:0x28,%rax
  17:	00 00 
  19:	48 89 45 f8          	mov    %rax,-0x8(%rbp)
  1d:	31 c0                	xor    %eax,%eax
  1f:	48 8b 55 e8          	mov    -0x18(%rbp),%rdx
  23:	48 8d 45 f0          	lea    -0x10(%rbp),%rax
  27:	48 89 d6             	mov    %rdx,%rsi
  2a:	48 89 c7             	mov    %rax,%rdi
  2d:	e8 00 00 00 00       	callq  32 <_ZNSt6vectorIS_INSt7__cxx1112basic_stringIcSt11char_traitsIcESaIcEEESaIS5_EESaIS7_EE5beginEv+0x32>
  32:	48 8b 45 f0          	mov    -0x10(%rbp),%rax
  36:	48 8b 4d f8          	mov    -0x8(%rbp),%rcx
  3a:	64 48 33 0c 25 28 00 	xor    %fs:0x28,%rcx
  41:	00 00 
  43:	74 05                	je     4a <_ZNSt6vectorIS_INSt7__cxx1112basic_stringIcSt11char_traitsIcESaIcEEESaIS5_EESaIS7_EE5beginEv+0x4a>
  45:	e8 00 00 00 00       	callq  4a <_ZNSt6vectorIS_INSt7__cxx1112basic_stringIcSt11char_traitsIcESaIcEEESaIS5_EESaIS7_EE5beginEv+0x4a>
  4a:	c9                   	leaveq 
  4b:	c3                   	retq   

Disassembly of section .text._ZN9__gnu_cxxmiIPSt6vectorINSt7__cxx1112basic_stringIcSt11char_traitsIcESaIcEEESaIS7_EES1_IS9_SaIS9_EEEENS_17__normal_iteratorIT_T0_E15difference_typeERKSG_SJ_:

0000000000000000 <_ZN9__gnu_cxxmiIPSt6vectorINSt7__cxx1112basic_stringIcSt11char_traitsIcESaIcEEESaIS7_EES1_IS9_SaIS9_EEEENS_17__normal_iteratorIT_T0_E15difference_typeERKSG_SJ_>:
   0:	f3 0f 1e fa          	endbr64 
   4:	55                   	push   %rbp
   5:	48 89 e5             	mov    %rsp,%rbp
   8:	53                   	push   %rbx
   9:	48 83 ec 18          	sub    $0x18,%rsp
   d:	48 89 7d e8          	mov    %rdi,-0x18(%rbp)
  11:	48 89 75 e0          	mov    %rsi,-0x20(%rbp)
  15:	48 8b 45 e8          	mov    -0x18(%rbp),%rax
  19:	48 89 c7             	mov    %rax,%rdi
  1c:	e8 00 00 00 00       	callq  21 <_ZN9__gnu_cxxmiIPSt6vectorINSt7__cxx1112basic_stringIcSt11char_traitsIcESaIcEEESaIS7_EES1_IS9_SaIS9_EEEENS_17__normal_iteratorIT_T0_E15difference_typeERKSG_SJ_+0x21>
  21:	48 8b 18             	mov    (%rax),%rbx
  24:	48 8b 45 e0          	mov    -0x20(%rbp),%rax
  28:	48 89 c7             	mov    %rax,%rdi
  2b:	e8 00 00 00 00       	callq  30 <_ZN9__gnu_cxxmiIPSt6vectorINSt7__cxx1112basic_stringIcSt11char_traitsIcESaIcEEESaIS7_EES1_IS9_SaIS9_EEEENS_17__normal_iteratorIT_T0_E15difference_typeERKSG_SJ_+0x30>
  30:	48 8b 00             	mov    (%rax),%rax
  33:	48 29 c3             	sub    %rax,%rbx
  36:	48 89 d8             	mov    %rbx,%rax
  39:	48 c1 f8 03          	sar    $0x3,%rax
  3d:	48 89 c2             	mov    %rax,%rdx
  40:	48 b8 ab aa aa aa aa 	movabs $0xaaaaaaaaaaaaaaab,%rax
  47:	aa aa aa 
  4a:	48 0f af c2          	imul   %rdx,%rax
  4e:	48 83 c4 18          	add    $0x18,%rsp
  52:	5b                   	pop    %rbx
  53:	5d                   	pop    %rbp
  54:	c3                   	retq   

Disassembly of section .text._ZNSt12_Vector_baseISt6vectorINSt7__cxx1112basic_stringIcSt11char_traitsIcESaIcEEESaIS6_EESaIS8_EE11_M_allocateEm:

0000000000000000 <_ZNSt12_Vector_baseISt6vectorINSt7__cxx1112basic_stringIcSt11char_traitsIcESaIcEEESaIS6_EESaIS8_EE11_M_allocateEm>:
   0:	f3 0f 1e fa          	endbr64 
   4:	55                   	push   %rbp
   5:	48 89 e5             	mov    %rsp,%rbp
   8:	48 83 ec 10          	sub    $0x10,%rsp
   c:	48 89 7d f8          	mov    %rdi,-0x8(%rbp)
  10:	48 89 75 f0          	mov    %rsi,-0x10(%rbp)
  14:	48 83 7d f0 00       	cmpq   $0x0,-0x10(%rbp)
  19:	74 15                	je     30 <_ZNSt12_Vector_baseISt6vectorINSt7__cxx1112basic_stringIcSt11char_traitsIcESaIcEEESaIS6_EESaIS8_EE11_M_allocateEm+0x30>
  1b:	48 8b 45 f8          	mov    -0x8(%rbp),%rax
  1f:	48 8b 55 f0          	mov    -0x10(%rbp),%rdx
  23:	48 89 d6             	mov    %rdx,%rsi
  26:	48 89 c7             	mov    %rax,%rdi
  29:	e8 00 00 00 00       	callq  2e <_ZNSt12_Vector_baseISt6vectorINSt7__cxx1112basic_stringIcSt11char_traitsIcESaIcEEESaIS6_EESaIS8_EE11_M_allocateEm+0x2e>
  2e:	eb 05                	jmp    35 <_ZNSt12_Vector_baseISt6vectorINSt7__cxx1112basic_stringIcSt11char_traitsIcESaIcEEESaIS6_EESaIS8_EE11_M_allocateEm+0x35>
  30:	b8 00 00 00 00       	mov    $0x0,%eax
  35:	c9                   	leaveq 
  36:	c3                   	retq   

Disassembly of section .text._ZNSt6vectorIS_INSt7__cxx1112basic_stringIcSt11char_traitsIcESaIcEEESaIS5_EESaIS7_EE11_S_relocateEPS7_SA_SA_RS8_:

0000000000000000 <_ZNSt6vectorIS_INSt7__cxx1112basic_stringIcSt11char_traitsIcESaIcEEESaIS5_EESaIS7_EE11_S_relocateEPS7_SA_SA_RS8_>:
   0:	f3 0f 1e fa          	endbr64 
   4:	55                   	push   %rbp
   5:	48 89 e5             	mov    %rsp,%rbp
   8:	48 83 ec 30          	sub    $0x30,%rsp
   c:	48 89 7d e8          	mov    %rdi,-0x18(%rbp)
  10:	48 89 75 e0          	mov    %rsi,-0x20(%rbp)
  14:	48 89 55 d8          	mov    %rdx,-0x28(%rbp)
  18:	48 89 4d d0          	mov    %rcx,-0x30(%rbp)
  1c:	64 48 8b 04 25 28 00 	mov    %fs:0x28,%rax
  23:	00 00 
  25:	48 89 45 f8          	mov    %rax,-0x8(%rbp)
  29:	31 c0                	xor    %eax,%eax
  2b:	48 8b 4d d0          	mov    -0x30(%rbp),%rcx
  2f:	48 8b 55 d8          	mov    -0x28(%rbp),%rdx
  33:	48 8b 75 e0          	mov    -0x20(%rbp),%rsi
  37:	48 8b 45 e8          	mov    -0x18(%rbp),%rax
  3b:	48 89 c7             	mov    %rax,%rdi
  3e:	e8 00 00 00 00       	callq  43 <_ZNSt6vectorIS_INSt7__cxx1112basic_stringIcSt11char_traitsIcESaIcEEESaIS5_EESaIS7_EE11_S_relocateEPS7_SA_SA_RS8_+0x43>
  43:	48 8b 7d f8          	mov    -0x8(%rbp),%rdi
  47:	64 48 33 3c 25 28 00 	xor    %fs:0x28,%rdi
  4e:	00 00 
  50:	74 05                	je     57 <_ZNSt6vectorIS_INSt7__cxx1112basic_stringIcSt11char_traitsIcESaIcEEESaIS5_EESaIS7_EE11_S_relocateEPS7_SA_SA_RS8_+0x57>
  52:	e8 00 00 00 00       	callq  57 <_ZNSt6vectorIS_INSt7__cxx1112basic_stringIcSt11char_traitsIcESaIcEEESaIS5_EESaIS7_EE11_S_relocateEPS7_SA_SA_RS8_+0x57>
  57:	c9                   	leaveq 
  58:	c3                   	retq   

Disassembly of section .text._ZNK9__gnu_cxx17__normal_iteratorIPSt6vectorINSt7__cxx1112basic_stringIcSt11char_traitsIcESaIcEEESaIS7_EES1_IS9_SaIS9_EEE4baseEv:

0000000000000000 <_ZNK9__gnu_cxx17__normal_iteratorIPSt6vectorINSt7__cxx1112basic_stringIcSt11char_traitsIcESaIcEEESaIS7_EES1_IS9_SaIS9_EEE4baseEv>:
   0:	f3 0f 1e fa          	endbr64 
   4:	55                   	push   %rbp
   5:	48 89 e5             	mov    %rsp,%rbp
   8:	48 89 7d f8          	mov    %rdi,-0x8(%rbp)
   c:	48 8b 45 f8          	mov    -0x8(%rbp),%rax
  10:	5d                   	pop    %rbp
  11:	c3                   	retq   

Disassembly of section .text._ZSt34__uninitialized_move_if_noexcept_aIPSt6vectorINSt7__cxx1112basic_stringIcSt11char_traitsIcESaIcEEESaIS6_EES9_SaIS8_EET0_T_SC_SB_RT1_:

0000000000000000 <_ZSt34__uninitialized_move_if_noexcept_aIPSt6vectorINSt7__cxx1112basic_stringIcSt11char_traitsIcESaIcEEESaIS6_EES9_SaIS8_EET0_T_SC_SB_RT1_>:
   0:	f3 0f 1e fa          	endbr64 
   4:	55                   	push   %rbp
   5:	48 89 e5             	mov    %rsp,%rbp
   8:	53                   	push   %rbx
   9:	48 83 ec 28          	sub    $0x28,%rsp
   d:	48 89 7d e8          	mov    %rdi,-0x18(%rbp)
  11:	48 89 75 e0          	mov    %rsi,-0x20(%rbp)
  15:	48 89 55 d8          	mov    %rdx,-0x28(%rbp)
  19:	48 89 4d d0          	mov    %rcx,-0x30(%rbp)
  1d:	48 8b 45 e0          	mov    -0x20(%rbp),%rax
  21:	48 89 c7             	mov    %rax,%rdi
  24:	e8 00 00 00 00       	callq  29 <_ZSt34__uninitialized_move_if_noexcept_aIPSt6vectorINSt7__cxx1112basic_stringIcSt11char_traitsIcESaIcEEESaIS6_EES9_SaIS8_EET0_T_SC_SB_RT1_+0x29>
  29:	48 89 c3             	mov    %rax,%rbx
  2c:	48 8b 45 e8          	mov    -0x18(%rbp),%rax
  30:	48 89 c7             	mov    %rax,%rdi
  33:	e8 00 00 00 00       	callq  38 <_ZSt34__uninitialized_move_if_noexcept_aIPSt6vectorINSt7__cxx1112basic_stringIcSt11char_traitsIcESaIcEEESaIS6_EES9_SaIS8_EET0_T_SC_SB_RT1_+0x38>
  38:	48 89 c7             	mov    %rax,%rdi
  3b:	48 8b 55 d0          	mov    -0x30(%rbp),%rdx
  3f:	48 8b 45 d8          	mov    -0x28(%rbp),%rax
  43:	48 89 d1             	mov    %rdx,%rcx
  46:	48 89 c2             	mov    %rax,%rdx
  49:	48 89 de             	mov    %rbx,%rsi
  4c:	e8 00 00 00 00       	callq  51 <_ZSt34__uninitialized_move_if_noexcept_aIPSt6vectorINSt7__cxx1112basic_stringIcSt11char_traitsIcESaIcEEESaIS6_EES9_SaIS8_EET0_T_SC_SB_RT1_+0x51>
  51:	48 83 c4 28          	add    $0x28,%rsp
  55:	5b                   	pop    %rbx
  56:	5d                   	pop    %rbp
  57:	c3                   	retq   

Disassembly of section .text._ZNSt16allocator_traitsISaISt6vectorINSt7__cxx1112basic_stringIcSt11char_traitsIcESaIcEEESaIS6_EEEE7destroyIS8_EEvRS9_PT_:

0000000000000000 <_ZNSt16allocator_traitsISaISt6vectorINSt7__cxx1112basic_stringIcSt11char_traitsIcESaIcEEESaIS6_EEEE7destroyIS8_EEvRS9_PT_>:
   0:	f3 0f 1e fa          	endbr64 
   4:	55                   	push   %rbp
   5:	48 89 e5             	mov    %rsp,%rbp
   8:	48 83 ec 10          	sub    $0x10,%rsp
   c:	48 89 7d f8          	mov    %rdi,-0x8(%rbp)
  10:	48 89 75 f0          	mov    %rsi,-0x10(%rbp)
  14:	48 8b 55 f0          	mov    -0x10(%rbp),%rdx
  18:	48 8b 45 f8          	mov    -0x8(%rbp),%rax
  1c:	48 89 d6             	mov    %rdx,%rsi
  1f:	48 89 c7             	mov    %rax,%rdi
  22:	e8 00 00 00 00       	callq  27 <_ZNSt16allocator_traitsISaISt6vectorINSt7__cxx1112basic_stringIcSt11char_traitsIcESaIcEEESaIS6_EEEE7destroyIS8_EEvRS9_PT_+0x27>
  27:	90                   	nop
  28:	c9                   	leaveq 
  29:	c3                   	retq   

Disassembly of section .text._ZN9__gnu_cxx17__normal_iteratorIPKNSt7__cxx1112basic_stringIcSt11char_traitsIcESaIcEEESt6vectorIS6_SaIS6_EEEC2ERKS8_:

0000000000000000 <_ZN9__gnu_cxx17__normal_iteratorIPKNSt7__cxx1112basic_stringIcSt11char_traitsIcESaIcEEESt6vectorIS6_SaIS6_EEEC1ERKS8_>:
   0:	f3 0f 1e fa          	endbr64 
   4:	55                   	push   %rbp
   5:	48 89 e5             	mov    %rsp,%rbp
   8:	48 89 7d f8          	mov    %rdi,-0x8(%rbp)
   c:	48 89 75 f0          	mov    %rsi,-0x10(%rbp)
  10:	48 8b 45 f0          	mov    -0x10(%rbp),%rax
  14:	48 8b 10             	mov    (%rax),%rdx
  17:	48 8b 45 f8          	mov    -0x8(%rbp),%rax
  1b:	48 89 10             	mov    %rdx,(%rax)
  1e:	90                   	nop
  1f:	5d                   	pop    %rbp
  20:	c3                   	retq   

Disassembly of section .text._ZNK9__gnu_cxx17__normal_iteratorIPKNSt7__cxx1112basic_stringIcSt11char_traitsIcESaIcEEESt6vectorIS6_SaIS6_EEE4baseEv:

0000000000000000 <_ZNK9__gnu_cxx17__normal_iteratorIPKNSt7__cxx1112basic_stringIcSt11char_traitsIcESaIcEEESt6vectorIS6_SaIS6_EEE4baseEv>:
   0:	f3 0f 1e fa          	endbr64 
   4:	55                   	push   %rbp
   5:	48 89 e5             	mov    %rsp,%rbp
   8:	48 89 7d f8          	mov    %rdi,-0x8(%rbp)
   c:	48 8b 45 f8          	mov    -0x8(%rbp),%rax
  10:	5d                   	pop    %rbp
  11:	c3                   	retq   

Disassembly of section .text._ZNSt7__cxx1112basic_stringIcSt11char_traitsIcESaIcEE12_M_constructIPcEEvT_S7_St20forward_iterator_tag:

0000000000000000 <_ZNSt7__cxx1112basic_stringIcSt11char_traitsIcESaIcEE12_M_constructIPcEEvT_S7_St20forward_iterator_tag>:
   0:	f3 0f 1e fa          	endbr64 
   4:	55                   	push   %rbp
   5:	48 89 e5             	mov    %rsp,%rbp
   8:	53                   	push   %rbx
   9:	48 83 ec 38          	sub    $0x38,%rsp
   d:	48 89 7d d8          	mov    %rdi,-0x28(%rbp)
  11:	48 89 75 d0          	mov    %rsi,-0x30(%rbp)
  15:	48 89 55 c8          	mov    %rdx,-0x38(%rbp)
  19:	64 48 8b 04 25 28 00 	mov    %fs:0x28,%rax
  20:	00 00 
  22:	48 89 45 e8          	mov    %rax,-0x18(%rbp)
  26:	31 c0                	xor    %eax,%eax
  28:	48 8b 45 d0          	mov    -0x30(%rbp),%rax
  2c:	48 89 c7             	mov    %rax,%rdi
  2f:	e8 00 00 00 00       	callq  34 <_ZNSt7__cxx1112basic_stringIcSt11char_traitsIcESaIcEE12_M_constructIPcEEvT_S7_St20forward_iterator_tag+0x34>
  34:	84 c0                	test   %al,%al
  36:	74 11                	je     49 <_ZNSt7__cxx1112basic_stringIcSt11char_traitsIcESaIcEE12_M_constructIPcEEvT_S7_St20forward_iterator_tag+0x49>
  38:	48 8b 45 d0          	mov    -0x30(%rbp),%rax
  3c:	48 3b 45 c8          	cmp    -0x38(%rbp),%rax
  40:	74 07                	je     49 <_ZNSt7__cxx1112basic_stringIcSt11char_traitsIcESaIcEE12_M_constructIPcEEvT_S7_St20forward_iterator_tag+0x49>
  42:	b8 01 00 00 00       	mov    $0x1,%eax
  47:	eb 05                	jmp    4e <_ZNSt7__cxx1112basic_stringIcSt11char_traitsIcESaIcEE12_M_constructIPcEEvT_S7_St20forward_iterator_tag+0x4e>
  49:	b8 00 00 00 00       	mov    $0x0,%eax
  4e:	84 c0                	test   %al,%al
  50:	74 0c                	je     5e <_ZNSt7__cxx1112basic_stringIcSt11char_traitsIcESaIcEE12_M_constructIPcEEvT_S7_St20forward_iterator_tag+0x5e>
  52:	48 8d 3d 00 00 00 00 	lea    0x0(%rip),%rdi        # 59 <_ZNSt7__cxx1112basic_stringIcSt11char_traitsIcESaIcEE12_M_constructIPcEEvT_S7_St20forward_iterator_tag+0x59>
  59:	e8 00 00 00 00       	callq  5e <_ZNSt7__cxx1112basic_stringIcSt11char_traitsIcESaIcEE12_M_constructIPcEEvT_S7_St20forward_iterator_tag+0x5e>
  5e:	48 8b 55 c8          	mov    -0x38(%rbp),%rdx
  62:	48 8b 45 d0          	mov    -0x30(%rbp),%rax
  66:	48 89 d6             	mov    %rdx,%rsi
  69:	48 89 c7             	mov    %rax,%rdi
  6c:	e8 00 00 00 00       	callq  71 <_ZNSt7__cxx1112basic_stringIcSt11char_traitsIcESaIcEE12_M_constructIPcEEvT_S7_St20forward_iterator_tag+0x71>
  71:	48 89 45 e0          	mov    %rax,-0x20(%rbp)
  75:	48 8b 45 e0          	mov    -0x20(%rbp),%rax
  79:	48 83 f8 0f          	cmp    $0xf,%rax
  7d:	76 3d                	jbe    bc <_ZNSt7__cxx1112basic_stringIcSt11char_traitsIcESaIcEE12_M_constructIPcEEvT_S7_St20forward_iterator_tag+0xbc>
  7f:	48 8d 4d e0          	lea    -0x20(%rbp),%rcx
  83:	48 8b 45 d8          	mov    -0x28(%rbp),%rax
  87:	ba 00 00 00 00       	mov    $0x0,%edx
  8c:	48 89 ce             	mov    %rcx,%rsi
  8f:	48 89 c7             	mov    %rax,%rdi
  92:	e8 00 00 00 00       	callq  97 <_ZNSt7__cxx1112basic_stringIcSt11char_traitsIcESaIcEE12_M_constructIPcEEvT_S7_St20forward_iterator_tag+0x97>
  97:	48 89 c2             	mov    %rax,%rdx
  9a:	48 8b 45 d8          	mov    -0x28(%rbp),%rax
  9e:	48 89 d6             	mov    %rdx,%rsi
  a1:	48 89 c7             	mov    %rax,%rdi
  a4:	e8 00 00 00 00       	callq  a9 <_ZNSt7__cxx1112basic_stringIcSt11char_traitsIcESaIcEE12_M_constructIPcEEvT_S7_St20forward_iterator_tag+0xa9>
  a9:	48 8b 55 e0          	mov    -0x20(%rbp),%rdx
  ad:	48 8b 45 d8          	mov    -0x28(%rbp),%rax
  b1:	48 89 d6             	mov    %rdx,%rsi
  b4:	48 89 c7             	mov    %rax,%rdi
  b7:	e8 00 00 00 00       	callq  bc <_ZNSt7__cxx1112basic_stringIcSt11char_traitsIcESaIcEE12_M_constructIPcEEvT_S7_St20forward_iterator_tag+0xbc>
  bc:	48 8b 45 d8          	mov    -0x28(%rbp),%rax
  c0:	48 89 c7             	mov    %rax,%rdi
  c3:	e8 00 00 00 00       	callq  c8 <_ZNSt7__cxx1112basic_stringIcSt11char_traitsIcESaIcEE12_M_constructIPcEEvT_S7_St20forward_iterator_tag+0xc8>
  c8:	48 89 c1             	mov    %rax,%rcx
  cb:	48 8b 55 c8          	mov    -0x38(%rbp),%rdx
  cf:	48 8b 45 d0          	mov    -0x30(%rbp),%rax
  d3:	48 89 c6             	mov    %rax,%rsi
  d6:	48 89 cf             	mov    %rcx,%rdi
  d9:	e8 00 00 00 00       	callq  de <_ZNSt7__cxx1112basic_stringIcSt11char_traitsIcESaIcEE12_M_constructIPcEEvT_S7_St20forward_iterator_tag+0xde>
  de:	48 8b 55 e0          	mov    -0x20(%rbp),%rdx
  e2:	48 8b 45 d8          	mov    -0x28(%rbp),%rax
  e6:	48 89 d6             	mov    %rdx,%rsi
  e9:	48 89 c7             	mov    %rax,%rdi
  ec:	e8 00 00 00 00       	callq  f1 <_ZNSt7__cxx1112basic_stringIcSt11char_traitsIcESaIcEE12_M_constructIPcEEvT_S7_St20forward_iterator_tag+0xf1>
  f1:	90                   	nop
  f2:	48 8b 45 e8          	mov    -0x18(%rbp),%rax
  f6:	64 48 33 04 25 28 00 	xor    %fs:0x28,%rax
  fd:	00 00 
  ff:	74 3b                	je     13c <_ZNSt7__cxx1112basic_stringIcSt11char_traitsIcESaIcEE12_M_constructIPcEEvT_S7_St20forward_iterator_tag+0x13c>
 101:	eb 34                	jmp    137 <_ZNSt7__cxx1112basic_stringIcSt11char_traitsIcESaIcEE12_M_constructIPcEEvT_S7_St20forward_iterator_tag+0x137>
 103:	f3 0f 1e fa          	endbr64 
 107:	48 89 c7             	mov    %rax,%rdi
 10a:	e8 00 00 00 00       	callq  10f <_ZNSt7__cxx1112basic_stringIcSt11char_traitsIcESaIcEE12_M_constructIPcEEvT_S7_St20forward_iterator_tag+0x10f>
 10f:	48 8b 45 d8          	mov    -0x28(%rbp),%rax
 113:	48 89 c7             	mov    %rax,%rdi
 116:	e8 00 00 00 00       	callq  11b <_ZNSt7__cxx1112basic_stringIcSt11char_traitsIcESaIcEE12_M_constructIPcEEvT_S7_St20forward_iterator_tag+0x11b>
 11b:	e8 00 00 00 00       	callq  120 <_ZNSt7__cxx1112basic_stringIcSt11char_traitsIcESaIcEE12_M_constructIPcEEvT_S7_St20forward_iterator_tag+0x120>
 120:	f3 0f 1e fa          	endbr64 
 124:	48 89 c3             	mov    %rax,%rbx
 127:	e8 00 00 00 00       	callq  12c <_ZNSt7__cxx1112basic_stringIcSt11char_traitsIcESaIcEE12_M_constructIPcEEvT_S7_St20forward_iterator_tag+0x12c>
 12c:	48 89 d8             	mov    %rbx,%rax
 12f:	48 89 c7             	mov    %rax,%rdi
 132:	e8 00 00 00 00       	callq  137 <_ZNSt7__cxx1112basic_stringIcSt11char_traitsIcESaIcEE12_M_constructIPcEEvT_S7_St20forward_iterator_tag+0x137>
 137:	e8 00 00 00 00       	callq  13c <_ZNSt7__cxx1112basic_stringIcSt11char_traitsIcESaIcEE12_M_constructIPcEEvT_S7_St20forward_iterator_tag+0x13c>
 13c:	48 83 c4 38          	add    $0x38,%rsp
 140:	5b                   	pop    %rbx
 141:	5d                   	pop    %rbp
 142:	c3                   	retq   

Disassembly of section .text._ZNSt16allocator_traitsISaIhEE8max_sizeERKS0_:

0000000000000000 <_ZNSt16allocator_traitsISaIhEE8max_sizeERKS0_>:
   0:	f3 0f 1e fa          	endbr64 
   4:	55                   	push   %rbp
   5:	48 89 e5             	mov    %rsp,%rbp
   8:	48 83 ec 10          	sub    $0x10,%rsp
   c:	48 89 7d f8          	mov    %rdi,-0x8(%rbp)
  10:	48 8b 45 f8          	mov    -0x8(%rbp),%rax
  14:	48 89 c7             	mov    %rax,%rdi
  17:	e8 00 00 00 00       	callq  1c <_ZNSt16allocator_traitsISaIhEE8max_sizeERKS0_+0x1c>
  1c:	c9                   	leaveq 
  1d:	c3                   	retq   

Disassembly of section .text._ZN9__gnu_cxx13new_allocatorIhEC2ERKS1_:

0000000000000000 <_ZN9__gnu_cxx13new_allocatorIhEC1ERKS1_>:
   0:	f3 0f 1e fa          	endbr64 
   4:	55                   	push   %rbp
   5:	48 89 e5             	mov    %rsp,%rbp
   8:	48 89 7d f8          	mov    %rdi,-0x8(%rbp)
   c:	48 89 75 f0          	mov    %rsi,-0x10(%rbp)
  10:	90                   	nop
  11:	5d                   	pop    %rbp
  12:	c3                   	retq   

Disassembly of section .text._ZSt25__uninitialized_default_nIPhmET_S1_T0_:

0000000000000000 <_ZSt25__uninitialized_default_nIPhmET_S1_T0_>:
   0:	f3 0f 1e fa          	endbr64 
   4:	55                   	push   %rbp
   5:	48 89 e5             	mov    %rsp,%rbp
   8:	48 83 ec 20          	sub    $0x20,%rsp
   c:	48 89 7d e8          	mov    %rdi,-0x18(%rbp)
  10:	48 89 75 e0          	mov    %rsi,-0x20(%rbp)
  14:	c6 45 ff 01          	movb   $0x1,-0x1(%rbp)
  18:	48 8b 55 e0          	mov    -0x20(%rbp),%rdx
  1c:	48 8b 45 e8          	mov    -0x18(%rbp),%rax
  20:	48 89 d6             	mov    %rdx,%rsi
  23:	48 89 c7             	mov    %rax,%rdi
  26:	e8 00 00 00 00       	callq  2b <_ZSt25__uninitialized_default_nIPhmET_S1_T0_+0x2b>
  2b:	c9                   	leaveq 
  2c:	c3                   	retq   

Disassembly of section .text._ZNSt12_Destroy_auxILb1EE9__destroyIPhEEvT_S3_:

0000000000000000 <_ZNSt12_Destroy_auxILb1EE9__destroyIPhEEvT_S3_>:
   0:	f3 0f 1e fa          	endbr64 
   4:	55                   	push   %rbp
   5:	48 89 e5             	mov    %rsp,%rbp
   8:	48 89 7d f8          	mov    %rdi,-0x8(%rbp)
   c:	48 89 75 f0          	mov    %rsi,-0x10(%rbp)
  10:	90                   	nop
  11:	5d                   	pop    %rbp
  12:	c3                   	retq   

Disassembly of section .text._ZNKSt12_Vector_baseIhSaIhEE19_M_get_Tp_allocatorEv:

0000000000000000 <_ZNKSt12_Vector_baseIhSaIhEE19_M_get_Tp_allocatorEv>:
   0:	f3 0f 1e fa          	endbr64 
   4:	55                   	push   %rbp
   5:	48 89 e5             	mov    %rsp,%rbp
   8:	48 89 7d f8          	mov    %rdi,-0x8(%rbp)
   c:	48 8b 45 f8          	mov    -0x8(%rbp),%rax
  10:	5d                   	pop    %rbp
  11:	c3                   	retq   

Disassembly of section .text._ZNSt16allocator_traitsISaIhEE8allocateERS0_m:

0000000000000000 <_ZNSt16allocator_traitsISaIhEE8allocateERS0_m>:
   0:	f3 0f 1e fa          	endbr64 
   4:	55                   	push   %rbp
   5:	48 89 e5             	mov    %rsp,%rbp
   8:	48 83 ec 10          	sub    $0x10,%rsp
   c:	48 89 7d f8          	mov    %rdi,-0x8(%rbp)
  10:	48 89 75 f0          	mov    %rsi,-0x10(%rbp)
  14:	48 8b 4d f0          	mov    -0x10(%rbp),%rcx
  18:	48 8b 45 f8          	mov    -0x8(%rbp),%rax
  1c:	ba 00 00 00 00       	mov    $0x0,%edx
  21:	48 89 ce             	mov    %rcx,%rsi
  24:	48 89 c7             	mov    %rax,%rdi
  27:	e8 00 00 00 00       	callq  2c <_ZNSt16allocator_traitsISaIhEE8allocateERS0_m+0x2c>
  2c:	c9                   	leaveq 
  2d:	c3                   	retq   

Disassembly of section .text._ZNSt6vectorIhSaIhEE14_S_do_relocateEPhS2_S2_RS0_St17integral_constantIbLb1EE:

0000000000000000 <_ZNSt6vectorIhSaIhEE14_S_do_relocateEPhS2_S2_RS0_St17integral_constantIbLb1EE>:
   0:	f3 0f 1e fa          	endbr64 
   4:	55                   	push   %rbp
   5:	48 89 e5             	mov    %rsp,%rbp
   8:	48 83 ec 20          	sub    $0x20,%rsp
   c:	48 89 7d f8          	mov    %rdi,-0x8(%rbp)
  10:	48 89 75 f0          	mov    %rsi,-0x10(%rbp)
  14:	48 89 55 e8          	mov    %rdx,-0x18(%rbp)
  18:	48 89 4d e0          	mov    %rcx,-0x20(%rbp)
  1c:	48 8b 4d e0          	mov    -0x20(%rbp),%rcx
  20:	48 8b 55 e8          	mov    -0x18(%rbp),%rdx
  24:	48 8b 75 f0          	mov    -0x10(%rbp),%rsi
  28:	48 8b 45 f8          	mov    -0x8(%rbp),%rax
  2c:	48 89 c7             	mov    %rax,%rdi
  2f:	e8 00 00 00 00       	callq  34 <_ZNSt6vectorIhSaIhEE14_S_do_relocateEPhS2_S2_RS0_St17integral_constantIbLb1EE+0x34>
  34:	c9                   	leaveq 
  35:	c3                   	retq   

Disassembly of section .text._ZSt32__make_move_if_noexcept_iteratorIhSt13move_iteratorIPhEET0_PT_:

0000000000000000 <_ZSt32__make_move_if_noexcept_iteratorIhSt13move_iteratorIPhEET0_PT_>:
   0:	f3 0f 1e fa          	endbr64 
   4:	55                   	push   %rbp
   5:	48 89 e5             	mov    %rsp,%rbp
   8:	48 83 ec 20          	sub    $0x20,%rsp
   c:	48 89 7d e8          	mov    %rdi,-0x18(%rbp)
  10:	64 48 8b 04 25 28 00 	mov    %fs:0x28,%rax
  17:	00 00 
  19:	48 89 45 f8          	mov    %rax,-0x8(%rbp)
  1d:	31 c0                	xor    %eax,%eax
  1f:	48 8b 55 e8          	mov    -0x18(%rbp),%rdx
  23:	48 8d 45 f0          	lea    -0x10(%rbp),%rax
  27:	48 89 d6             	mov    %rdx,%rsi
  2a:	48 89 c7             	mov    %rax,%rdi
  2d:	e8 00 00 00 00       	callq  32 <_ZSt32__make_move_if_noexcept_iteratorIhSt13move_iteratorIPhEET0_PT_+0x32>
  32:	48 8b 45 f0          	mov    -0x10(%rbp),%rax
  36:	48 8b 4d f8          	mov    -0x8(%rbp),%rcx
  3a:	64 48 33 0c 25 28 00 	xor    %fs:0x28,%rcx
  41:	00 00 
  43:	74 05                	je     4a <_ZSt32__make_move_if_noexcept_iteratorIhSt13move_iteratorIPhEET0_PT_+0x4a>
  45:	e8 00 00 00 00       	callq  4a <_ZSt32__make_move_if_noexcept_iteratorIhSt13move_iteratorIPhEET0_PT_+0x4a>
  4a:	c9                   	leaveq 
  4b:	c3                   	retq   

Disassembly of section .text._ZSt22__uninitialized_copy_aISt13move_iteratorIPhES1_hET0_T_S4_S3_RSaIT1_E:

0000000000000000 <_ZSt22__uninitialized_copy_aISt13move_iteratorIPhES1_hET0_T_S4_S3_RSaIT1_E>:
   0:	f3 0f 1e fa          	endbr64 
   4:	55                   	push   %rbp
   5:	48 89 e5             	mov    %rsp,%rbp
   8:	48 83 ec 20          	sub    $0x20,%rsp
   c:	48 89 7d f8          	mov    %rdi,-0x8(%rbp)
  10:	48 89 75 f0          	mov    %rsi,-0x10(%rbp)
  14:	48 89 55 e8          	mov    %rdx,-0x18(%rbp)
  18:	48 89 4d e0          	mov    %rcx,-0x20(%rbp)
  1c:	48 8b 55 e8          	mov    -0x18(%rbp),%rdx
  20:	48 8b 4d f0          	mov    -0x10(%rbp),%rcx
  24:	48 8b 45 f8          	mov    -0x8(%rbp),%rax
  28:	48 89 ce             	mov    %rcx,%rsi
  2b:	48 89 c7             	mov    %rax,%rdi
  2e:	e8 00 00 00 00       	callq  33 <_ZSt22__uninitialized_copy_aISt13move_iteratorIPhES1_hET0_T_S4_S3_RSaIT1_E+0x33>
  33:	c9                   	leaveq 
  34:	c3                   	retq   

Disassembly of section .text._ZN9__gnu_cxx13new_allocatorIhE10deallocateEPhm:

0000000000000000 <_ZN9__gnu_cxx13new_allocatorIhE10deallocateEPhm>:
   0:	f3 0f 1e fa          	endbr64 
   4:	55                   	push   %rbp
   5:	48 89 e5             	mov    %rsp,%rbp
   8:	48 83 ec 20          	sub    $0x20,%rsp
   c:	48 89 7d f8          	mov    %rdi,-0x8(%rbp)
  10:	48 89 75 f0          	mov    %rsi,-0x10(%rbp)
  14:	48 89 55 e8          	mov    %rdx,-0x18(%rbp)
  18:	48 8b 45 f0          	mov    -0x10(%rbp),%rax
  1c:	48 89 c7             	mov    %rax,%rdi
  1f:	e8 00 00 00 00       	callq  24 <_ZN9__gnu_cxx13new_allocatorIhE10deallocateEPhm+0x24>
  24:	90                   	nop
  25:	c9                   	leaveq 
  26:	c3                   	retq   

Disassembly of section .text._ZN9__gnu_cxx5__ops16_Iter_equals_valIKcEclINS_17__normal_iteratorIPhSt6vectorIhSaIhEEEEEEbT_:

0000000000000000 <_ZN9__gnu_cxx5__ops16_Iter_equals_valIKcEclINS_17__normal_iteratorIPhSt6vectorIhSaIhEEEEEEbT_>:
   0:	f3 0f 1e fa          	endbr64 
   4:	55                   	push   %rbp
   5:	48 89 e5             	mov    %rsp,%rbp
   8:	48 83 ec 10          	sub    $0x10,%rsp
   c:	48 89 7d f8          	mov    %rdi,-0x8(%rbp)
  10:	48 89 75 f0          	mov    %rsi,-0x10(%rbp)
  14:	48 8d 45 f0          	lea    -0x10(%rbp),%rax
  18:	48 89 c7             	mov    %rax,%rdi
  1b:	e8 00 00 00 00       	callq  20 <_ZN9__gnu_cxx5__ops16_Iter_equals_valIKcEclINS_17__normal_iteratorIPhSt6vectorIhSaIhEEEEEEbT_+0x20>
  20:	0f b6 00             	movzbl (%rax),%eax
  23:	0f b6 d0             	movzbl %al,%edx
  26:	48 8b 45 f8          	mov    -0x8(%rbp),%rax
  2a:	48 8b 00             	mov    (%rax),%rax
  2d:	0f b6 00             	movzbl (%rax),%eax
  30:	0f be c0             	movsbl %al,%eax
  33:	39 c2                	cmp    %eax,%edx
  35:	0f 94 c0             	sete   %al
  38:	c9                   	leaveq 
  39:	c3                   	retq   

Disassembly of section .text._ZN9__gnu_cxx17__normal_iteratorIPhSt6vectorIhSaIhEEEppEv:

0000000000000000 <_ZN9__gnu_cxx17__normal_iteratorIPhSt6vectorIhSaIhEEEppEv>:
   0:	f3 0f 1e fa          	endbr64 
   4:	55                   	push   %rbp
   5:	48 89 e5             	mov    %rsp,%rbp
   8:	48 89 7d f8          	mov    %rdi,-0x8(%rbp)
   c:	48 8b 45 f8          	mov    -0x8(%rbp),%rax
  10:	48 8b 00             	mov    (%rax),%rax
  13:	48 8d 50 01          	lea    0x1(%rax),%rdx
  17:	48 8b 45 f8          	mov    -0x8(%rbp),%rax
  1b:	48 89 10             	mov    %rdx,(%rax)
  1e:	48 8b 45 f8          	mov    -0x8(%rbp),%rax
  22:	5d                   	pop    %rbp
  23:	c3                   	retq   

Disassembly of section .text._ZNSt7__cxx1112basic_stringIcSt11char_traitsIcESaIcEEC2IN9__gnu_cxx17__normal_iteratorIPhSt6vectorIhSaIhEEEEvEET_SD_RKS3_:

0000000000000000 <_ZNSt7__cxx1112basic_stringIcSt11char_traitsIcESaIcEEC1IN9__gnu_cxx17__normal_iteratorIPhSt6vectorIhSaIhEEEEvEET_SD_RKS3_>:
   0:	f3 0f 1e fa          	endbr64 
   4:	55                   	push   %rbp
   5:	48 89 e5             	mov    %rsp,%rbp
   8:	53                   	push   %rbx
   9:	48 83 ec 28          	sub    $0x28,%rsp
   d:	48 89 7d e8          	mov    %rdi,-0x18(%rbp)
  11:	48 89 75 e0          	mov    %rsi,-0x20(%rbp)
  15:	48 89 55 d8          	mov    %rdx,-0x28(%rbp)
  19:	48 89 4d d0          	mov    %rcx,-0x30(%rbp)
  1d:	48 8b 5d e8          	mov    -0x18(%rbp),%rbx
  21:	48 8b 45 e8          	mov    -0x18(%rbp),%rax
  25:	48 89 c7             	mov    %rax,%rdi
  28:	e8 00 00 00 00       	callq  2d <_ZNSt7__cxx1112basic_stringIcSt11char_traitsIcESaIcEEC1IN9__gnu_cxx17__normal_iteratorIPhSt6vectorIhSaIhEEEEvEET_SD_RKS3_+0x2d>
  2d:	48 89 c1             	mov    %rax,%rcx
  30:	48 8b 45 d0          	mov    -0x30(%rbp),%rax
  34:	48 89 c2             	mov    %rax,%rdx
  37:	48 89 ce             	mov    %rcx,%rsi
  3a:	48 89 df             	mov    %rbx,%rdi
  3d:	e8 00 00 00 00       	callq  42 <_ZNSt7__cxx1112basic_stringIcSt11char_traitsIcESaIcEEC1IN9__gnu_cxx17__normal_iteratorIPhSt6vectorIhSaIhEEEEvEET_SD_RKS3_+0x42>
  42:	48 8b 55 d8          	mov    -0x28(%rbp),%rdx
  46:	48 8b 4d e0          	mov    -0x20(%rbp),%rcx
  4a:	48 8b 45 e8          	mov    -0x18(%rbp),%rax
  4e:	48 89 ce             	mov    %rcx,%rsi
  51:	48 89 c7             	mov    %rax,%rdi
  54:	e8 00 00 00 00       	callq  59 <_ZNSt7__cxx1112basic_stringIcSt11char_traitsIcESaIcEEC1IN9__gnu_cxx17__normal_iteratorIPhSt6vectorIhSaIhEEEEvEET_SD_RKS3_+0x59>
  59:	eb 1e                	jmp    79 <_ZNSt7__cxx1112basic_stringIcSt11char_traitsIcESaIcEEC1IN9__gnu_cxx17__normal_iteratorIPhSt6vectorIhSaIhEEEEvEET_SD_RKS3_+0x79>
  5b:	f3 0f 1e fa          	endbr64 
  5f:	48 89 c3             	mov    %rax,%rbx
  62:	48 8b 45 e8          	mov    -0x18(%rbp),%rax
  66:	48 89 c7             	mov    %rax,%rdi
  69:	e8 00 00 00 00       	callq  6e <_ZNSt7__cxx1112basic_stringIcSt11char_traitsIcESaIcEEC1IN9__gnu_cxx17__normal_iteratorIPhSt6vectorIhSaIhEEEEvEET_SD_RKS3_+0x6e>
  6e:	48 89 d8             	mov    %rbx,%rax
  71:	48 89 c7             	mov    %rax,%rdi
  74:	e8 00 00 00 00       	callq  79 <_ZNSt7__cxx1112basic_stringIcSt11char_traitsIcESaIcEEC1IN9__gnu_cxx17__normal_iteratorIPhSt6vectorIhSaIhEEEEvEET_SD_RKS3_+0x79>
  79:	48 83 c4 28          	add    $0x28,%rsp
  7d:	5b                   	pop    %rbx
  7e:	5d                   	pop    %rbp
  7f:	c3                   	retq   

Disassembly of section .text._ZN9__gnu_cxxmiIPKcNSt7__cxx1112basic_stringIcSt11char_traitsIcESaIcEEEEENS_17__normal_iteratorIT_T0_E15difference_typeERKSC_SF_:

0000000000000000 <_ZN9__gnu_cxxmiIPKcNSt7__cxx1112basic_stringIcSt11char_traitsIcESaIcEEEEENS_17__normal_iteratorIT_T0_E15difference_typeERKSC_SF_>:
   0:	f3 0f 1e fa          	endbr64 
   4:	55                   	push   %rbp
   5:	48 89 e5             	mov    %rsp,%rbp
   8:	53                   	push   %rbx
   9:	48 83 ec 18          	sub    $0x18,%rsp
   d:	48 89 7d e8          	mov    %rdi,-0x18(%rbp)
  11:	48 89 75 e0          	mov    %rsi,-0x20(%rbp)
  15:	48 8b 45 e8          	mov    -0x18(%rbp),%rax
  19:	48 89 c7             	mov    %rax,%rdi
  1c:	e8 00 00 00 00       	callq  21 <_ZN9__gnu_cxxmiIPKcNSt7__cxx1112basic_stringIcSt11char_traitsIcESaIcEEEEENS_17__normal_iteratorIT_T0_E15difference_typeERKSC_SF_+0x21>
  21:	48 8b 18             	mov    (%rax),%rbx
  24:	48 8b 45 e0          	mov    -0x20(%rbp),%rax
  28:	48 89 c7             	mov    %rax,%rdi
  2b:	e8 00 00 00 00       	callq  30 <_ZN9__gnu_cxxmiIPKcNSt7__cxx1112basic_stringIcSt11char_traitsIcESaIcEEEEENS_17__normal_iteratorIT_T0_E15difference_typeERKSC_SF_+0x30>
  30:	48 8b 00             	mov    (%rax),%rax
  33:	48 29 c3             	sub    %rax,%rbx
  36:	48 89 d8             	mov    %rbx,%rax
  39:	48 83 c4 18          	add    $0x18,%rsp
  3d:	5b                   	pop    %rbx
  3e:	5d                   	pop    %rbp
  3f:	c3                   	retq   

Disassembly of section .text._ZN9__gnu_cxxmiIPKcPcNSt7__cxx1112basic_stringIcSt11char_traitsIcESaIcEEEEEDTmicldtfp_4baseEcldtfp0_4baseEERKNS_17__normal_iteratorIT_T1_EERKNSB_IT0_SD_EE:

0000000000000000 <_ZN9__gnu_cxxmiIPKcPcNSt7__cxx1112basic_stringIcSt11char_traitsIcESaIcEEEEEDTmicldtfp_4baseEcldtfp0_4baseEERKNS_17__normal_iteratorIT_T1_EERKNSB_IT0_SD_EE>:
   0:	f3 0f 1e fa          	endbr64 
   4:	55                   	push   %rbp
   5:	48 89 e5             	mov    %rsp,%rbp
   8:	53                   	push   %rbx
   9:	48 83 ec 18          	sub    $0x18,%rsp
   d:	48 89 7d e8          	mov    %rdi,-0x18(%rbp)
  11:	48 89 75 e0          	mov    %rsi,-0x20(%rbp)
  15:	48 8b 45 e8          	mov    -0x18(%rbp),%rax
  19:	48 89 c7             	mov    %rax,%rdi
  1c:	e8 00 00 00 00       	callq  21 <_ZN9__gnu_cxxmiIPKcPcNSt7__cxx1112basic_stringIcSt11char_traitsIcESaIcEEEEEDTmicldtfp_4baseEcldtfp0_4baseEERKNS_17__normal_iteratorIT_T1_EERKNSB_IT0_SD_EE+0x21>
  21:	48 8b 18             	mov    (%rax),%rbx
  24:	48 8b 45 e0          	mov    -0x20(%rbp),%rax
  28:	48 89 c7             	mov    %rax,%rdi
  2b:	e8 00 00 00 00       	callq  30 <_ZN9__gnu_cxxmiIPKcPcNSt7__cxx1112basic_stringIcSt11char_traitsIcESaIcEEEEEDTmicldtfp_4baseEcldtfp0_4baseEERKNS_17__normal_iteratorIT_T1_EERKNSB_IT0_SD_EE+0x30>
  30:	48 8b 00             	mov    (%rax),%rax
  33:	48 29 c3             	sub    %rax,%rbx
  36:	48 89 d8             	mov    %rbx,%rax
  39:	48 83 c4 18          	add    $0x18,%rsp
  3d:	5b                   	pop    %rbx
  3e:	5d                   	pop    %rbp
  3f:	c3                   	retq   

Disassembly of section .text._ZSt12__miter_baseIN9__gnu_cxx17__normal_iteratorIPhSt6vectorIhSaIhEEEEET_S7_:

0000000000000000 <_ZSt12__miter_baseIN9__gnu_cxx17__normal_iteratorIPhSt6vectorIhSaIhEEEEET_S7_>:
   0:	f3 0f 1e fa          	endbr64 
   4:	55                   	push   %rbp
   5:	48 89 e5             	mov    %rsp,%rbp
   8:	48 89 7d f8          	mov    %rdi,-0x8(%rbp)
   c:	48 8b 45 f8          	mov    -0x8(%rbp),%rax
  10:	5d                   	pop    %rbp
  11:	c3                   	retq   

Disassembly of section .text._ZSt14__copy_move_a2ILb1EN9__gnu_cxx17__normal_iteratorIPhSt6vectorIhSaIhEEEES6_ET1_T0_S8_S7_:

0000000000000000 <_ZSt14__copy_move_a2ILb1EN9__gnu_cxx17__normal_iteratorIPhSt6vectorIhSaIhEEEES6_ET1_T0_S8_S7_>:
   0:	f3 0f 1e fa          	endbr64 
   4:	55                   	push   %rbp
   5:	48 89 e5             	mov    %rsp,%rbp
   8:	41 54                	push   %r12
   a:	53                   	push   %rbx
   b:	48 83 ec 20          	sub    $0x20,%rsp
   f:	48 89 7d e8          	mov    %rdi,-0x18(%rbp)
  13:	48 89 75 e0          	mov    %rsi,-0x20(%rbp)
  17:	48 89 55 d8          	mov    %rdx,-0x28(%rbp)
  1b:	48 8b 45 d8          	mov    -0x28(%rbp),%rax
  1f:	48 89 c7             	mov    %rax,%rdi
  22:	e8 00 00 00 00       	callq  27 <_ZSt14__copy_move_a2ILb1EN9__gnu_cxx17__normal_iteratorIPhSt6vectorIhSaIhEEEES6_ET1_T0_S8_S7_+0x27>
  27:	49 89 c4             	mov    %rax,%r12
  2a:	48 8b 45 e0          	mov    -0x20(%rbp),%rax
  2e:	48 89 c7             	mov    %rax,%rdi
  31:	e8 00 00 00 00       	callq  36 <_ZSt14__copy_move_a2ILb1EN9__gnu_cxx17__normal_iteratorIPhSt6vectorIhSaIhEEEES6_ET1_T0_S8_S7_+0x36>
  36:	48 89 c3             	mov    %rax,%rbx
  39:	48 8b 45 e8          	mov    -0x18(%rbp),%rax
  3d:	48 89 c7             	mov    %rax,%rdi
  40:	e8 00 00 00 00       	callq  45 <_ZSt14__copy_move_a2ILb1EN9__gnu_cxx17__normal_iteratorIPhSt6vectorIhSaIhEEEES6_ET1_T0_S8_S7_+0x45>
  45:	4c 89 e2             	mov    %r12,%rdx
  48:	48 89 de             	mov    %rbx,%rsi
  4b:	48 89 c7             	mov    %rax,%rdi
  4e:	e8 00 00 00 00       	callq  53 <_ZSt14__copy_move_a2ILb1EN9__gnu_cxx17__normal_iteratorIPhSt6vectorIhSaIhEEEES6_ET1_T0_S8_S7_+0x53>
  53:	48 89 c2             	mov    %rax,%rdx
  56:	48 8b 45 d8          	mov    -0x28(%rbp),%rax
  5a:	48 89 d6             	mov    %rdx,%rsi
  5d:	48 89 c7             	mov    %rax,%rdi
  60:	e8 00 00 00 00       	callq  65 <_ZSt14__copy_move_a2ILb1EN9__gnu_cxx17__normal_iteratorIPhSt6vectorIhSaIhEEEES6_ET1_T0_S8_S7_+0x65>
  65:	48 83 c4 20          	add    $0x20,%rsp
  69:	5b                   	pop    %rbx
  6a:	41 5c                	pop    %r12
  6c:	5d                   	pop    %rbp
  6d:	c3                   	retq   

Disassembly of section .text._ZSt8distanceIN9__gnu_cxx17__normal_iteratorIPhSt6vectorIhSaIhEEEEENSt15iterator_traitsIT_E15difference_typeES8_S8_:

0000000000000000 <_ZSt8distanceIN9__gnu_cxx17__normal_iteratorIPhSt6vectorIhSaIhEEEEENSt15iterator_traitsIT_E15difference_typeES8_S8_>:
   0:	f3 0f 1e fa          	endbr64 
   4:	55                   	push   %rbp
   5:	48 89 e5             	mov    %rsp,%rbp
   8:	48 83 ec 20          	sub    $0x20,%rsp
   c:	48 89 7d e8          	mov    %rdi,-0x18(%rbp)
  10:	48 89 75 e0          	mov    %rsi,-0x20(%rbp)
  14:	64 48 8b 04 25 28 00 	mov    %fs:0x28,%rax
  1b:	00 00 
  1d:	48 89 45 f8          	mov    %rax,-0x8(%rbp)
  21:	31 c0                	xor    %eax,%eax
  23:	48 8d 45 e8          	lea    -0x18(%rbp),%rax
  27:	48 89 c7             	mov    %rax,%rdi
  2a:	e8 00 00 00 00       	callq  2f <_ZSt8distanceIN9__gnu_cxx17__normal_iteratorIPhSt6vectorIhSaIhEEEEENSt15iterator_traitsIT_E15difference_typeES8_S8_+0x2f>
  2f:	48 8b 55 e0          	mov    -0x20(%rbp),%rdx
  33:	48 8b 45 e8          	mov    -0x18(%rbp),%rax
  37:	48 89 d6             	mov    %rdx,%rsi
  3a:	48 89 c7             	mov    %rax,%rdi
  3d:	e8 00 00 00 00       	callq  42 <_ZSt8distanceIN9__gnu_cxx17__normal_iteratorIPhSt6vectorIhSaIhEEEEENSt15iterator_traitsIT_E15difference_typeES8_S8_+0x42>
  42:	48 8b 4d f8          	mov    -0x8(%rbp),%rcx
  46:	64 48 33 0c 25 28 00 	xor    %fs:0x28,%rcx
  4d:	00 00 
  4f:	74 05                	je     56 <_ZSt8distanceIN9__gnu_cxx17__normal_iteratorIPhSt6vectorIhSaIhEEEEENSt15iterator_traitsIT_E15difference_typeES8_S8_+0x56>
  51:	e8 00 00 00 00       	callq  56 <_ZSt8distanceIN9__gnu_cxx17__normal_iteratorIPhSt6vectorIhSaIhEEEEENSt15iterator_traitsIT_E15difference_typeES8_S8_+0x56>
  56:	c9                   	leaveq 
  57:	c3                   	retq   

Disassembly of section .text._ZSt22__uninitialized_move_aIPhS0_SaIhEET0_T_S3_S2_RT1_:

0000000000000000 <_ZSt22__uninitialized_move_aIPhS0_SaIhEET0_T_S3_S2_RT1_>:
   0:	f3 0f 1e fa          	endbr64 
   4:	55                   	push   %rbp
   5:	48 89 e5             	mov    %rsp,%rbp
   8:	53                   	push   %rbx
   9:	48 83 ec 28          	sub    $0x28,%rsp
   d:	48 89 7d e8          	mov    %rdi,-0x18(%rbp)
  11:	48 89 75 e0          	mov    %rsi,-0x20(%rbp)
  15:	48 89 55 d8          	mov    %rdx,-0x28(%rbp)
  19:	48 89 4d d0          	mov    %rcx,-0x30(%rbp)
  1d:	48 8b 45 e0          	mov    -0x20(%rbp),%rax
  21:	48 89 c7             	mov    %rax,%rdi
  24:	e8 00 00 00 00       	callq  29 <_ZSt22__uninitialized_move_aIPhS0_SaIhEET0_T_S3_S2_RT1_+0x29>
  29:	48 89 c3             	mov    %rax,%rbx
  2c:	48 8b 45 e8          	mov    -0x18(%rbp),%rax
  30:	48 89 c7             	mov    %rax,%rdi
  33:	e8 00 00 00 00       	callq  38 <_ZSt22__uninitialized_move_aIPhS0_SaIhEET0_T_S3_S2_RT1_+0x38>
  38:	48 89 c7             	mov    %rax,%rdi
  3b:	48 8b 55 d0          	mov    -0x30(%rbp),%rdx
  3f:	48 8b 45 d8          	mov    -0x28(%rbp),%rax
  43:	48 89 d1             	mov    %rdx,%rcx
  46:	48 89 c2             	mov    %rax,%rdx
  49:	48 89 de             	mov    %rbx,%rsi
  4c:	e8 00 00 00 00       	callq  51 <_ZSt22__uninitialized_move_aIPhS0_SaIhEET0_T_S3_S2_RT1_+0x51>
  51:	48 83 c4 28          	add    $0x28,%rsp
  55:	5b                   	pop    %rbx
  56:	5d                   	pop    %rbp
  57:	c3                   	retq   

Disassembly of section .text._ZSt13move_backwardIPhS0_ET0_T_S2_S1_:

0000000000000000 <_ZSt13move_backwardIPhS0_ET0_T_S2_S1_>:
   0:	f3 0f 1e fa          	endbr64 
   4:	55                   	push   %rbp
   5:	48 89 e5             	mov    %rsp,%rbp
   8:	53                   	push   %rbx
   9:	48 83 ec 28          	sub    $0x28,%rsp
   d:	48 89 7d e8          	mov    %rdi,-0x18(%rbp)
  11:	48 89 75 e0          	mov    %rsi,-0x20(%rbp)
  15:	48 89 55 d8          	mov    %rdx,-0x28(%rbp)
  19:	48 8b 45 e0          	mov    -0x20(%rbp),%rax
  1d:	48 89 c7             	mov    %rax,%rdi
  20:	e8 00 00 00 00       	callq  25 <_ZSt13move_backwardIPhS0_ET0_T_S2_S1_+0x25>
  25:	48 89 c3             	mov    %rax,%rbx
  28:	48 8b 45 e8          	mov    -0x18(%rbp),%rax
  2c:	48 89 c7             	mov    %rax,%rdi
  2f:	e8 00 00 00 00       	callq  34 <_ZSt13move_backwardIPhS0_ET0_T_S2_S1_+0x34>
  34:	48 89 c1             	mov    %rax,%rcx
  37:	48 8b 45 d8          	mov    -0x28(%rbp),%rax
  3b:	48 89 c2             	mov    %rax,%rdx
  3e:	48 89 de             	mov    %rbx,%rsi
  41:	48 89 cf             	mov    %rcx,%rdi
  44:	e8 00 00 00 00       	callq  49 <_ZSt13move_backwardIPhS0_ET0_T_S2_S1_+0x49>
  49:	48 83 c4 28          	add    $0x28,%rsp
  4d:	5b                   	pop    %rbx
  4e:	5d                   	pop    %rbp
  4f:	c3                   	retq   

Disassembly of section .text._ZSt4copyIN9__gnu_cxx17__normal_iteratorIPhSt6vectorIhSaIhEEEES6_ET0_T_S8_S7_:

0000000000000000 <_ZSt4copyIN9__gnu_cxx17__normal_iteratorIPhSt6vectorIhSaIhEEEES6_ET0_T_S8_S7_>:
   0:	f3 0f 1e fa          	endbr64 
   4:	55                   	push   %rbp
   5:	48 89 e5             	mov    %rsp,%rbp
   8:	53                   	push   %rbx
   9:	48 83 ec 28          	sub    $0x28,%rsp
   d:	48 89 7d e8          	mov    %rdi,-0x18(%rbp)
  11:	48 89 75 e0          	mov    %rsi,-0x20(%rbp)
  15:	48 89 55 d8          	mov    %rdx,-0x28(%rbp)
  19:	48 8b 45 e0          	mov    -0x20(%rbp),%rax
  1d:	48 89 c7             	mov    %rax,%rdi
  20:	e8 00 00 00 00       	callq  25 <_ZSt4copyIN9__gnu_cxx17__normal_iteratorIPhSt6vectorIhSaIhEEEES6_ET0_T_S8_S7_+0x25>
  25:	48 89 c3             	mov    %rax,%rbx
  28:	48 8b 45 e8          	mov    -0x18(%rbp),%rax
  2c:	48 89 c7             	mov    %rax,%rdi
  2f:	e8 00 00 00 00       	callq  34 <_ZSt4copyIN9__gnu_cxx17__normal_iteratorIPhSt6vectorIhSaIhEEEES6_ET0_T_S8_S7_+0x34>
  34:	48 89 c1             	mov    %rax,%rcx
  37:	48 8b 45 d8          	mov    -0x28(%rbp),%rax
  3b:	48 89 c2             	mov    %rax,%rdx
  3e:	48 89 de             	mov    %rbx,%rsi
  41:	48 89 cf             	mov    %rcx,%rdi
  44:	e8 00 00 00 00       	callq  49 <_ZSt4copyIN9__gnu_cxx17__normal_iteratorIPhSt6vectorIhSaIhEEEES6_ET0_T_S8_S7_+0x49>
  49:	48 83 c4 28          	add    $0x28,%rsp
  4d:	5b                   	pop    %rbx
  4e:	5d                   	pop    %rbp
  4f:	c3                   	retq   

Disassembly of section .text._ZSt7advanceIN9__gnu_cxx17__normal_iteratorIPhSt6vectorIhSaIhEEEEmEvRT_T0_:

0000000000000000 <_ZSt7advanceIN9__gnu_cxx17__normal_iteratorIPhSt6vectorIhSaIhEEEEmEvRT_T0_>:
   0:	f3 0f 1e fa          	endbr64 
   4:	55                   	push   %rbp
   5:	48 89 e5             	mov    %rsp,%rbp
   8:	48 83 ec 30          	sub    $0x30,%rsp
   c:	48 89 7d d8          	mov    %rdi,-0x28(%rbp)
  10:	48 89 75 d0          	mov    %rsi,-0x30(%rbp)
  14:	64 48 8b 04 25 28 00 	mov    %fs:0x28,%rax
  1b:	00 00 
  1d:	48 89 45 f8          	mov    %rax,-0x8(%rbp)
  21:	31 c0                	xor    %eax,%eax
  23:	48 8b 45 d0          	mov    -0x30(%rbp),%rax
  27:	48 89 45 f0          	mov    %rax,-0x10(%rbp)
  2b:	48 8b 45 d8          	mov    -0x28(%rbp),%rax
  2f:	48 89 c7             	mov    %rax,%rdi
  32:	e8 00 00 00 00       	callq  37 <_ZSt7advanceIN9__gnu_cxx17__normal_iteratorIPhSt6vectorIhSaIhEEEEmEvRT_T0_+0x37>
  37:	48 8b 55 f0          	mov    -0x10(%rbp),%rdx
  3b:	48 8b 45 d8          	mov    -0x28(%rbp),%rax
  3f:	48 89 d6             	mov    %rdx,%rsi
  42:	48 89 c7             	mov    %rax,%rdi
  45:	e8 00 00 00 00       	callq  4a <_ZSt7advanceIN9__gnu_cxx17__normal_iteratorIPhSt6vectorIhSaIhEEEEmEvRT_T0_+0x4a>
  4a:	90                   	nop
  4b:	48 8b 45 f8          	mov    -0x8(%rbp),%rax
  4f:	64 48 33 04 25 28 00 	xor    %fs:0x28,%rax
  56:	00 00 
  58:	74 05                	je     5f <_ZSt7advanceIN9__gnu_cxx17__normal_iteratorIPhSt6vectorIhSaIhEEEEmEvRT_T0_+0x5f>
  5a:	e8 00 00 00 00       	callq  5f <_ZSt7advanceIN9__gnu_cxx17__normal_iteratorIPhSt6vectorIhSaIhEEEEmEvRT_T0_+0x5f>
  5f:	c9                   	leaveq 
  60:	c3                   	retq   

Disassembly of section .text._ZSt22__uninitialized_copy_aIN9__gnu_cxx17__normal_iteratorIPhSt6vectorIhSaIhEEEES2_hET0_T_S8_S7_RSaIT1_E:

0000000000000000 <_ZSt22__uninitialized_copy_aIN9__gnu_cxx17__normal_iteratorIPhSt6vectorIhSaIhEEEES2_hET0_T_S8_S7_RSaIT1_E>:
   0:	f3 0f 1e fa          	endbr64 
   4:	55                   	push   %rbp
   5:	48 89 e5             	mov    %rsp,%rbp
   8:	48 83 ec 20          	sub    $0x20,%rsp
   c:	48 89 7d f8          	mov    %rdi,-0x8(%rbp)
  10:	48 89 75 f0          	mov    %rsi,-0x10(%rbp)
  14:	48 89 55 e8          	mov    %rdx,-0x18(%rbp)
  18:	48 89 4d e0          	mov    %rcx,-0x20(%rbp)
  1c:	48 8b 55 e8          	mov    -0x18(%rbp),%rdx
  20:	48 8b 4d f0          	mov    -0x10(%rbp),%rcx
  24:	48 8b 45 f8          	mov    -0x8(%rbp),%rax
  28:	48 89 ce             	mov    %rcx,%rsi
  2b:	48 89 c7             	mov    %rax,%rdi
  2e:	e8 00 00 00 00       	callq  33 <_ZSt22__uninitialized_copy_aIN9__gnu_cxx17__normal_iteratorIPhSt6vectorIhSaIhEEEES2_hET0_T_S8_S7_RSaIT1_E+0x33>
  33:	c9                   	leaveq 
  34:	c3                   	retq   

Disassembly of section .text._ZN9__gnu_cxx13new_allocatorISt6vectorINSt7__cxx1112basic_stringIcSt11char_traitsIcESaIcEEESaIS7_EEE10deallocateEPS9_m:

0000000000000000 <_ZN9__gnu_cxx13new_allocatorISt6vectorINSt7__cxx1112basic_stringIcSt11char_traitsIcESaIcEEESaIS7_EEE10deallocateEPS9_m>:
   0:	f3 0f 1e fa          	endbr64 
   4:	55                   	push   %rbp
   5:	48 89 e5             	mov    %rsp,%rbp
   8:	48 83 ec 20          	sub    $0x20,%rsp
   c:	48 89 7d f8          	mov    %rdi,-0x8(%rbp)
  10:	48 89 75 f0          	mov    %rsi,-0x10(%rbp)
  14:	48 89 55 e8          	mov    %rdx,-0x18(%rbp)
  18:	48 8b 45 f0          	mov    -0x10(%rbp),%rax
  1c:	48 89 c7             	mov    %rax,%rdi
  1f:	e8 00 00 00 00       	callq  24 <_ZN9__gnu_cxx13new_allocatorISt6vectorINSt7__cxx1112basic_stringIcSt11char_traitsIcESaIcEEESaIS7_EEE10deallocateEPS9_m+0x24>
  24:	90                   	nop
  25:	c9                   	leaveq 
  26:	c3                   	retq   

Disassembly of section .text._ZNSt12_Destroy_auxILb0EE9__destroyIPSt6vectorINSt7__cxx1112basic_stringIcSt11char_traitsIcESaIcEEESaIS8_EEEEvT_SC_:

0000000000000000 <_ZNSt12_Destroy_auxILb0EE9__destroyIPSt6vectorINSt7__cxx1112basic_stringIcSt11char_traitsIcESaIcEEESaIS8_EEEEvT_SC_>:
   0:	f3 0f 1e fa          	endbr64 
   4:	55                   	push   %rbp
   5:	48 89 e5             	mov    %rsp,%rbp
   8:	48 83 ec 10          	sub    $0x10,%rsp
   c:	48 89 7d f8          	mov    %rdi,-0x8(%rbp)
  10:	48 89 75 f0          	mov    %rsi,-0x10(%rbp)
  14:	48 8b 45 f8          	mov    -0x8(%rbp),%rax
  18:	48 3b 45 f0          	cmp    -0x10(%rbp),%rax
  1c:	74 1b                	je     39 <_ZNSt12_Destroy_auxILb0EE9__destroyIPSt6vectorINSt7__cxx1112basic_stringIcSt11char_traitsIcESaIcEEESaIS8_EEEEvT_SC_+0x39>
  1e:	48 8b 45 f8          	mov    -0x8(%rbp),%rax
  22:	48 89 c7             	mov    %rax,%rdi
  25:	e8 00 00 00 00       	callq  2a <_ZNSt12_Destroy_auxILb0EE9__destroyIPSt6vectorINSt7__cxx1112basic_stringIcSt11char_traitsIcESaIcEEESaIS8_EEEEvT_SC_+0x2a>
  2a:	48 89 c7             	mov    %rax,%rdi
  2d:	e8 00 00 00 00       	callq  32 <_ZNSt12_Destroy_auxILb0EE9__destroyIPSt6vectorINSt7__cxx1112basic_stringIcSt11char_traitsIcESaIcEEESaIS8_EEEEvT_SC_+0x32>
  32:	48 83 45 f8 18       	addq   $0x18,-0x8(%rbp)
  37:	eb db                	jmp    14 <_ZNSt12_Destroy_auxILb0EE9__destroyIPSt6vectorINSt7__cxx1112basic_stringIcSt11char_traitsIcESaIcEEESaIS8_EEEEvT_SC_+0x14>
  39:	90                   	nop
  3a:	c9                   	leaveq 
  3b:	c3                   	retq   

Disassembly of section .text._ZN9__gnu_cxx13new_allocatorINSt7__cxx1112basic_stringIcSt11char_traitsIcESaIcEEEE10deallocateEPS6_m:

0000000000000000 <_ZN9__gnu_cxx13new_allocatorINSt7__cxx1112basic_stringIcSt11char_traitsIcESaIcEEEE10deallocateEPS6_m>:
   0:	f3 0f 1e fa          	endbr64 
   4:	55                   	push   %rbp
   5:	48 89 e5             	mov    %rsp,%rbp
   8:	48 83 ec 20          	sub    $0x20,%rsp
   c:	48 89 7d f8          	mov    %rdi,-0x8(%rbp)
  10:	48 89 75 f0          	mov    %rsi,-0x10(%rbp)
  14:	48 89 55 e8          	mov    %rdx,-0x18(%rbp)
  18:	48 8b 45 f0          	mov    -0x10(%rbp),%rax
  1c:	48 89 c7             	mov    %rax,%rdi
  1f:	e8 00 00 00 00       	callq  24 <_ZN9__gnu_cxx13new_allocatorINSt7__cxx1112basic_stringIcSt11char_traitsIcESaIcEEEE10deallocateEPS6_m+0x24>
  24:	90                   	nop
  25:	c9                   	leaveq 
  26:	c3                   	retq   

Disassembly of section .text._ZNSt12_Destroy_auxILb0EE9__destroyIPNSt7__cxx1112basic_stringIcSt11char_traitsIcESaIcEEEEEvT_S9_:

0000000000000000 <_ZNSt12_Destroy_auxILb0EE9__destroyIPNSt7__cxx1112basic_stringIcSt11char_traitsIcESaIcEEEEEvT_S9_>:
   0:	f3 0f 1e fa          	endbr64 
   4:	55                   	push   %rbp
   5:	48 89 e5             	mov    %rsp,%rbp
   8:	48 83 ec 10          	sub    $0x10,%rsp
   c:	48 89 7d f8          	mov    %rdi,-0x8(%rbp)
  10:	48 89 75 f0          	mov    %rsi,-0x10(%rbp)
  14:	48 8b 45 f8          	mov    -0x8(%rbp),%rax
  18:	48 3b 45 f0          	cmp    -0x10(%rbp),%rax
  1c:	74 1b                	je     39 <_ZNSt12_Destroy_auxILb0EE9__destroyIPNSt7__cxx1112basic_stringIcSt11char_traitsIcESaIcEEEEEvT_S9_+0x39>
  1e:	48 8b 45 f8          	mov    -0x8(%rbp),%rax
  22:	48 89 c7             	mov    %rax,%rdi
  25:	e8 00 00 00 00       	callq  2a <_ZNSt12_Destroy_auxILb0EE9__destroyIPNSt7__cxx1112basic_stringIcSt11char_traitsIcESaIcEEEEEvT_S9_+0x2a>
  2a:	48 89 c7             	mov    %rax,%rdi
  2d:	e8 00 00 00 00       	callq  32 <_ZNSt12_Destroy_auxILb0EE9__destroyIPNSt7__cxx1112basic_stringIcSt11char_traitsIcESaIcEEEEEvT_S9_+0x32>
  32:	48 83 45 f8 20       	addq   $0x20,-0x8(%rbp)
  37:	eb db                	jmp    14 <_ZNSt12_Destroy_auxILb0EE9__destroyIPNSt7__cxx1112basic_stringIcSt11char_traitsIcESaIcEEEEEvT_S9_+0x14>
  39:	90                   	nop
  3a:	c9                   	leaveq 
  3b:	c3                   	retq   

Disassembly of section .text._ZNKSt6vectorINSt7__cxx1112basic_stringIcSt11char_traitsIcESaIcEEESaIS5_EE8max_sizeEv:

0000000000000000 <_ZNKSt6vectorINSt7__cxx1112basic_stringIcSt11char_traitsIcESaIcEEESaIS5_EE8max_sizeEv>:
   0:	f3 0f 1e fa          	endbr64 
   4:	55                   	push   %rbp
   5:	48 89 e5             	mov    %rsp,%rbp
   8:	48 83 ec 10          	sub    $0x10,%rsp
   c:	48 89 7d f8          	mov    %rdi,-0x8(%rbp)
  10:	48 8b 45 f8          	mov    -0x8(%rbp),%rax
  14:	48 89 c7             	mov    %rax,%rdi
  17:	e8 00 00 00 00       	callq  1c <_ZNKSt6vectorINSt7__cxx1112basic_stringIcSt11char_traitsIcESaIcEEESaIS5_EE8max_sizeEv+0x1c>
  1c:	48 89 c7             	mov    %rax,%rdi
  1f:	e8 00 00 00 00       	callq  24 <_ZNKSt6vectorINSt7__cxx1112basic_stringIcSt11char_traitsIcESaIcEEESaIS5_EE8max_sizeEv+0x24>
  24:	c9                   	leaveq 
  25:	c3                   	retq   

Disassembly of section .text._ZNKSt6vectorINSt7__cxx1112basic_stringIcSt11char_traitsIcESaIcEEESaIS5_EE4sizeEv:

0000000000000000 <_ZNKSt6vectorINSt7__cxx1112basic_stringIcSt11char_traitsIcESaIcEEESaIS5_EE4sizeEv>:
   0:	f3 0f 1e fa          	endbr64 
   4:	55                   	push   %rbp
   5:	48 89 e5             	mov    %rsp,%rbp
   8:	48 89 7d f8          	mov    %rdi,-0x8(%rbp)
   c:	48 8b 45 f8          	mov    -0x8(%rbp),%rax
  10:	48 8b 50 08          	mov    0x8(%rax),%rdx
  14:	48 8b 45 f8          	mov    -0x8(%rbp),%rax
  18:	48 8b 00             	mov    (%rax),%rax
  1b:	48 29 c2             	sub    %rax,%rdx
  1e:	48 89 d0             	mov    %rdx,%rax
  21:	48 c1 f8 05          	sar    $0x5,%rax
  25:	5d                   	pop    %rbp
  26:	c3                   	retq   

Disassembly of section .text._ZNSt16allocator_traitsISaINSt7__cxx1112basic_stringIcSt11char_traitsIcESaIcEEEEE8allocateERS6_m:

0000000000000000 <_ZNSt16allocator_traitsISaINSt7__cxx1112basic_stringIcSt11char_traitsIcESaIcEEEEE8allocateERS6_m>:
   0:	f3 0f 1e fa          	endbr64 
   4:	55                   	push   %rbp
   5:	48 89 e5             	mov    %rsp,%rbp
   8:	48 83 ec 10          	sub    $0x10,%rsp
   c:	48 89 7d f8          	mov    %rdi,-0x8(%rbp)
  10:	48 89 75 f0          	mov    %rsi,-0x10(%rbp)
  14:	48 8b 4d f0          	mov    -0x10(%rbp),%rcx
  18:	48 8b 45 f8          	mov    -0x8(%rbp),%rax
  1c:	ba 00 00 00 00       	mov    $0x0,%edx
  21:	48 89 ce             	mov    %rcx,%rsi
  24:	48 89 c7             	mov    %rax,%rdi
  27:	e8 00 00 00 00       	callq  2c <_ZNSt16allocator_traitsISaINSt7__cxx1112basic_stringIcSt11char_traitsIcESaIcEEEEE8allocateERS6_m+0x2c>
  2c:	c9                   	leaveq 
  2d:	c3                   	retq   

Disassembly of section .text._ZNSt6vectorINSt7__cxx1112basic_stringIcSt11char_traitsIcESaIcEEESaIS5_EE14_S_do_relocateEPS5_S8_S8_RS6_St17integral_constantIbLb1EE:

0000000000000000 <_ZNSt6vectorINSt7__cxx1112basic_stringIcSt11char_traitsIcESaIcEEESaIS5_EE14_S_do_relocateEPS5_S8_S8_RS6_St17integral_constantIbLb1EE>:
   0:	f3 0f 1e fa          	endbr64 
   4:	55                   	push   %rbp
   5:	48 89 e5             	mov    %rsp,%rbp
   8:	48 83 ec 20          	sub    $0x20,%rsp
   c:	48 89 7d f8          	mov    %rdi,-0x8(%rbp)
  10:	48 89 75 f0          	mov    %rsi,-0x10(%rbp)
  14:	48 89 55 e8          	mov    %rdx,-0x18(%rbp)
  18:	48 89 4d e0          	mov    %rcx,-0x20(%rbp)
  1c:	48 8b 4d e0          	mov    -0x20(%rbp),%rcx
  20:	48 8b 55 e8          	mov    -0x18(%rbp),%rdx
  24:	48 8b 75 f0          	mov    -0x10(%rbp),%rsi
  28:	48 8b 45 f8          	mov    -0x8(%rbp),%rax
  2c:	48 89 c7             	mov    %rax,%rdi
  2f:	e8 00 00 00 00       	callq  34 <_ZNSt6vectorINSt7__cxx1112basic_stringIcSt11char_traitsIcESaIcEEESaIS5_EE14_S_do_relocateEPS5_S8_S8_RS6_St17integral_constantIbLb1EE+0x34>
  34:	c9                   	leaveq 
  35:	c3                   	retq   

Disassembly of section .text._ZSt32__make_move_if_noexcept_iteratorINSt7__cxx1112basic_stringIcSt11char_traitsIcESaIcEEESt13move_iteratorIPS5_EET0_PT_:

0000000000000000 <_ZSt32__make_move_if_noexcept_iteratorINSt7__cxx1112basic_stringIcSt11char_traitsIcESaIcEEESt13move_iteratorIPS5_EET0_PT_>:
   0:	f3 0f 1e fa          	endbr64 
   4:	55                   	push   %rbp
   5:	48 89 e5             	mov    %rsp,%rbp
   8:	48 83 ec 20          	sub    $0x20,%rsp
   c:	48 89 7d e8          	mov    %rdi,-0x18(%rbp)
  10:	64 48 8b 04 25 28 00 	mov    %fs:0x28,%rax
  17:	00 00 
  19:	48 89 45 f8          	mov    %rax,-0x8(%rbp)
  1d:	31 c0                	xor    %eax,%eax
  1f:	48 8b 55 e8          	mov    -0x18(%rbp),%rdx
  23:	48 8d 45 f0          	lea    -0x10(%rbp),%rax
  27:	48 89 d6             	mov    %rdx,%rsi
  2a:	48 89 c7             	mov    %rax,%rdi
  2d:	e8 00 00 00 00       	callq  32 <_ZSt32__make_move_if_noexcept_iteratorINSt7__cxx1112basic_stringIcSt11char_traitsIcESaIcEEESt13move_iteratorIPS5_EET0_PT_+0x32>
  32:	48 8b 45 f0          	mov    -0x10(%rbp),%rax
  36:	48 8b 4d f8          	mov    -0x8(%rbp),%rcx
  3a:	64 48 33 0c 25 28 00 	xor    %fs:0x28,%rcx
  41:	00 00 
  43:	74 05                	je     4a <_ZSt32__make_move_if_noexcept_iteratorINSt7__cxx1112basic_stringIcSt11char_traitsIcESaIcEEESt13move_iteratorIPS5_EET0_PT_+0x4a>
  45:	e8 00 00 00 00       	callq  4a <_ZSt32__make_move_if_noexcept_iteratorINSt7__cxx1112basic_stringIcSt11char_traitsIcESaIcEEESt13move_iteratorIPS5_EET0_PT_+0x4a>
  4a:	c9                   	leaveq 
  4b:	c3                   	retq   

Disassembly of section .text._ZSt22__uninitialized_copy_aISt13move_iteratorIPNSt7__cxx1112basic_stringIcSt11char_traitsIcESaIcEEEES7_S6_ET0_T_SA_S9_RSaIT1_E:

0000000000000000 <_ZSt22__uninitialized_copy_aISt13move_iteratorIPNSt7__cxx1112basic_stringIcSt11char_traitsIcESaIcEEEES7_S6_ET0_T_SA_S9_RSaIT1_E>:
   0:	f3 0f 1e fa          	endbr64 
   4:	55                   	push   %rbp
   5:	48 89 e5             	mov    %rsp,%rbp
   8:	48 83 ec 20          	sub    $0x20,%rsp
   c:	48 89 7d f8          	mov    %rdi,-0x8(%rbp)
  10:	48 89 75 f0          	mov    %rsi,-0x10(%rbp)
  14:	48 89 55 e8          	mov    %rdx,-0x18(%rbp)
  18:	48 89 4d e0          	mov    %rcx,-0x20(%rbp)
  1c:	48 8b 55 e8          	mov    -0x18(%rbp),%rdx
  20:	48 8b 4d f0          	mov    -0x10(%rbp),%rcx
  24:	48 8b 45 f8          	mov    -0x8(%rbp),%rax
  28:	48 89 ce             	mov    %rcx,%rsi
  2b:	48 89 c7             	mov    %rax,%rdi
  2e:	e8 00 00 00 00       	callq  33 <_ZSt22__uninitialized_copy_aISt13move_iteratorIPNSt7__cxx1112basic_stringIcSt11char_traitsIcESaIcEEEES7_S6_ET0_T_SA_S9_RSaIT1_E+0x33>
  33:	c9                   	leaveq 
  34:	c3                   	retq   

Disassembly of section .text._ZN9__gnu_cxx13new_allocatorINSt7__cxx1112basic_stringIcSt11char_traitsIcESaIcEEEE7destroyIS6_EEvPT_:

0000000000000000 <_ZN9__gnu_cxx13new_allocatorINSt7__cxx1112basic_stringIcSt11char_traitsIcESaIcEEEE7destroyIS6_EEvPT_>:
   0:	f3 0f 1e fa          	endbr64 
   4:	55                   	push   %rbp
   5:	48 89 e5             	mov    %rsp,%rbp
   8:	48 83 ec 10          	sub    $0x10,%rsp
   c:	48 89 7d f8          	mov    %rdi,-0x8(%rbp)
  10:	48 89 75 f0          	mov    %rsi,-0x10(%rbp)
  14:	48 8b 45 f0          	mov    -0x10(%rbp),%rax
  18:	48 89 c7             	mov    %rax,%rdi
  1b:	e8 00 00 00 00       	callq  20 <_ZN9__gnu_cxx13new_allocatorINSt7__cxx1112basic_stringIcSt11char_traitsIcESaIcEEEE7destroyIS6_EEvPT_+0x20>
  20:	90                   	nop
  21:	c9                   	leaveq 
  22:	c3                   	retq   

Disassembly of section .text._ZN9__gnu_cxx13new_allocatorINSt7__cxx1112basic_stringIcSt11char_traitsIcESaIcEEEE9constructIS6_JS6_EEEvPT_DpOT0_:

0000000000000000 <_ZN9__gnu_cxx13new_allocatorINSt7__cxx1112basic_stringIcSt11char_traitsIcESaIcEEEE9constructIS6_JS6_EEEvPT_DpOT0_>:
   0:	f3 0f 1e fa          	endbr64 
   4:	55                   	push   %rbp
   5:	48 89 e5             	mov    %rsp,%rbp
   8:	53                   	push   %rbx
   9:	48 83 ec 28          	sub    $0x28,%rsp
   d:	48 89 7d e8          	mov    %rdi,-0x18(%rbp)
  11:	48 89 75 e0          	mov    %rsi,-0x20(%rbp)
  15:	48 89 55 d8          	mov    %rdx,-0x28(%rbp)
  19:	48 8b 45 d8          	mov    -0x28(%rbp),%rax
  1d:	48 89 c7             	mov    %rax,%rdi
  20:	e8 00 00 00 00       	callq  25 <_ZN9__gnu_cxx13new_allocatorINSt7__cxx1112basic_stringIcSt11char_traitsIcESaIcEEEE9constructIS6_JS6_EEEvPT_DpOT0_+0x25>
  25:	48 89 c3             	mov    %rax,%rbx
  28:	48 8b 45 e0          	mov    -0x20(%rbp),%rax
  2c:	48 89 c6             	mov    %rax,%rsi
  2f:	bf 20 00 00 00       	mov    $0x20,%edi
  34:	e8 00 00 00 00       	callq  39 <_ZN9__gnu_cxx13new_allocatorINSt7__cxx1112basic_stringIcSt11char_traitsIcESaIcEEEE9constructIS6_JS6_EEEvPT_DpOT0_+0x39>
  39:	48 89 de             	mov    %rbx,%rsi
  3c:	48 89 c7             	mov    %rax,%rdi
  3f:	e8 00 00 00 00       	callq  44 <_ZN9__gnu_cxx13new_allocatorINSt7__cxx1112basic_stringIcSt11char_traitsIcESaIcEEEE9constructIS6_JS6_EEEvPT_DpOT0_+0x44>
  44:	90                   	nop
  45:	48 83 c4 28          	add    $0x28,%rsp
  49:	5b                   	pop    %rbx
  4a:	5d                   	pop    %rbp
  4b:	c3                   	retq   

Disassembly of section .text._ZNSt6vectorINSt7__cxx1112basic_stringIcSt11char_traitsIcESaIcEEESaIS5_EEC2ERKS7_:

0000000000000000 <_ZNSt6vectorINSt7__cxx1112basic_stringIcSt11char_traitsIcESaIcEEESaIS5_EEC1ERKS7_>:
   0:	f3 0f 1e fa          	endbr64 
   4:	55                   	push   %rbp
   5:	48 89 e5             	mov    %rsp,%rbp
   8:	41 55                	push   %r13
   a:	41 54                	push   %r12
   c:	53                   	push   %rbx
   d:	48 83 ec 28          	sub    $0x28,%rsp
  11:	48 89 7d c8          	mov    %rdi,-0x38(%rbp)
  15:	48 89 75 c0          	mov    %rsi,-0x40(%rbp)
  19:	64 48 8b 04 25 28 00 	mov    %fs:0x28,%rax
  20:	00 00 
  22:	48 89 45 d8          	mov    %rax,-0x28(%rbp)
  26:	31 c0                	xor    %eax,%eax
  28:	48 8b 5d c8          	mov    -0x38(%rbp),%rbx
  2c:	48 8b 45 c0          	mov    -0x40(%rbp),%rax
  30:	48 89 c7             	mov    %rax,%rdi
  33:	e8 00 00 00 00       	callq  38 <_ZNSt6vectorINSt7__cxx1112basic_stringIcSt11char_traitsIcESaIcEEESaIS5_EEC1ERKS7_+0x38>
  38:	48 89 c2             	mov    %rax,%rdx
  3b:	48 8d 45 d7          	lea    -0x29(%rbp),%rax
  3f:	48 89 d6             	mov    %rdx,%rsi
  42:	48 89 c7             	mov    %rax,%rdi
  45:	e8 00 00 00 00       	callq  4a <_ZNSt6vectorINSt7__cxx1112basic_stringIcSt11char_traitsIcESaIcEEESaIS5_EEC1ERKS7_+0x4a>
  4a:	48 8b 45 c0          	mov    -0x40(%rbp),%rax
  4e:	48 89 c7             	mov    %rax,%rdi
  51:	e8 00 00 00 00       	callq  56 <_ZNSt6vectorINSt7__cxx1112basic_stringIcSt11char_traitsIcESaIcEEESaIS5_EEC1ERKS7_+0x56>
  56:	48 89 c1             	mov    %rax,%rcx
  59:	48 8d 45 d7          	lea    -0x29(%rbp),%rax
  5d:	48 89 c2             	mov    %rax,%rdx
  60:	48 89 ce             	mov    %rcx,%rsi
  63:	48 89 df             	mov    %rbx,%rdi
  66:	e8 00 00 00 00       	callq  6b <_ZNSt6vectorINSt7__cxx1112basic_stringIcSt11char_traitsIcESaIcEEESaIS5_EEC1ERKS7_+0x6b>
  6b:	48 8d 45 d7          	lea    -0x29(%rbp),%rax
  6f:	48 89 c7             	mov    %rax,%rdi
  72:	e8 00 00 00 00       	callq  77 <_ZNSt6vectorINSt7__cxx1112basic_stringIcSt11char_traitsIcESaIcEEESaIS5_EEC1ERKS7_+0x77>
  77:	48 8b 45 c8          	mov    -0x38(%rbp),%rax
  7b:	48 89 c7             	mov    %rax,%rdi
  7e:	e8 00 00 00 00       	callq  83 <_ZNSt6vectorINSt7__cxx1112basic_stringIcSt11char_traitsIcESaIcEEESaIS5_EEC1ERKS7_+0x83>
  83:	49 89 c5             	mov    %rax,%r13
  86:	48 8b 45 c8          	mov    -0x38(%rbp),%rax
  8a:	48 8b 18             	mov    (%rax),%rbx
  8d:	48 8b 45 c0          	mov    -0x40(%rbp),%rax
  91:	48 89 c7             	mov    %rax,%rdi
  94:	e8 00 00 00 00       	callq  99 <_ZNSt6vectorINSt7__cxx1112basic_stringIcSt11char_traitsIcESaIcEEESaIS5_EEC1ERKS7_+0x99>
  99:	49 89 c4             	mov    %rax,%r12
  9c:	48 8b 45 c0          	mov    -0x40(%rbp),%rax
  a0:	48 89 c7             	mov    %rax,%rdi
  a3:	e8 00 00 00 00       	callq  a8 <_ZNSt6vectorINSt7__cxx1112basic_stringIcSt11char_traitsIcESaIcEEESaIS5_EEC1ERKS7_+0xa8>
  a8:	4c 89 e9             	mov    %r13,%rcx
  ab:	48 89 da             	mov    %rbx,%rdx
  ae:	4c 89 e6             	mov    %r12,%rsi
  b1:	48 89 c7             	mov    %rax,%rdi
  b4:	e8 00 00 00 00       	callq  b9 <_ZNSt6vectorINSt7__cxx1112basic_stringIcSt11char_traitsIcESaIcEEESaIS5_EEC1ERKS7_+0xb9>
  b9:	48 8b 55 c8          	mov    -0x38(%rbp),%rdx
  bd:	48 89 42 08          	mov    %rax,0x8(%rdx)
  c1:	90                   	nop
  c2:	48 8b 45 d8          	mov    -0x28(%rbp),%rax
  c6:	64 48 33 04 25 28 00 	xor    %fs:0x28,%rax
  cd:	00 00 
  cf:	74 43                	je     114 <_ZNSt6vectorINSt7__cxx1112basic_stringIcSt11char_traitsIcESaIcEEESaIS5_EEC1ERKS7_+0x114>
  d1:	eb 3c                	jmp    10f <_ZNSt6vectorINSt7__cxx1112basic_stringIcSt11char_traitsIcESaIcEEESaIS5_EEC1ERKS7_+0x10f>
  d3:	f3 0f 1e fa          	endbr64 
  d7:	48 89 c3             	mov    %rax,%rbx
  da:	48 8d 45 d7          	lea    -0x29(%rbp),%rax
  de:	48 89 c7             	mov    %rax,%rdi
  e1:	e8 00 00 00 00       	callq  e6 <_ZNSt6vectorINSt7__cxx1112basic_stringIcSt11char_traitsIcESaIcEEESaIS5_EEC1ERKS7_+0xe6>
  e6:	48 89 d8             	mov    %rbx,%rax
  e9:	48 89 c7             	mov    %rax,%rdi
  ec:	e8 00 00 00 00       	callq  f1 <_ZNSt6vectorINSt7__cxx1112basic_stringIcSt11char_traitsIcESaIcEEESaIS5_EEC1ERKS7_+0xf1>
  f1:	f3 0f 1e fa          	endbr64 
  f5:	48 89 c3             	mov    %rax,%rbx
  f8:	48 8b 45 c8          	mov    -0x38(%rbp),%rax
  fc:	48 89 c7             	mov    %rax,%rdi
  ff:	e8 00 00 00 00       	callq  104 <_ZNSt6vectorINSt7__cxx1112basic_stringIcSt11char_traitsIcESaIcEEESaIS5_EEC1ERKS7_+0x104>
 104:	48 89 d8             	mov    %rbx,%rax
 107:	48 89 c7             	mov    %rax,%rdi
 10a:	e8 00 00 00 00       	callq  10f <_ZNSt6vectorINSt7__cxx1112basic_stringIcSt11char_traitsIcESaIcEEESaIS5_EEC1ERKS7_+0x10f>
 10f:	e8 00 00 00 00       	callq  114 <_ZNSt6vectorINSt7__cxx1112basic_stringIcSt11char_traitsIcESaIcEEESaIS5_EEC1ERKS7_+0x114>
 114:	48 83 c4 28          	add    $0x28,%rsp
 118:	5b                   	pop    %rbx
 119:	41 5c                	pop    %r12
 11b:	41 5d                	pop    %r13
 11d:	5d                   	pop    %rbp
 11e:	c3                   	retq   

Disassembly of section .text._ZNKSt6vectorIS_INSt7__cxx1112basic_stringIcSt11char_traitsIcESaIcEEESaIS5_EESaIS7_EE8max_sizeEv:

0000000000000000 <_ZNKSt6vectorIS_INSt7__cxx1112basic_stringIcSt11char_traitsIcESaIcEEESaIS5_EESaIS7_EE8max_sizeEv>:
   0:	f3 0f 1e fa          	endbr64 
   4:	55                   	push   %rbp
   5:	48 89 e5             	mov    %rsp,%rbp
   8:	48 83 ec 10          	sub    $0x10,%rsp
   c:	48 89 7d f8          	mov    %rdi,-0x8(%rbp)
  10:	48 8b 45 f8          	mov    -0x8(%rbp),%rax
  14:	48 89 c7             	mov    %rax,%rdi
  17:	e8 00 00 00 00       	callq  1c <_ZNKSt6vectorIS_INSt7__cxx1112basic_stringIcSt11char_traitsIcESaIcEEESaIS5_EESaIS7_EE8max_sizeEv+0x1c>
  1c:	48 89 c7             	mov    %rax,%rdi
  1f:	e8 00 00 00 00       	callq  24 <_ZNKSt6vectorIS_INSt7__cxx1112basic_stringIcSt11char_traitsIcESaIcEEESaIS5_EESaIS7_EE8max_sizeEv+0x24>
  24:	c9                   	leaveq 
  25:	c3                   	retq   

Disassembly of section .text._ZNKSt6vectorIS_INSt7__cxx1112basic_stringIcSt11char_traitsIcESaIcEEESaIS5_EESaIS7_EE4sizeEv:

0000000000000000 <_ZNKSt6vectorIS_INSt7__cxx1112basic_stringIcSt11char_traitsIcESaIcEEESaIS5_EESaIS7_EE4sizeEv>:
   0:	f3 0f 1e fa          	endbr64 
   4:	55                   	push   %rbp
   5:	48 89 e5             	mov    %rsp,%rbp
   8:	48 89 7d f8          	mov    %rdi,-0x8(%rbp)
   c:	48 8b 45 f8          	mov    -0x8(%rbp),%rax
  10:	48 8b 50 08          	mov    0x8(%rax),%rdx
  14:	48 8b 45 f8          	mov    -0x8(%rbp),%rax
  18:	48 8b 00             	mov    (%rax),%rax
  1b:	48 29 c2             	sub    %rax,%rdx
  1e:	48 89 d0             	mov    %rdx,%rax
  21:	48 c1 f8 03          	sar    $0x3,%rax
  25:	48 89 c2             	mov    %rax,%rdx
  28:	48 b8 ab aa aa aa aa 	movabs $0xaaaaaaaaaaaaaaab,%rax
  2f:	aa aa aa 
  32:	48 0f af c2          	imul   %rdx,%rax
  36:	5d                   	pop    %rbp
  37:	c3                   	retq   

Disassembly of section .text._ZNSt16allocator_traitsISaISt6vectorINSt7__cxx1112basic_stringIcSt11char_traitsIcESaIcEEESaIS6_EEEE8allocateERS9_m:

0000000000000000 <_ZNSt16allocator_traitsISaISt6vectorINSt7__cxx1112basic_stringIcSt11char_traitsIcESaIcEEESaIS6_EEEE8allocateERS9_m>:
   0:	f3 0f 1e fa          	endbr64 
   4:	55                   	push   %rbp
   5:	48 89 e5             	mov    %rsp,%rbp
   8:	48 83 ec 10          	sub    $0x10,%rsp
   c:	48 89 7d f8          	mov    %rdi,-0x8(%rbp)
  10:	48 89 75 f0          	mov    %rsi,-0x10(%rbp)
  14:	48 8b 4d f0          	mov    -0x10(%rbp),%rcx
  18:	48 8b 45 f8          	mov    -0x8(%rbp),%rax
  1c:	ba 00 00 00 00       	mov    $0x0,%edx
  21:	48 89 ce             	mov    %rcx,%rsi
  24:	48 89 c7             	mov    %rax,%rdi
  27:	e8 00 00 00 00       	callq  2c <_ZNSt16allocator_traitsISaISt6vectorINSt7__cxx1112basic_stringIcSt11char_traitsIcESaIcEEESaIS6_EEEE8allocateERS9_m+0x2c>
  2c:	c9                   	leaveq 
  2d:	c3                   	retq   

Disassembly of section .text._ZNSt6vectorIS_INSt7__cxx1112basic_stringIcSt11char_traitsIcESaIcEEESaIS5_EESaIS7_EE14_S_do_relocateEPS7_SA_SA_RS8_St17integral_constantIbLb1EE:

0000000000000000 <_ZNSt6vectorIS_INSt7__cxx1112basic_stringIcSt11char_traitsIcESaIcEEESaIS5_EESaIS7_EE14_S_do_relocateEPS7_SA_SA_RS8_St17integral_constantIbLb1EE>:
   0:	f3 0f 1e fa          	endbr64 
   4:	55                   	push   %rbp
   5:	48 89 e5             	mov    %rsp,%rbp
   8:	48 83 ec 20          	sub    $0x20,%rsp
   c:	48 89 7d f8          	mov    %rdi,-0x8(%rbp)
  10:	48 89 75 f0          	mov    %rsi,-0x10(%rbp)
  14:	48 89 55 e8          	mov    %rdx,-0x18(%rbp)
  18:	48 89 4d e0          	mov    %rcx,-0x20(%rbp)
  1c:	48 8b 4d e0          	mov    -0x20(%rbp),%rcx
  20:	48 8b 55 e8          	mov    -0x18(%rbp),%rdx
  24:	48 8b 75 f0          	mov    -0x10(%rbp),%rsi
  28:	48 8b 45 f8          	mov    -0x8(%rbp),%rax
  2c:	48 89 c7             	mov    %rax,%rdi
  2f:	e8 00 00 00 00       	callq  34 <_ZNSt6vectorIS_INSt7__cxx1112basic_stringIcSt11char_traitsIcESaIcEEESaIS5_EESaIS7_EE14_S_do_relocateEPS7_SA_SA_RS8_St17integral_constantIbLb1EE+0x34>
  34:	c9                   	leaveq 
  35:	c3                   	retq   

Disassembly of section .text._ZSt32__make_move_if_noexcept_iteratorISt6vectorINSt7__cxx1112basic_stringIcSt11char_traitsIcESaIcEEESaIS6_EESt13move_iteratorIPS8_EET0_PT_:

0000000000000000 <_ZSt32__make_move_if_noexcept_iteratorISt6vectorINSt7__cxx1112basic_stringIcSt11char_traitsIcESaIcEEESaIS6_EESt13move_iteratorIPS8_EET0_PT_>:
   0:	f3 0f 1e fa          	endbr64 
   4:	55                   	push   %rbp
   5:	48 89 e5             	mov    %rsp,%rbp
   8:	48 83 ec 20          	sub    $0x20,%rsp
   c:	48 89 7d e8          	mov    %rdi,-0x18(%rbp)
  10:	64 48 8b 04 25 28 00 	mov    %fs:0x28,%rax
  17:	00 00 
  19:	48 89 45 f8          	mov    %rax,-0x8(%rbp)
  1d:	31 c0                	xor    %eax,%eax
  1f:	48 8b 55 e8          	mov    -0x18(%rbp),%rdx
  23:	48 8d 45 f0          	lea    -0x10(%rbp),%rax
  27:	48 89 d6             	mov    %rdx,%rsi
  2a:	48 89 c7             	mov    %rax,%rdi
  2d:	e8 00 00 00 00       	callq  32 <_ZSt32__make_move_if_noexcept_iteratorISt6vectorINSt7__cxx1112basic_stringIcSt11char_traitsIcESaIcEEESaIS6_EESt13move_iteratorIPS8_EET0_PT_+0x32>
  32:	48 8b 45 f0          	mov    -0x10(%rbp),%rax
  36:	48 8b 4d f8          	mov    -0x8(%rbp),%rcx
  3a:	64 48 33 0c 25 28 00 	xor    %fs:0x28,%rcx
  41:	00 00 
  43:	74 05                	je     4a <_ZSt32__make_move_if_noexcept_iteratorISt6vectorINSt7__cxx1112basic_stringIcSt11char_traitsIcESaIcEEESaIS6_EESt13move_iteratorIPS8_EET0_PT_+0x4a>
  45:	e8 00 00 00 00       	callq  4a <_ZSt32__make_move_if_noexcept_iteratorISt6vectorINSt7__cxx1112basic_stringIcSt11char_traitsIcESaIcEEESaIS6_EESt13move_iteratorIPS8_EET0_PT_+0x4a>
  4a:	c9                   	leaveq 
  4b:	c3                   	retq   

Disassembly of section .text._ZSt22__uninitialized_copy_aISt13move_iteratorIPSt6vectorINSt7__cxx1112basic_stringIcSt11char_traitsIcESaIcEEESaIS7_EEESA_S9_ET0_T_SD_SC_RSaIT1_E:

0000000000000000 <_ZSt22__uninitialized_copy_aISt13move_iteratorIPSt6vectorINSt7__cxx1112basic_stringIcSt11char_traitsIcESaIcEEESaIS7_EEESA_S9_ET0_T_SD_SC_RSaIT1_E>:
   0:	f3 0f 1e fa          	endbr64 
   4:	55                   	push   %rbp
   5:	48 89 e5             	mov    %rsp,%rbp
   8:	48 83 ec 20          	sub    $0x20,%rsp
   c:	48 89 7d f8          	mov    %rdi,-0x8(%rbp)
  10:	48 89 75 f0          	mov    %rsi,-0x10(%rbp)
  14:	48 89 55 e8          	mov    %rdx,-0x18(%rbp)
  18:	48 89 4d e0          	mov    %rcx,-0x20(%rbp)
  1c:	48 8b 55 e8          	mov    -0x18(%rbp),%rdx
  20:	48 8b 4d f0          	mov    -0x10(%rbp),%rcx
  24:	48 8b 45 f8          	mov    -0x8(%rbp),%rax
  28:	48 89 ce             	mov    %rcx,%rsi
  2b:	48 89 c7             	mov    %rax,%rdi
  2e:	e8 00 00 00 00       	callq  33 <_ZSt22__uninitialized_copy_aISt13move_iteratorIPSt6vectorINSt7__cxx1112basic_stringIcSt11char_traitsIcESaIcEEESaIS7_EEESA_S9_ET0_T_SD_SC_RSaIT1_E+0x33>
  33:	c9                   	leaveq 
  34:	c3                   	retq   

Disassembly of section .text._ZN9__gnu_cxx13new_allocatorISt6vectorINSt7__cxx1112basic_stringIcSt11char_traitsIcESaIcEEESaIS7_EEE7destroyIS9_EEvPT_:

0000000000000000 <_ZN9__gnu_cxx13new_allocatorISt6vectorINSt7__cxx1112basic_stringIcSt11char_traitsIcESaIcEEESaIS7_EEE7destroyIS9_EEvPT_>:
   0:	f3 0f 1e fa          	endbr64 
   4:	55                   	push   %rbp
   5:	48 89 e5             	mov    %rsp,%rbp
   8:	48 83 ec 10          	sub    $0x10,%rsp
   c:	48 89 7d f8          	mov    %rdi,-0x8(%rbp)
  10:	48 89 75 f0          	mov    %rsi,-0x10(%rbp)
  14:	48 8b 45 f0          	mov    -0x10(%rbp),%rax
  18:	48 89 c7             	mov    %rax,%rdi
  1b:	e8 00 00 00 00       	callq  20 <_ZN9__gnu_cxx13new_allocatorISt6vectorINSt7__cxx1112basic_stringIcSt11char_traitsIcESaIcEEESaIS7_EEE7destroyIS9_EEvPT_+0x20>
  20:	90                   	nop
  21:	c9                   	leaveq 
  22:	c3                   	retq   

Disassembly of section .text._ZN9__gnu_cxx17__is_null_pointerIcEEbPT_:

0000000000000000 <_ZN9__gnu_cxx17__is_null_pointerIcEEbPT_>:
   0:	f3 0f 1e fa          	endbr64 
   4:	55                   	push   %rbp
   5:	48 89 e5             	mov    %rsp,%rbp
   8:	48 89 7d f8          	mov    %rdi,-0x8(%rbp)
   c:	48 83 7d f8 00       	cmpq   $0x0,-0x8(%rbp)
  11:	0f 94 c0             	sete   %al
  14:	5d                   	pop    %rbp
  15:	c3                   	retq   

Disassembly of section .text._ZSt8distanceIPcENSt15iterator_traitsIT_E15difference_typeES2_S2_:

0000000000000000 <_ZSt8distanceIPcENSt15iterator_traitsIT_E15difference_typeES2_S2_>:
   0:	f3 0f 1e fa          	endbr64 
   4:	55                   	push   %rbp
   5:	48 89 e5             	mov    %rsp,%rbp
   8:	48 83 ec 20          	sub    $0x20,%rsp
   c:	48 89 7d e8          	mov    %rdi,-0x18(%rbp)
  10:	48 89 75 e0          	mov    %rsi,-0x20(%rbp)
  14:	64 48 8b 04 25 28 00 	mov    %fs:0x28,%rax
  1b:	00 00 
  1d:	48 89 45 f8          	mov    %rax,-0x8(%rbp)
  21:	31 c0                	xor    %eax,%eax
  23:	48 8d 45 e8          	lea    -0x18(%rbp),%rax
  27:	48 89 c7             	mov    %rax,%rdi
  2a:	e8 00 00 00 00       	callq  2f <_ZSt8distanceIPcENSt15iterator_traitsIT_E15difference_typeES2_S2_+0x2f>
  2f:	48 8b 45 e8          	mov    -0x18(%rbp),%rax
  33:	48 8b 55 e0          	mov    -0x20(%rbp),%rdx
  37:	48 89 d6             	mov    %rdx,%rsi
  3a:	48 89 c7             	mov    %rax,%rdi
  3d:	e8 00 00 00 00       	callq  42 <_ZSt8distanceIPcENSt15iterator_traitsIT_E15difference_typeES2_S2_+0x42>
  42:	48 8b 4d f8          	mov    -0x8(%rbp),%rcx
  46:	64 48 33 0c 25 28 00 	xor    %fs:0x28,%rcx
  4d:	00 00 
  4f:	74 05                	je     56 <_ZSt8distanceIPcENSt15iterator_traitsIT_E15difference_typeES2_S2_+0x56>
  51:	e8 00 00 00 00       	callq  56 <_ZSt8distanceIPcENSt15iterator_traitsIT_E15difference_typeES2_S2_+0x56>
  56:	c9                   	leaveq 
  57:	c3                   	retq   

Disassembly of section .text._ZNK9__gnu_cxx13new_allocatorIhE8max_sizeEv:

0000000000000000 <_ZNK9__gnu_cxx13new_allocatorIhE8max_sizeEv>:
   0:	f3 0f 1e fa          	endbr64 
   4:	55                   	push   %rbp
   5:	48 89 e5             	mov    %rsp,%rbp
   8:	48 89 7d f8          	mov    %rdi,-0x8(%rbp)
   c:	48 b8 ff ff ff ff ff 	movabs $0x7fffffffffffffff,%rax
  13:	ff ff 7f 
  16:	5d                   	pop    %rbp
  17:	c3                   	retq   

Disassembly of section .text._ZNSt27__uninitialized_default_n_1ILb1EE18__uninit_default_nIPhmEET_S3_T0_:

0000000000000000 <_ZNSt27__uninitialized_default_n_1ILb1EE18__uninit_default_nIPhmEET_S3_T0_>:
   0:	f3 0f 1e fa          	endbr64 
   4:	55                   	push   %rbp
   5:	48 89 e5             	mov    %rsp,%rbp
   8:	48 83 ec 20          	sub    $0x20,%rsp
   c:	48 89 7d e8          	mov    %rdi,-0x18(%rbp)
  10:	48 89 75 e0          	mov    %rsi,-0x20(%rbp)
  14:	64 48 8b 04 25 28 00 	mov    %fs:0x28,%rax
  1b:	00 00 
  1d:	48 89 45 f8          	mov    %rax,-0x8(%rbp)
  21:	31 c0                	xor    %eax,%eax
  23:	c6 45 f7 00          	movb   $0x0,-0x9(%rbp)
  27:	48 8d 55 f7          	lea    -0x9(%rbp),%rdx
  2b:	48 8b 4d e0          	mov    -0x20(%rbp),%rcx
  2f:	48 8b 45 e8          	mov    -0x18(%rbp),%rax
  33:	48 89 ce             	mov    %rcx,%rsi
  36:	48 89 c7             	mov    %rax,%rdi
  39:	e8 00 00 00 00       	callq  3e <_ZNSt27__uninitialized_default_n_1ILb1EE18__uninit_default_nIPhmEET_S3_T0_+0x3e>
  3e:	48 8b 4d f8          	mov    -0x8(%rbp),%rcx
  42:	64 48 33 0c 25 28 00 	xor    %fs:0x28,%rcx
  49:	00 00 
  4b:	74 05                	je     52 <_ZNSt27__uninitialized_default_n_1ILb1EE18__uninit_default_nIPhmEET_S3_T0_+0x52>
  4d:	e8 00 00 00 00       	callq  52 <_ZNSt27__uninitialized_default_n_1ILb1EE18__uninit_default_nIPhmEET_S3_T0_+0x52>
  52:	c9                   	leaveq 
  53:	c3                   	retq   

Disassembly of section .text._ZN9__gnu_cxx13new_allocatorIhE8allocateEmPKv:

0000000000000000 <_ZN9__gnu_cxx13new_allocatorIhE8allocateEmPKv>:
   0:	f3 0f 1e fa          	endbr64 
   4:	55                   	push   %rbp
   5:	48 89 e5             	mov    %rsp,%rbp
   8:	48 83 ec 20          	sub    $0x20,%rsp
   c:	48 89 7d f8          	mov    %rdi,-0x8(%rbp)
  10:	48 89 75 f0          	mov    %rsi,-0x10(%rbp)
  14:	48 89 55 e8          	mov    %rdx,-0x18(%rbp)
  18:	48 8b 45 f8          	mov    -0x8(%rbp),%rax
  1c:	48 89 c7             	mov    %rax,%rdi
  1f:	e8 00 00 00 00       	callq  24 <_ZN9__gnu_cxx13new_allocatorIhE8allocateEmPKv+0x24>
  24:	48 39 45 f0          	cmp    %rax,-0x10(%rbp)
  28:	0f 97 c0             	seta   %al
  2b:	84 c0                	test   %al,%al
  2d:	74 05                	je     34 <_ZN9__gnu_cxx13new_allocatorIhE8allocateEmPKv+0x34>
  2f:	e8 00 00 00 00       	callq  34 <_ZN9__gnu_cxx13new_allocatorIhE8allocateEmPKv+0x34>
  34:	48 8b 45 f0          	mov    -0x10(%rbp),%rax
  38:	48 89 c7             	mov    %rax,%rdi
  3b:	e8 00 00 00 00       	callq  40 <_ZN9__gnu_cxx13new_allocatorIhE8allocateEmPKv+0x40>
  40:	c9                   	leaveq 
  41:	c3                   	retq   

Disassembly of section .text._ZSt12__relocate_aIPhS0_SaIhEET0_T_S3_S2_RT1_:

0000000000000000 <_ZSt12__relocate_aIPhS0_SaIhEET0_T_S3_S2_RT1_>:
   0:	f3 0f 1e fa          	endbr64 
   4:	55                   	push   %rbp
   5:	48 89 e5             	mov    %rsp,%rbp
   8:	41 54                	push   %r12
   a:	53                   	push   %rbx
   b:	48 83 ec 20          	sub    $0x20,%rsp
   f:	48 89 7d e8          	mov    %rdi,-0x18(%rbp)
  13:	48 89 75 e0          	mov    %rsi,-0x20(%rbp)
  17:	48 89 55 d8          	mov    %rdx,-0x28(%rbp)
  1b:	48 89 4d d0          	mov    %rcx,-0x30(%rbp)
  1f:	48 8b 45 d8          	mov    -0x28(%rbp),%rax
  23:	48 89 c7             	mov    %rax,%rdi
  26:	e8 00 00 00 00       	callq  2b <_ZSt12__relocate_aIPhS0_SaIhEET0_T_S3_S2_RT1_+0x2b>
  2b:	49 89 c4             	mov    %rax,%r12
  2e:	48 8b 45 e0          	mov    -0x20(%rbp),%rax
  32:	48 89 c7             	mov    %rax,%rdi
  35:	e8 00 00 00 00       	callq  3a <_ZSt12__relocate_aIPhS0_SaIhEET0_T_S3_S2_RT1_+0x3a>
  3a:	48 89 c3             	mov    %rax,%rbx
  3d:	48 8b 45 e8          	mov    -0x18(%rbp),%rax
  41:	48 89 c7             	mov    %rax,%rdi
  44:	e8 00 00 00 00       	callq  49 <_ZSt12__relocate_aIPhS0_SaIhEET0_T_S3_S2_RT1_+0x49>
  49:	48 89 c7             	mov    %rax,%rdi
  4c:	48 8b 45 d0          	mov    -0x30(%rbp),%rax
  50:	48 89 c1             	mov    %rax,%rcx
  53:	4c 89 e2             	mov    %r12,%rdx
  56:	48 89 de             	mov    %rbx,%rsi
  59:	e8 00 00 00 00       	callq  5e <_ZSt12__relocate_aIPhS0_SaIhEET0_T_S3_S2_RT1_+0x5e>
  5e:	48 83 c4 20          	add    $0x20,%rsp
  62:	5b                   	pop    %rbx
  63:	41 5c                	pop    %r12
  65:	5d                   	pop    %rbp
  66:	c3                   	retq   

Disassembly of section .text._ZNSt13move_iteratorIPhEC2ES0_:

0000000000000000 <_ZNSt13move_iteratorIPhEC1ES0_>:
   0:	f3 0f 1e fa          	endbr64 
   4:	55                   	push   %rbp
   5:	48 89 e5             	mov    %rsp,%rbp
   8:	48 89 7d f8          	mov    %rdi,-0x8(%rbp)
   c:	48 89 75 f0          	mov    %rsi,-0x10(%rbp)
  10:	48 8b 45 f8          	mov    -0x8(%rbp),%rax
  14:	48 8b 55 f0          	mov    -0x10(%rbp),%rdx
  18:	48 89 10             	mov    %rdx,(%rax)
  1b:	90                   	nop
  1c:	5d                   	pop    %rbp
  1d:	c3                   	retq   

Disassembly of section .text._ZSt18uninitialized_copyISt13move_iteratorIPhES1_ET0_T_S4_S3_:

0000000000000000 <_ZSt18uninitialized_copyISt13move_iteratorIPhES1_ET0_T_S4_S3_>:
   0:	f3 0f 1e fa          	endbr64 
   4:	55                   	push   %rbp
   5:	48 89 e5             	mov    %rsp,%rbp
   8:	48 83 ec 30          	sub    $0x30,%rsp
   c:	48 89 7d e8          	mov    %rdi,-0x18(%rbp)
  10:	48 89 75 e0          	mov    %rsi,-0x20(%rbp)
  14:	48 89 55 d8          	mov    %rdx,-0x28(%rbp)
  18:	c6 45 ff 01          	movb   $0x1,-0x1(%rbp)
  1c:	48 8b 55 d8          	mov    -0x28(%rbp),%rdx
  20:	48 8b 4d e0          	mov    -0x20(%rbp),%rcx
  24:	48 8b 45 e8          	mov    -0x18(%rbp),%rax
  28:	48 89 ce             	mov    %rcx,%rsi
  2b:	48 89 c7             	mov    %rax,%rdi
  2e:	e8 00 00 00 00       	callq  33 <_ZSt18uninitialized_copyISt13move_iteratorIPhES1_ET0_T_S4_S3_+0x33>
  33:	c9                   	leaveq 
  34:	c3                   	retq   

Disassembly of section .text._ZNK9__gnu_cxx17__normal_iteratorIPhSt6vectorIhSaIhEEEdeEv:

0000000000000000 <_ZNK9__gnu_cxx17__normal_iteratorIPhSt6vectorIhSaIhEEEdeEv>:
   0:	f3 0f 1e fa          	endbr64 
   4:	55                   	push   %rbp
   5:	48 89 e5             	mov    %rsp,%rbp
   8:	48 89 7d f8          	mov    %rdi,-0x8(%rbp)
   c:	48 8b 45 f8          	mov    -0x8(%rbp),%rax
  10:	48 8b 00             	mov    (%rax),%rax
  13:	5d                   	pop    %rbp
  14:	c3                   	retq   

Disassembly of section .text._ZNSt7__cxx1112basic_stringIcSt11char_traitsIcESaIcEE12_M_constructIN9__gnu_cxx17__normal_iteratorIPhSt6vectorIhSaIhEEEEEEvT_SD_:

0000000000000000 <_ZNSt7__cxx1112basic_stringIcSt11char_traitsIcESaIcEE12_M_constructIN9__gnu_cxx17__normal_iteratorIPhSt6vectorIhSaIhEEEEEEvT_SD_>:
   0:	f3 0f 1e fa          	endbr64 
   4:	55                   	push   %rbp
   5:	48 89 e5             	mov    %rsp,%rbp
   8:	48 83 ec 30          	sub    $0x30,%rsp
   c:	48 89 7d e8          	mov    %rdi,-0x18(%rbp)
  10:	48 89 75 e0          	mov    %rsi,-0x20(%rbp)
  14:	48 89 55 d8          	mov    %rdx,-0x28(%rbp)
  18:	64 48 8b 04 25 28 00 	mov    %fs:0x28,%rax
  1f:	00 00 
  21:	48 89 45 f8          	mov    %rax,-0x8(%rbp)
  25:	31 c0                	xor    %eax,%eax
  27:	48 8b 55 d8          	mov    -0x28(%rbp),%rdx
  2b:	48 8b 4d e0          	mov    -0x20(%rbp),%rcx
  2f:	48 8b 45 e8          	mov    -0x18(%rbp),%rax
  33:	48 89 ce             	mov    %rcx,%rsi
  36:	48 89 c7             	mov    %rax,%rdi
  39:	e8 00 00 00 00       	callq  3e <_ZNSt7__cxx1112basic_stringIcSt11char_traitsIcESaIcEE12_M_constructIN9__gnu_cxx17__normal_iteratorIPhSt6vectorIhSaIhEEEEEEvT_SD_+0x3e>
  3e:	90                   	nop
  3f:	48 8b 45 f8          	mov    -0x8(%rbp),%rax
  43:	64 48 33 04 25 28 00 	xor    %fs:0x28,%rax
  4a:	00 00 
  4c:	74 05                	je     53 <_ZNSt7__cxx1112basic_stringIcSt11char_traitsIcESaIcEE12_M_constructIN9__gnu_cxx17__normal_iteratorIPhSt6vectorIhSaIhEEEEEEvT_SD_+0x53>
  4e:	e8 00 00 00 00       	callq  53 <_ZNSt7__cxx1112basic_stringIcSt11char_traitsIcESaIcEE12_M_constructIN9__gnu_cxx17__normal_iteratorIPhSt6vectorIhSaIhEEEEEEvT_SD_+0x53>
  53:	c9                   	leaveq 
  54:	c3                   	retq   

Disassembly of section .text._ZNK9__gnu_cxx17__normal_iteratorIPKcNSt7__cxx1112basic_stringIcSt11char_traitsIcESaIcEEEE4baseEv:

0000000000000000 <_ZNK9__gnu_cxx17__normal_iteratorIPKcNSt7__cxx1112basic_stringIcSt11char_traitsIcESaIcEEEE4baseEv>:
   0:	f3 0f 1e fa          	endbr64 
   4:	55                   	push   %rbp
   5:	48 89 e5             	mov    %rsp,%rbp
   8:	48 89 7d f8          	mov    %rdi,-0x8(%rbp)
   c:	48 8b 45 f8          	mov    -0x8(%rbp),%rax
  10:	5d                   	pop    %rbp
  11:	c3                   	retq   

Disassembly of section .text._ZSt12__niter_baseIPhSt6vectorIhSaIhEEET_N9__gnu_cxx17__normal_iteratorIS4_T0_EE:

0000000000000000 <_ZSt12__niter_baseIPhSt6vectorIhSaIhEEET_N9__gnu_cxx17__normal_iteratorIS4_T0_EE>:
   0:	f3 0f 1e fa          	endbr64 
   4:	55                   	push   %rbp
   5:	48 89 e5             	mov    %rsp,%rbp
   8:	48 83 ec 10          	sub    $0x10,%rsp
   c:	48 89 7d f8          	mov    %rdi,-0x8(%rbp)
  10:	48 8d 45 f8          	lea    -0x8(%rbp),%rax
  14:	48 89 c7             	mov    %rax,%rdi
  17:	e8 00 00 00 00       	callq  1c <_ZSt12__niter_baseIPhSt6vectorIhSaIhEEET_N9__gnu_cxx17__normal_iteratorIS4_T0_EE+0x1c>
  1c:	48 8b 00             	mov    (%rax),%rax
  1f:	c9                   	leaveq 
  20:	c3                   	retq   

Disassembly of section .text._ZSt13__copy_move_aILb1EPhS0_ET1_T0_S2_S1_:

0000000000000000 <_ZSt13__copy_move_aILb1EPhS0_ET1_T0_S2_S1_>:
   0:	f3 0f 1e fa          	endbr64 
   4:	55                   	push   %rbp
   5:	48 89 e5             	mov    %rsp,%rbp
   8:	48 83 ec 30          	sub    $0x30,%rsp
   c:	48 89 7d e8          	mov    %rdi,-0x18(%rbp)
  10:	48 89 75 e0          	mov    %rsi,-0x20(%rbp)
  14:	48 89 55 d8          	mov    %rdx,-0x28(%rbp)
  18:	c6 45 ff 01          	movb   $0x1,-0x1(%rbp)
  1c:	48 8b 55 d8          	mov    -0x28(%rbp),%rdx
  20:	48 8b 4d e0          	mov    -0x20(%rbp),%rcx
  24:	48 8b 45 e8          	mov    -0x18(%rbp),%rax
  28:	48 89 ce             	mov    %rcx,%rsi
  2b:	48 89 c7             	mov    %rax,%rdi
  2e:	e8 00 00 00 00       	callq  33 <_ZSt13__copy_move_aILb1EPhS0_ET1_T0_S2_S1_+0x33>
  33:	c9                   	leaveq 
  34:	c3                   	retq   

Disassembly of section .text._ZSt12__niter_wrapIN9__gnu_cxx17__normal_iteratorIPhSt6vectorIhSaIhEEEES2_ET_S7_T0_:

0000000000000000 <_ZSt12__niter_wrapIN9__gnu_cxx17__normal_iteratorIPhSt6vectorIhSaIhEEEES2_ET_S7_T0_>:
   0:	f3 0f 1e fa          	endbr64 
   4:	55                   	push   %rbp
   5:	48 89 e5             	mov    %rsp,%rbp
   8:	48 83 ec 10          	sub    $0x10,%rsp
   c:	48 89 7d f8          	mov    %rdi,-0x8(%rbp)
  10:	48 89 75 f0          	mov    %rsi,-0x10(%rbp)
  14:	48 8b 45 f8          	mov    -0x8(%rbp),%rax
  18:	48 89 c7             	mov    %rax,%rdi
  1b:	e8 00 00 00 00       	callq  20 <_ZSt12__niter_wrapIN9__gnu_cxx17__normal_iteratorIPhSt6vectorIhSaIhEEEES2_ET_S7_T0_+0x20>
  20:	48 8b 55 f0          	mov    -0x10(%rbp),%rdx
  24:	48 29 c2             	sub    %rax,%rdx
  27:	48 8d 45 f8          	lea    -0x8(%rbp),%rax
  2b:	48 89 d6             	mov    %rdx,%rsi
  2e:	48 89 c7             	mov    %rax,%rdi
  31:	e8 00 00 00 00       	callq  36 <_ZSt12__niter_wrapIN9__gnu_cxx17__normal_iteratorIPhSt6vectorIhSaIhEEEES2_ET_S7_T0_+0x36>
  36:	c9                   	leaveq 
  37:	c3                   	retq   

Disassembly of section .text._ZSt10__distanceIN9__gnu_cxx17__normal_iteratorIPhSt6vectorIhSaIhEEEEENSt15iterator_traitsIT_E15difference_typeES8_S8_St26random_access_iterator_tag:

0000000000000000 <_ZSt10__distanceIN9__gnu_cxx17__normal_iteratorIPhSt6vectorIhSaIhEEEEENSt15iterator_traitsIT_E15difference_typeES8_S8_St26random_access_iterator_tag>:
   0:	f3 0f 1e fa          	endbr64 
   4:	55                   	push   %rbp
   5:	48 89 e5             	mov    %rsp,%rbp
   8:	48 83 ec 10          	sub    $0x10,%rsp
   c:	48 89 7d f8          	mov    %rdi,-0x8(%rbp)
  10:	48 89 75 f0          	mov    %rsi,-0x10(%rbp)
  14:	48 8d 55 f8          	lea    -0x8(%rbp),%rdx
  18:	48 8d 45 f0          	lea    -0x10(%rbp),%rax
  1c:	48 89 d6             	mov    %rdx,%rsi
  1f:	48 89 c7             	mov    %rax,%rdi
  22:	e8 00 00 00 00       	callq  27 <_ZSt10__distanceIN9__gnu_cxx17__normal_iteratorIPhSt6vectorIhSaIhEEEEENSt15iterator_traitsIT_E15difference_typeES8_S8_St26random_access_iterator_tag+0x27>
  27:	c9                   	leaveq 
  28:	c3                   	retq   

Disassembly of section .text._ZSt18make_move_iteratorIPhESt13move_iteratorIT_ES2_:

0000000000000000 <_ZSt18make_move_iteratorIPhESt13move_iteratorIT_ES2_>:
   0:	f3 0f 1e fa          	endbr64 
   4:	55                   	push   %rbp
   5:	48 89 e5             	mov    %rsp,%rbp
   8:	48 83 ec 20          	sub    $0x20,%rsp
   c:	48 89 7d e8          	mov    %rdi,-0x18(%rbp)
  10:	64 48 8b 04 25 28 00 	mov    %fs:0x28,%rax
  17:	00 00 
  19:	48 89 45 f8          	mov    %rax,-0x8(%rbp)
  1d:	31 c0                	xor    %eax,%eax
  1f:	48 8b 55 e8          	mov    -0x18(%rbp),%rdx
  23:	48 8d 45 f0          	lea    -0x10(%rbp),%rax
  27:	48 89 d6             	mov    %rdx,%rsi
  2a:	48 89 c7             	mov    %rax,%rdi
  2d:	e8 00 00 00 00       	callq  32 <_ZSt18make_move_iteratorIPhESt13move_iteratorIT_ES2_+0x32>
  32:	48 8b 45 f0          	mov    -0x10(%rbp),%rax
  36:	48 8b 4d f8          	mov    -0x8(%rbp),%rcx
  3a:	64 48 33 0c 25 28 00 	xor    %fs:0x28,%rcx
  41:	00 00 
  43:	74 05                	je     4a <_ZSt18make_move_iteratorIPhESt13move_iteratorIT_ES2_+0x4a>
  45:	e8 00 00 00 00       	callq  4a <_ZSt18make_move_iteratorIPhESt13move_iteratorIT_ES2_+0x4a>
  4a:	c9                   	leaveq 
  4b:	c3                   	retq   

Disassembly of section .text._ZSt12__miter_baseIPhET_S1_:

0000000000000000 <_ZSt12__miter_baseIPhET_S1_>:
   0:	f3 0f 1e fa          	endbr64 
   4:	55                   	push   %rbp
   5:	48 89 e5             	mov    %rsp,%rbp
   8:	48 89 7d f8          	mov    %rdi,-0x8(%rbp)
   c:	48 8b 45 f8          	mov    -0x8(%rbp),%rax
  10:	5d                   	pop    %rbp
  11:	c3                   	retq   

Disassembly of section .text._ZSt23__copy_move_backward_a2ILb1EPhS0_ET1_T0_S2_S1_:

0000000000000000 <_ZSt23__copy_move_backward_a2ILb1EPhS0_ET1_T0_S2_S1_>:
   0:	f3 0f 1e fa          	endbr64 
   4:	55                   	push   %rbp
   5:	48 89 e5             	mov    %rsp,%rbp
   8:	41 54                	push   %r12
   a:	53                   	push   %rbx
   b:	48 83 ec 20          	sub    $0x20,%rsp
   f:	48 89 7d e8          	mov    %rdi,-0x18(%rbp)
  13:	48 89 75 e0          	mov    %rsi,-0x20(%rbp)
  17:	48 89 55 d8          	mov    %rdx,-0x28(%rbp)
  1b:	48 8b 45 d8          	mov    -0x28(%rbp),%rax
  1f:	48 89 c7             	mov    %rax,%rdi
  22:	e8 00 00 00 00       	callq  27 <_ZSt23__copy_move_backward_a2ILb1EPhS0_ET1_T0_S2_S1_+0x27>
  27:	49 89 c4             	mov    %rax,%r12
  2a:	48 8b 45 e0          	mov    -0x20(%rbp),%rax
  2e:	48 89 c7             	mov    %rax,%rdi
  31:	e8 00 00 00 00       	callq  36 <_ZSt23__copy_move_backward_a2ILb1EPhS0_ET1_T0_S2_S1_+0x36>
  36:	48 89 c3             	mov    %rax,%rbx
  39:	48 8b 45 e8          	mov    -0x18(%rbp),%rax
  3d:	48 89 c7             	mov    %rax,%rdi
  40:	e8 00 00 00 00       	callq  45 <_ZSt23__copy_move_backward_a2ILb1EPhS0_ET1_T0_S2_S1_+0x45>
  45:	4c 89 e2             	mov    %r12,%rdx
  48:	48 89 de             	mov    %rbx,%rsi
  4b:	48 89 c7             	mov    %rax,%rdi
  4e:	e8 00 00 00 00       	callq  53 <_ZSt23__copy_move_backward_a2ILb1EPhS0_ET1_T0_S2_S1_+0x53>
  53:	48 89 c2             	mov    %rax,%rdx
  56:	48 8d 45 d8          	lea    -0x28(%rbp),%rax
  5a:	48 89 d6             	mov    %rdx,%rsi
  5d:	48 89 c7             	mov    %rax,%rdi
  60:	e8 00 00 00 00       	callq  65 <_ZSt23__copy_move_backward_a2ILb1EPhS0_ET1_T0_S2_S1_+0x65>
  65:	48 83 c4 20          	add    $0x20,%rsp
  69:	5b                   	pop    %rbx
  6a:	41 5c                	pop    %r12
  6c:	5d                   	pop    %rbp
  6d:	c3                   	retq   

Disassembly of section .text._ZSt14__copy_move_a2ILb0EN9__gnu_cxx17__normal_iteratorIPhSt6vectorIhSaIhEEEES6_ET1_T0_S8_S7_:

0000000000000000 <_ZSt14__copy_move_a2ILb0EN9__gnu_cxx17__normal_iteratorIPhSt6vectorIhSaIhEEEES6_ET1_T0_S8_S7_>:
   0:	f3 0f 1e fa          	endbr64 
   4:	55                   	push   %rbp
   5:	48 89 e5             	mov    %rsp,%rbp
   8:	41 54                	push   %r12
   a:	53                   	push   %rbx
   b:	48 83 ec 20          	sub    $0x20,%rsp
   f:	48 89 7d e8          	mov    %rdi,-0x18(%rbp)
  13:	48 89 75 e0          	mov    %rsi,-0x20(%rbp)
  17:	48 89 55 d8          	mov    %rdx,-0x28(%rbp)
  1b:	48 8b 45 d8          	mov    -0x28(%rbp),%rax
  1f:	48 89 c7             	mov    %rax,%rdi
  22:	e8 00 00 00 00       	callq  27 <_ZSt14__copy_move_a2ILb0EN9__gnu_cxx17__normal_iteratorIPhSt6vectorIhSaIhEEEES6_ET1_T0_S8_S7_+0x27>
  27:	49 89 c4             	mov    %rax,%r12
  2a:	48 8b 45 e0          	mov    -0x20(%rbp),%rax
  2e:	48 89 c7             	mov    %rax,%rdi
  31:	e8 00 00 00 00       	callq  36 <_ZSt14__copy_move_a2ILb0EN9__gnu_cxx17__normal_iteratorIPhSt6vectorIhSaIhEEEES6_ET1_T0_S8_S7_+0x36>
  36:	48 89 c3             	mov    %rax,%rbx
  39:	48 8b 45 e8          	mov    -0x18(%rbp),%rax
  3d:	48 89 c7             	mov    %rax,%rdi
  40:	e8 00 00 00 00       	callq  45 <_ZSt14__copy_move_a2ILb0EN9__gnu_cxx17__normal_iteratorIPhSt6vectorIhSaIhEEEES6_ET1_T0_S8_S7_+0x45>
  45:	4c 89 e2             	mov    %r12,%rdx
  48:	48 89 de             	mov    %rbx,%rsi
  4b:	48 89 c7             	mov    %rax,%rdi
  4e:	e8 00 00 00 00       	callq  53 <_ZSt14__copy_move_a2ILb0EN9__gnu_cxx17__normal_iteratorIPhSt6vectorIhSaIhEEEES6_ET1_T0_S8_S7_+0x53>
  53:	48 89 c2             	mov    %rax,%rdx
  56:	48 8b 45 d8          	mov    -0x28(%rbp),%rax
  5a:	48 89 d6             	mov    %rdx,%rsi
  5d:	48 89 c7             	mov    %rax,%rdi
  60:	e8 00 00 00 00       	callq  65 <_ZSt14__copy_move_a2ILb0EN9__gnu_cxx17__normal_iteratorIPhSt6vectorIhSaIhEEEES6_ET1_T0_S8_S7_+0x65>
  65:	48 83 c4 20          	add    $0x20,%rsp
  69:	5b                   	pop    %rbx
  6a:	41 5c                	pop    %r12
  6c:	5d                   	pop    %rbp
  6d:	c3                   	retq   

Disassembly of section .text._ZSt9__advanceIN9__gnu_cxx17__normal_iteratorIPhSt6vectorIhSaIhEEEElEvRT_T0_St26random_access_iterator_tag:

0000000000000000 <_ZSt9__advanceIN9__gnu_cxx17__normal_iteratorIPhSt6vectorIhSaIhEEEElEvRT_T0_St26random_access_iterator_tag>:
   0:	f3 0f 1e fa          	endbr64 
   4:	55                   	push   %rbp
   5:	48 89 e5             	mov    %rsp,%rbp
   8:	48 83 ec 10          	sub    $0x10,%rsp
   c:	48 89 7d f8          	mov    %rdi,-0x8(%rbp)
  10:	48 89 75 f0          	mov    %rsi,-0x10(%rbp)
  14:	48 8b 55 f0          	mov    -0x10(%rbp),%rdx
  18:	48 8b 45 f8          	mov    -0x8(%rbp),%rax
  1c:	48 89 d6             	mov    %rdx,%rsi
  1f:	48 89 c7             	mov    %rax,%rdi
  22:	e8 00 00 00 00       	callq  27 <_ZSt9__advanceIN9__gnu_cxx17__normal_iteratorIPhSt6vectorIhSaIhEEEElEvRT_T0_St26random_access_iterator_tag+0x27>
  27:	90                   	nop
  28:	c9                   	leaveq 
  29:	c3                   	retq   

Disassembly of section .text._ZSt18uninitialized_copyIN9__gnu_cxx17__normal_iteratorIPhSt6vectorIhSaIhEEEES2_ET0_T_S8_S7_:

0000000000000000 <_ZSt18uninitialized_copyIN9__gnu_cxx17__normal_iteratorIPhSt6vectorIhSaIhEEEES2_ET0_T_S8_S7_>:
   0:	f3 0f 1e fa          	endbr64 
   4:	55                   	push   %rbp
   5:	48 89 e5             	mov    %rsp,%rbp
   8:	48 83 ec 30          	sub    $0x30,%rsp
   c:	48 89 7d e8          	mov    %rdi,-0x18(%rbp)
  10:	48 89 75 e0          	mov    %rsi,-0x20(%rbp)
  14:	48 89 55 d8          	mov    %rdx,-0x28(%rbp)
  18:	c6 45 ff 01          	movb   $0x1,-0x1(%rbp)
  1c:	48 8b 55 d8          	mov    -0x28(%rbp),%rdx
  20:	48 8b 4d e0          	mov    -0x20(%rbp),%rcx
  24:	48 8b 45 e8          	mov    -0x18(%rbp),%rax
  28:	48 89 ce             	mov    %rcx,%rsi
  2b:	48 89 c7             	mov    %rax,%rdi
  2e:	e8 00 00 00 00       	callq  33 <_ZSt18uninitialized_copyIN9__gnu_cxx17__normal_iteratorIPhSt6vectorIhSaIhEEEES2_ET0_T_S8_S7_+0x33>
  33:	c9                   	leaveq 
  34:	c3                   	retq   

Disassembly of section .text._ZSt11__addressofISt6vectorINSt7__cxx1112basic_stringIcSt11char_traitsIcESaIcEEESaIS6_EEEPT_RS9_:

0000000000000000 <_ZSt11__addressofISt6vectorINSt7__cxx1112basic_stringIcSt11char_traitsIcESaIcEEESaIS6_EEEPT_RS9_>:
   0:	f3 0f 1e fa          	endbr64 
   4:	55                   	push   %rbp
   5:	48 89 e5             	mov    %rsp,%rbp
   8:	48 89 7d f8          	mov    %rdi,-0x8(%rbp)
   c:	48 8b 45 f8          	mov    -0x8(%rbp),%rax
  10:	5d                   	pop    %rbp
  11:	c3                   	retq   

Disassembly of section .text._ZSt8_DestroyISt6vectorINSt7__cxx1112basic_stringIcSt11char_traitsIcESaIcEEESaIS6_EEEvPT_:

0000000000000000 <_ZSt8_DestroyISt6vectorINSt7__cxx1112basic_stringIcSt11char_traitsIcESaIcEEESaIS6_EEEvPT_>:
   0:	f3 0f 1e fa          	endbr64 
   4:	55                   	push   %rbp
   5:	48 89 e5             	mov    %rsp,%rbp
   8:	48 83 ec 10          	sub    $0x10,%rsp
   c:	48 89 7d f8          	mov    %rdi,-0x8(%rbp)
  10:	48 8b 45 f8          	mov    -0x8(%rbp),%rax
  14:	48 89 c7             	mov    %rax,%rdi
  17:	e8 00 00 00 00       	callq  1c <_ZSt8_DestroyISt6vectorINSt7__cxx1112basic_stringIcSt11char_traitsIcESaIcEEESaIS6_EEEvPT_+0x1c>
  1c:	90                   	nop
  1d:	c9                   	leaveq 
  1e:	c3                   	retq   

Disassembly of section .text._ZSt11__addressofINSt7__cxx1112basic_stringIcSt11char_traitsIcESaIcEEEEPT_RS6_:

0000000000000000 <_ZSt11__addressofINSt7__cxx1112basic_stringIcSt11char_traitsIcESaIcEEEEPT_RS6_>:
   0:	f3 0f 1e fa          	endbr64 
   4:	55                   	push   %rbp
   5:	48 89 e5             	mov    %rsp,%rbp
   8:	48 89 7d f8          	mov    %rdi,-0x8(%rbp)
   c:	48 8b 45 f8          	mov    -0x8(%rbp),%rax
  10:	5d                   	pop    %rbp
  11:	c3                   	retq   

Disassembly of section .text._ZSt8_DestroyINSt7__cxx1112basic_stringIcSt11char_traitsIcESaIcEEEEvPT_:

0000000000000000 <_ZSt8_DestroyINSt7__cxx1112basic_stringIcSt11char_traitsIcESaIcEEEEvPT_>:
   0:	f3 0f 1e fa          	endbr64 
   4:	55                   	push   %rbp
   5:	48 89 e5             	mov    %rsp,%rbp
   8:	48 83 ec 10          	sub    $0x10,%rsp
   c:	48 89 7d f8          	mov    %rdi,-0x8(%rbp)
  10:	48 8b 45 f8          	mov    -0x8(%rbp),%rax
  14:	48 89 c7             	mov    %rax,%rdi
  17:	e8 00 00 00 00       	callq  1c <_ZSt8_DestroyINSt7__cxx1112basic_stringIcSt11char_traitsIcESaIcEEEEvPT_+0x1c>
  1c:	90                   	nop
  1d:	c9                   	leaveq 
  1e:	c3                   	retq   

Disassembly of section .text._ZNSt6vectorINSt7__cxx1112basic_stringIcSt11char_traitsIcESaIcEEESaIS5_EE11_S_max_sizeERKS6_:

0000000000000000 <_ZNSt6vectorINSt7__cxx1112basic_stringIcSt11char_traitsIcESaIcEEESaIS5_EE11_S_max_sizeERKS6_>:
   0:	f3 0f 1e fa          	endbr64 
   4:	55                   	push   %rbp
   5:	48 89 e5             	mov    %rsp,%rbp
   8:	48 83 ec 30          	sub    $0x30,%rsp
   c:	48 89 7d d8          	mov    %rdi,-0x28(%rbp)
  10:	64 48 8b 04 25 28 00 	mov    %fs:0x28,%rax
  17:	00 00 
  19:	48 89 45 f8          	mov    %rax,-0x8(%rbp)
  1d:	31 c0                	xor    %eax,%eax
  1f:	48 b8 ff ff ff ff ff 	movabs $0x3ffffffffffffff,%rax
  26:	ff ff 03 
  29:	48 89 45 e8          	mov    %rax,-0x18(%rbp)
  2d:	48 8b 45 d8          	mov    -0x28(%rbp),%rax
  31:	48 89 c7             	mov    %rax,%rdi
  34:	e8 00 00 00 00       	callq  39 <_ZNSt6vectorINSt7__cxx1112basic_stringIcSt11char_traitsIcESaIcEEESaIS5_EE11_S_max_sizeERKS6_+0x39>
  39:	48 89 45 f0          	mov    %rax,-0x10(%rbp)
  3d:	48 8d 55 f0          	lea    -0x10(%rbp),%rdx
  41:	48 8d 45 e8          	lea    -0x18(%rbp),%rax
  45:	48 89 d6             	mov    %rdx,%rsi
  48:	48 89 c7             	mov    %rax,%rdi
  4b:	e8 00 00 00 00       	callq  50 <_ZNSt6vectorINSt7__cxx1112basic_stringIcSt11char_traitsIcESaIcEEESaIS5_EE11_S_max_sizeERKS6_+0x50>
  50:	48 8b 00             	mov    (%rax),%rax
  53:	48 8b 4d f8          	mov    -0x8(%rbp),%rcx
  57:	64 48 33 0c 25 28 00 	xor    %fs:0x28,%rcx
  5e:	00 00 
  60:	74 05                	je     67 <_ZNSt6vectorINSt7__cxx1112basic_stringIcSt11char_traitsIcESaIcEEESaIS5_EE11_S_max_sizeERKS6_+0x67>
  62:	e8 00 00 00 00       	callq  67 <_ZNSt6vectorINSt7__cxx1112basic_stringIcSt11char_traitsIcESaIcEEESaIS5_EE11_S_max_sizeERKS6_+0x67>
  67:	c9                   	leaveq 
  68:	c3                   	retq   

Disassembly of section .text._ZNKSt12_Vector_baseINSt7__cxx1112basic_stringIcSt11char_traitsIcESaIcEEESaIS5_EE19_M_get_Tp_allocatorEv:

0000000000000000 <_ZNKSt12_Vector_baseINSt7__cxx1112basic_stringIcSt11char_traitsIcESaIcEEESaIS5_EE19_M_get_Tp_allocatorEv>:
   0:	f3 0f 1e fa          	endbr64 
   4:	55                   	push   %rbp
   5:	48 89 e5             	mov    %rsp,%rbp
   8:	48 89 7d f8          	mov    %rdi,-0x8(%rbp)
   c:	48 8b 45 f8          	mov    -0x8(%rbp),%rax
  10:	5d                   	pop    %rbp
  11:	c3                   	retq   

Disassembly of section .text._ZN9__gnu_cxx13new_allocatorINSt7__cxx1112basic_stringIcSt11char_traitsIcESaIcEEEE8allocateEmPKv:

0000000000000000 <_ZN9__gnu_cxx13new_allocatorINSt7__cxx1112basic_stringIcSt11char_traitsIcESaIcEEEE8allocateEmPKv>:
   0:	f3 0f 1e fa          	endbr64 
   4:	55                   	push   %rbp
   5:	48 89 e5             	mov    %rsp,%rbp
   8:	48 83 ec 20          	sub    $0x20,%rsp
   c:	48 89 7d f8          	mov    %rdi,-0x8(%rbp)
  10:	48 89 75 f0          	mov    %rsi,-0x10(%rbp)
  14:	48 89 55 e8          	mov    %rdx,-0x18(%rbp)
  18:	48 8b 45 f8          	mov    -0x8(%rbp),%rax
  1c:	48 89 c7             	mov    %rax,%rdi
  1f:	e8 00 00 00 00       	callq  24 <_ZN9__gnu_cxx13new_allocatorINSt7__cxx1112basic_stringIcSt11char_traitsIcESaIcEEEE8allocateEmPKv+0x24>
  24:	48 39 45 f0          	cmp    %rax,-0x10(%rbp)
  28:	0f 97 c0             	seta   %al
  2b:	84 c0                	test   %al,%al
  2d:	74 05                	je     34 <_ZN9__gnu_cxx13new_allocatorINSt7__cxx1112basic_stringIcSt11char_traitsIcESaIcEEEE8allocateEmPKv+0x34>
  2f:	e8 00 00 00 00       	callq  34 <_ZN9__gnu_cxx13new_allocatorINSt7__cxx1112basic_stringIcSt11char_traitsIcESaIcEEEE8allocateEmPKv+0x34>
  34:	48 8b 45 f0          	mov    -0x10(%rbp),%rax
  38:	48 c1 e0 05          	shl    $0x5,%rax
  3c:	48 89 c7             	mov    %rax,%rdi
  3f:	e8 00 00 00 00       	callq  44 <_ZN9__gnu_cxx13new_allocatorINSt7__cxx1112basic_stringIcSt11char_traitsIcESaIcEEEE8allocateEmPKv+0x44>
  44:	c9                   	leaveq 
  45:	c3                   	retq   

Disassembly of section .text._ZSt12__relocate_aIPNSt7__cxx1112basic_stringIcSt11char_traitsIcESaIcEEES6_SaIS5_EET0_T_S9_S8_RT1_:

0000000000000000 <_ZSt12__relocate_aIPNSt7__cxx1112basic_stringIcSt11char_traitsIcESaIcEEES6_SaIS5_EET0_T_S9_S8_RT1_>:
   0:	f3 0f 1e fa          	endbr64 
   4:	55                   	push   %rbp
   5:	48 89 e5             	mov    %rsp,%rbp
   8:	41 54                	push   %r12
   a:	53                   	push   %rbx
   b:	48 83 ec 20          	sub    $0x20,%rsp
   f:	48 89 7d e8          	mov    %rdi,-0x18(%rbp)
  13:	48 89 75 e0          	mov    %rsi,-0x20(%rbp)
  17:	48 89 55 d8          	mov    %rdx,-0x28(%rbp)
  1b:	48 89 4d d0          	mov    %rcx,-0x30(%rbp)
  1f:	48 8b 45 d8          	mov    -0x28(%rbp),%rax
  23:	48 89 c7             	mov    %rax,%rdi
  26:	e8 00 00 00 00       	callq  2b <_ZSt12__relocate_aIPNSt7__cxx1112basic_stringIcSt11char_traitsIcESaIcEEES6_SaIS5_EET0_T_S9_S8_RT1_+0x2b>
  2b:	49 89 c4             	mov    %rax,%r12
  2e:	48 8b 45 e0          	mov    -0x20(%rbp),%rax
  32:	48 89 c7             	mov    %rax,%rdi
  35:	e8 00 00 00 00       	callq  3a <_ZSt12__relocate_aIPNSt7__cxx1112basic_stringIcSt11char_traitsIcESaIcEEES6_SaIS5_EET0_T_S9_S8_RT1_+0x3a>
  3a:	48 89 c3             	mov    %rax,%rbx
  3d:	48 8b 45 e8          	mov    -0x18(%rbp),%rax
  41:	48 89 c7             	mov    %rax,%rdi
  44:	e8 00 00 00 00       	callq  49 <_ZSt12__relocate_aIPNSt7__cxx1112basic_stringIcSt11char_traitsIcESaIcEEES6_SaIS5_EET0_T_S9_S8_RT1_+0x49>
  49:	48 89 c7             	mov    %rax,%rdi
  4c:	48 8b 45 d0          	mov    -0x30(%rbp),%rax
  50:	48 89 c1             	mov    %rax,%rcx
  53:	4c 89 e2             	mov    %r12,%rdx
  56:	48 89 de             	mov    %rbx,%rsi
  59:	e8 00 00 00 00       	callq  5e <_ZSt12__relocate_aIPNSt7__cxx1112basic_stringIcSt11char_traitsIcESaIcEEES6_SaIS5_EET0_T_S9_S8_RT1_+0x5e>
  5e:	48 83 c4 20          	add    $0x20,%rsp
  62:	5b                   	pop    %rbx
  63:	41 5c                	pop    %r12
  65:	5d                   	pop    %rbp
  66:	c3                   	retq   

Disassembly of section .text._ZNSt13move_iteratorIPNSt7__cxx1112basic_stringIcSt11char_traitsIcESaIcEEEEC2ES6_:

0000000000000000 <_ZNSt13move_iteratorIPNSt7__cxx1112basic_stringIcSt11char_traitsIcESaIcEEEEC1ES6_>:
   0:	f3 0f 1e fa          	endbr64 
   4:	55                   	push   %rbp
   5:	48 89 e5             	mov    %rsp,%rbp
   8:	48 89 7d f8          	mov    %rdi,-0x8(%rbp)
   c:	48 89 75 f0          	mov    %rsi,-0x10(%rbp)
  10:	48 8b 45 f8          	mov    -0x8(%rbp),%rax
  14:	48 8b 55 f0          	mov    -0x10(%rbp),%rdx
  18:	48 89 10             	mov    %rdx,(%rax)
  1b:	90                   	nop
  1c:	5d                   	pop    %rbp
  1d:	c3                   	retq   

Disassembly of section .text._ZSt18uninitialized_copyISt13move_iteratorIPNSt7__cxx1112basic_stringIcSt11char_traitsIcESaIcEEEES7_ET0_T_SA_S9_:

0000000000000000 <_ZSt18uninitialized_copyISt13move_iteratorIPNSt7__cxx1112basic_stringIcSt11char_traitsIcESaIcEEEES7_ET0_T_SA_S9_>:
   0:	f3 0f 1e fa          	endbr64 
   4:	55                   	push   %rbp
   5:	48 89 e5             	mov    %rsp,%rbp
   8:	48 83 ec 30          	sub    $0x30,%rsp
   c:	48 89 7d e8          	mov    %rdi,-0x18(%rbp)
  10:	48 89 75 e0          	mov    %rsi,-0x20(%rbp)
  14:	48 89 55 d8          	mov    %rdx,-0x28(%rbp)
  18:	c6 45 ff 01          	movb   $0x1,-0x1(%rbp)
  1c:	48 8b 55 d8          	mov    -0x28(%rbp),%rdx
  20:	48 8b 4d e0          	mov    -0x20(%rbp),%rcx
  24:	48 8b 45 e8          	mov    -0x18(%rbp),%rax
  28:	48 89 ce             	mov    %rcx,%rsi
  2b:	48 89 c7             	mov    %rax,%rdi
  2e:	e8 00 00 00 00       	callq  33 <_ZSt18uninitialized_copyISt13move_iteratorIPNSt7__cxx1112basic_stringIcSt11char_traitsIcESaIcEEEES7_ET0_T_SA_S9_+0x33>
  33:	c9                   	leaveq 
  34:	c3                   	retq   

Disassembly of section .text._ZN9__gnu_cxx14__alloc_traitsISaINSt7__cxx1112basic_stringIcSt11char_traitsIcESaIcEEEES6_E17_S_select_on_copyERKS7_:

0000000000000000 <_ZN9__gnu_cxx14__alloc_traitsISaINSt7__cxx1112basic_stringIcSt11char_traitsIcESaIcEEEES6_E17_S_select_on_copyERKS7_>:
   0:	f3 0f 1e fa          	endbr64 
   4:	55                   	push   %rbp
   5:	48 89 e5             	mov    %rsp,%rbp
   8:	48 83 ec 20          	sub    $0x20,%rsp
   c:	48 89 7d e8          	mov    %rdi,-0x18(%rbp)
  10:	48 89 75 e0          	mov    %rsi,-0x20(%rbp)
  14:	64 48 8b 04 25 28 00 	mov    %fs:0x28,%rax
  1b:	00 00 
  1d:	48 89 45 f8          	mov    %rax,-0x8(%rbp)
  21:	31 c0                	xor    %eax,%eax
  23:	48 8b 45 e8          	mov    -0x18(%rbp),%rax
  27:	48 8b 55 e0          	mov    -0x20(%rbp),%rdx
  2b:	48 89 d6             	mov    %rdx,%rsi
  2e:	48 89 c7             	mov    %rax,%rdi
  31:	e8 00 00 00 00       	callq  36 <_ZN9__gnu_cxx14__alloc_traitsISaINSt7__cxx1112basic_stringIcSt11char_traitsIcESaIcEEEES6_E17_S_select_on_copyERKS7_+0x36>
  36:	48 8b 45 f8          	mov    -0x8(%rbp),%rax
  3a:	64 48 33 04 25 28 00 	xor    %fs:0x28,%rax
  41:	00 00 
  43:	74 05                	je     4a <_ZN9__gnu_cxx14__alloc_traitsISaINSt7__cxx1112basic_stringIcSt11char_traitsIcESaIcEEEES6_E17_S_select_on_copyERKS7_+0x4a>
  45:	e8 00 00 00 00       	callq  4a <_ZN9__gnu_cxx14__alloc_traitsISaINSt7__cxx1112basic_stringIcSt11char_traitsIcESaIcEEEES6_E17_S_select_on_copyERKS7_+0x4a>
  4a:	48 8b 45 e8          	mov    -0x18(%rbp),%rax
  4e:	c9                   	leaveq 
  4f:	c3                   	retq   

Disassembly of section .text._ZNSt12_Vector_baseINSt7__cxx1112basic_stringIcSt11char_traitsIcESaIcEEESaIS5_EEC2EmRKS6_:

0000000000000000 <_ZNSt12_Vector_baseINSt7__cxx1112basic_stringIcSt11char_traitsIcESaIcEEESaIS5_EEC1EmRKS6_>:
   0:	f3 0f 1e fa          	endbr64 
   4:	55                   	push   %rbp
   5:	48 89 e5             	mov    %rsp,%rbp
   8:	53                   	push   %rbx
   9:	48 83 ec 28          	sub    $0x28,%rsp
   d:	48 89 7d e8          	mov    %rdi,-0x18(%rbp)
  11:	48 89 75 e0          	mov    %rsi,-0x20(%rbp)
  15:	48 89 55 d8          	mov    %rdx,-0x28(%rbp)
  19:	48 8b 45 e8          	mov    -0x18(%rbp),%rax
  1d:	48 8b 55 d8          	mov    -0x28(%rbp),%rdx
  21:	48 89 d6             	mov    %rdx,%rsi
  24:	48 89 c7             	mov    %rax,%rdi
  27:	e8 00 00 00 00       	callq  2c <_ZNSt12_Vector_baseINSt7__cxx1112basic_stringIcSt11char_traitsIcESaIcEEESaIS5_EEC1EmRKS6_+0x2c>
  2c:	48 8b 55 e0          	mov    -0x20(%rbp),%rdx
  30:	48 8b 45 e8          	mov    -0x18(%rbp),%rax
  34:	48 89 d6             	mov    %rdx,%rsi
  37:	48 89 c7             	mov    %rax,%rdi
  3a:	e8 00 00 00 00       	callq  3f <_ZNSt12_Vector_baseINSt7__cxx1112basic_stringIcSt11char_traitsIcESaIcEEESaIS5_EEC1EmRKS6_+0x3f>
  3f:	eb 1e                	jmp    5f <_ZNSt12_Vector_baseINSt7__cxx1112basic_stringIcSt11char_traitsIcESaIcEEESaIS5_EEC1EmRKS6_+0x5f>
  41:	f3 0f 1e fa          	endbr64 
  45:	48 89 c3             	mov    %rax,%rbx
  48:	48 8b 45 e8          	mov    -0x18(%rbp),%rax
  4c:	48 89 c7             	mov    %rax,%rdi
  4f:	e8 00 00 00 00       	callq  54 <_ZNSt12_Vector_baseINSt7__cxx1112basic_stringIcSt11char_traitsIcESaIcEEESaIS5_EEC1EmRKS6_+0x54>
  54:	48 89 d8             	mov    %rbx,%rax
  57:	48 89 c7             	mov    %rax,%rdi
  5a:	e8 00 00 00 00       	callq  5f <_ZNSt12_Vector_baseINSt7__cxx1112basic_stringIcSt11char_traitsIcESaIcEEESaIS5_EEC1EmRKS6_+0x5f>
  5f:	48 83 c4 28          	add    $0x28,%rsp
  63:	5b                   	pop    %rbx
  64:	5d                   	pop    %rbp
  65:	c3                   	retq   

Disassembly of section .text._ZSt22__uninitialized_copy_aIN9__gnu_cxx17__normal_iteratorIPKNSt7__cxx1112basic_stringIcSt11char_traitsIcESaIcEEESt6vectorIS7_SaIS7_EEEEPS7_S7_ET0_T_SG_SF_RSaIT1_E:

0000000000000000 <_ZSt22__uninitialized_copy_aIN9__gnu_cxx17__normal_iteratorIPKNSt7__cxx1112basic_stringIcSt11char_traitsIcESaIcEEESt6vectorIS7_SaIS7_EEEEPS7_S7_ET0_T_SG_SF_RSaIT1_E>:
   0:	f3 0f 1e fa          	endbr64 
   4:	55                   	push   %rbp
   5:	48 89 e5             	mov    %rsp,%rbp
   8:	48 83 ec 20          	sub    $0x20,%rsp
   c:	48 89 7d f8          	mov    %rdi,-0x8(%rbp)
  10:	48 89 75 f0          	mov    %rsi,-0x10(%rbp)
  14:	48 89 55 e8          	mov    %rdx,-0x18(%rbp)
  18:	48 89 4d e0          	mov    %rcx,-0x20(%rbp)
  1c:	48 8b 55 e8          	mov    -0x18(%rbp),%rdx
  20:	48 8b 4d f0          	mov    -0x10(%rbp),%rcx
  24:	48 8b 45 f8          	mov    -0x8(%rbp),%rax
  28:	48 89 ce             	mov    %rcx,%rsi
  2b:	48 89 c7             	mov    %rax,%rdi
  2e:	e8 00 00 00 00       	callq  33 <_ZSt22__uninitialized_copy_aIN9__gnu_cxx17__normal_iteratorIPKNSt7__cxx1112basic_stringIcSt11char_traitsIcESaIcEEESt6vectorIS7_SaIS7_EEEEPS7_S7_ET0_T_SG_SF_RSaIT1_E+0x33>
  33:	c9                   	leaveq 
  34:	c3                   	retq   

Disassembly of section .text._ZNSt6vectorIS_INSt7__cxx1112basic_stringIcSt11char_traitsIcESaIcEEESaIS5_EESaIS7_EE11_S_max_sizeERKS8_:

0000000000000000 <_ZNSt6vectorIS_INSt7__cxx1112basic_stringIcSt11char_traitsIcESaIcEEESaIS5_EESaIS7_EE11_S_max_sizeERKS8_>:
   0:	f3 0f 1e fa          	endbr64 
   4:	55                   	push   %rbp
   5:	48 89 e5             	mov    %rsp,%rbp
   8:	48 83 ec 30          	sub    $0x30,%rsp
   c:	48 89 7d d8          	mov    %rdi,-0x28(%rbp)
  10:	64 48 8b 04 25 28 00 	mov    %fs:0x28,%rax
  17:	00 00 
  19:	48 89 45 f8          	mov    %rax,-0x8(%rbp)
  1d:	31 c0                	xor    %eax,%eax
  1f:	48 b8 55 55 55 55 55 	movabs $0x555555555555555,%rax
  26:	55 55 05 
  29:	48 89 45 e8          	mov    %rax,-0x18(%rbp)
  2d:	48 8b 45 d8          	mov    -0x28(%rbp),%rax
  31:	48 89 c7             	mov    %rax,%rdi
  34:	e8 00 00 00 00       	callq  39 <_ZNSt6vectorIS_INSt7__cxx1112basic_stringIcSt11char_traitsIcESaIcEEESaIS5_EESaIS7_EE11_S_max_sizeERKS8_+0x39>
  39:	48 89 45 f0          	mov    %rax,-0x10(%rbp)
  3d:	48 8d 55 f0          	lea    -0x10(%rbp),%rdx
  41:	48 8d 45 e8          	lea    -0x18(%rbp),%rax
  45:	48 89 d6             	mov    %rdx,%rsi
  48:	48 89 c7             	mov    %rax,%rdi
  4b:	e8 00 00 00 00       	callq  50 <_ZNSt6vectorIS_INSt7__cxx1112basic_stringIcSt11char_traitsIcESaIcEEESaIS5_EESaIS7_EE11_S_max_sizeERKS8_+0x50>
  50:	48 8b 00             	mov    (%rax),%rax
  53:	48 8b 4d f8          	mov    -0x8(%rbp),%rcx
  57:	64 48 33 0c 25 28 00 	xor    %fs:0x28,%rcx
  5e:	00 00 
  60:	74 05                	je     67 <_ZNSt6vectorIS_INSt7__cxx1112basic_stringIcSt11char_traitsIcESaIcEEESaIS5_EESaIS7_EE11_S_max_sizeERKS8_+0x67>
  62:	e8 00 00 00 00       	callq  67 <_ZNSt6vectorIS_INSt7__cxx1112basic_stringIcSt11char_traitsIcESaIcEEESaIS5_EESaIS7_EE11_S_max_sizeERKS8_+0x67>
  67:	c9                   	leaveq 
  68:	c3                   	retq   

Disassembly of section .text._ZNKSt12_Vector_baseISt6vectorINSt7__cxx1112basic_stringIcSt11char_traitsIcESaIcEEESaIS6_EESaIS8_EE19_M_get_Tp_allocatorEv:

0000000000000000 <_ZNKSt12_Vector_baseISt6vectorINSt7__cxx1112basic_stringIcSt11char_traitsIcESaIcEEESaIS6_EESaIS8_EE19_M_get_Tp_allocatorEv>:
   0:	f3 0f 1e fa          	endbr64 
   4:	55                   	push   %rbp
   5:	48 89 e5             	mov    %rsp,%rbp
   8:	48 89 7d f8          	mov    %rdi,-0x8(%rbp)
   c:	48 8b 45 f8          	mov    -0x8(%rbp),%rax
  10:	5d                   	pop    %rbp
  11:	c3                   	retq   

Disassembly of section .text._ZN9__gnu_cxx13new_allocatorISt6vectorINSt7__cxx1112basic_stringIcSt11char_traitsIcESaIcEEESaIS7_EEE8allocateEmPKv:

0000000000000000 <_ZN9__gnu_cxx13new_allocatorISt6vectorINSt7__cxx1112basic_stringIcSt11char_traitsIcESaIcEEESaIS7_EEE8allocateEmPKv>:
   0:	f3 0f 1e fa          	endbr64 
   4:	55                   	push   %rbp
   5:	48 89 e5             	mov    %rsp,%rbp
   8:	48 83 ec 20          	sub    $0x20,%rsp
   c:	48 89 7d f8          	mov    %rdi,-0x8(%rbp)
  10:	48 89 75 f0          	mov    %rsi,-0x10(%rbp)
  14:	48 89 55 e8          	mov    %rdx,-0x18(%rbp)
  18:	48 8b 45 f8          	mov    -0x8(%rbp),%rax
  1c:	48 89 c7             	mov    %rax,%rdi
  1f:	e8 00 00 00 00       	callq  24 <_ZN9__gnu_cxx13new_allocatorISt6vectorINSt7__cxx1112basic_stringIcSt11char_traitsIcESaIcEEESaIS7_EEE8allocateEmPKv+0x24>
  24:	48 39 45 f0          	cmp    %rax,-0x10(%rbp)
  28:	0f 97 c0             	seta   %al
  2b:	84 c0                	test   %al,%al
  2d:	74 05                	je     34 <_ZN9__gnu_cxx13new_allocatorISt6vectorINSt7__cxx1112basic_stringIcSt11char_traitsIcESaIcEEESaIS7_EEE8allocateEmPKv+0x34>
  2f:	e8 00 00 00 00       	callq  34 <_ZN9__gnu_cxx13new_allocatorISt6vectorINSt7__cxx1112basic_stringIcSt11char_traitsIcESaIcEEESaIS7_EEE8allocateEmPKv+0x34>
  34:	48 8b 55 f0          	mov    -0x10(%rbp),%rdx
  38:	48 89 d0             	mov    %rdx,%rax
  3b:	48 01 c0             	add    %rax,%rax
  3e:	48 01 d0             	add    %rdx,%rax
  41:	48 c1 e0 03          	shl    $0x3,%rax
  45:	48 89 c7             	mov    %rax,%rdi
  48:	e8 00 00 00 00       	callq  4d <_ZN9__gnu_cxx13new_allocatorISt6vectorINSt7__cxx1112basic_stringIcSt11char_traitsIcESaIcEEESaIS7_EEE8allocateEmPKv+0x4d>
  4d:	c9                   	leaveq 
  4e:	c3                   	retq   

Disassembly of section .text._ZSt12__relocate_aIPSt6vectorINSt7__cxx1112basic_stringIcSt11char_traitsIcESaIcEEESaIS6_EES9_SaIS8_EET0_T_SC_SB_RT1_:

0000000000000000 <_ZSt12__relocate_aIPSt6vectorINSt7__cxx1112basic_stringIcSt11char_traitsIcESaIcEEESaIS6_EES9_SaIS8_EET0_T_SC_SB_RT1_>:
   0:	f3 0f 1e fa          	endbr64 
   4:	55                   	push   %rbp
   5:	48 89 e5             	mov    %rsp,%rbp
   8:	41 54                	push   %r12
   a:	53                   	push   %rbx
   b:	48 83 ec 20          	sub    $0x20,%rsp
   f:	48 89 7d e8          	mov    %rdi,-0x18(%rbp)
  13:	48 89 75 e0          	mov    %rsi,-0x20(%rbp)
  17:	48 89 55 d8          	mov    %rdx,-0x28(%rbp)
  1b:	48 89 4d d0          	mov    %rcx,-0x30(%rbp)
  1f:	48 8b 45 d8          	mov    -0x28(%rbp),%rax
  23:	48 89 c7             	mov    %rax,%rdi
  26:	e8 00 00 00 00       	callq  2b <_ZSt12__relocate_aIPSt6vectorINSt7__cxx1112basic_stringIcSt11char_traitsIcESaIcEEESaIS6_EES9_SaIS8_EET0_T_SC_SB_RT1_+0x2b>
  2b:	49 89 c4             	mov    %rax,%r12
  2e:	48 8b 45 e0          	mov    -0x20(%rbp),%rax
  32:	48 89 c7             	mov    %rax,%rdi
  35:	e8 00 00 00 00       	callq  3a <_ZSt12__relocate_aIPSt6vectorINSt7__cxx1112basic_stringIcSt11char_traitsIcESaIcEEESaIS6_EES9_SaIS8_EET0_T_SC_SB_RT1_+0x3a>
  3a:	48 89 c3             	mov    %rax,%rbx
  3d:	48 8b 45 e8          	mov    -0x18(%rbp),%rax
  41:	48 89 c7             	mov    %rax,%rdi
  44:	e8 00 00 00 00       	callq  49 <_ZSt12__relocate_aIPSt6vectorINSt7__cxx1112basic_stringIcSt11char_traitsIcESaIcEEESaIS6_EES9_SaIS8_EET0_T_SC_SB_RT1_+0x49>
  49:	48 89 c7             	mov    %rax,%rdi
  4c:	48 8b 45 d0          	mov    -0x30(%rbp),%rax
  50:	48 89 c1             	mov    %rax,%rcx
  53:	4c 89 e2             	mov    %r12,%rdx
  56:	48 89 de             	mov    %rbx,%rsi
  59:	e8 00 00 00 00       	callq  5e <_ZSt12__relocate_aIPSt6vectorINSt7__cxx1112basic_stringIcSt11char_traitsIcESaIcEEESaIS6_EES9_SaIS8_EET0_T_SC_SB_RT1_+0x5e>
  5e:	48 83 c4 20          	add    $0x20,%rsp
  62:	5b                   	pop    %rbx
  63:	41 5c                	pop    %r12
  65:	5d                   	pop    %rbp
  66:	c3                   	retq   

Disassembly of section .text._ZNSt13move_iteratorIPSt6vectorINSt7__cxx1112basic_stringIcSt11char_traitsIcESaIcEEESaIS6_EEEC2ES9_:

0000000000000000 <_ZNSt13move_iteratorIPSt6vectorINSt7__cxx1112basic_stringIcSt11char_traitsIcESaIcEEESaIS6_EEEC1ES9_>:
   0:	f3 0f 1e fa          	endbr64 
   4:	55                   	push   %rbp
   5:	48 89 e5             	mov    %rsp,%rbp
   8:	48 89 7d f8          	mov    %rdi,-0x8(%rbp)
   c:	48 89 75 f0          	mov    %rsi,-0x10(%rbp)
  10:	48 8b 45 f8          	mov    -0x8(%rbp),%rax
  14:	48 8b 55 f0          	mov    -0x10(%rbp),%rdx
  18:	48 89 10             	mov    %rdx,(%rax)
  1b:	90                   	nop
  1c:	5d                   	pop    %rbp
  1d:	c3                   	retq   

Disassembly of section .text._ZSt18uninitialized_copyISt13move_iteratorIPSt6vectorINSt7__cxx1112basic_stringIcSt11char_traitsIcESaIcEEESaIS7_EEESA_ET0_T_SD_SC_:

0000000000000000 <_ZSt18uninitialized_copyISt13move_iteratorIPSt6vectorINSt7__cxx1112basic_stringIcSt11char_traitsIcESaIcEEESaIS7_EEESA_ET0_T_SD_SC_>:
   0:	f3 0f 1e fa          	endbr64 
   4:	55                   	push   %rbp
   5:	48 89 e5             	mov    %rsp,%rbp
   8:	48 83 ec 30          	sub    $0x30,%rsp
   c:	48 89 7d e8          	mov    %rdi,-0x18(%rbp)
  10:	48 89 75 e0          	mov    %rsi,-0x20(%rbp)
  14:	48 89 55 d8          	mov    %rdx,-0x28(%rbp)
  18:	c6 45 ff 01          	movb   $0x1,-0x1(%rbp)
  1c:	48 8b 55 d8          	mov    -0x28(%rbp),%rdx
  20:	48 8b 4d e0          	mov    -0x20(%rbp),%rcx
  24:	48 8b 45 e8          	mov    -0x18(%rbp),%rax
  28:	48 89 ce             	mov    %rcx,%rsi
  2b:	48 89 c7             	mov    %rax,%rdi
  2e:	e8 00 00 00 00       	callq  33 <_ZSt18uninitialized_copyISt13move_iteratorIPSt6vectorINSt7__cxx1112basic_stringIcSt11char_traitsIcESaIcEEESaIS7_EEESA_ET0_T_SD_SC_+0x33>
  33:	c9                   	leaveq 
  34:	c3                   	retq   

Disassembly of section .text._ZSt19__iterator_categoryIPcENSt15iterator_traitsIT_E17iterator_categoryERKS2_:

0000000000000000 <_ZSt19__iterator_categoryIPcENSt15iterator_traitsIT_E17iterator_categoryERKS2_>:
   0:	f3 0f 1e fa          	endbr64 
   4:	55                   	push   %rbp
   5:	48 89 e5             	mov    %rsp,%rbp
   8:	48 89 7d f8          	mov    %rdi,-0x8(%rbp)
   c:	5d                   	pop    %rbp
   d:	c3                   	retq   

Disassembly of section .text._ZSt10__distanceIPcENSt15iterator_traitsIT_E15difference_typeES2_S2_St26random_access_iterator_tag:

0000000000000000 <_ZSt10__distanceIPcENSt15iterator_traitsIT_E15difference_typeES2_S2_St26random_access_iterator_tag>:
   0:	f3 0f 1e fa          	endbr64 
   4:	55                   	push   %rbp
   5:	48 89 e5             	mov    %rsp,%rbp
   8:	48 89 7d f8          	mov    %rdi,-0x8(%rbp)
   c:	48 89 75 f0          	mov    %rsi,-0x10(%rbp)
  10:	48 8b 45 f0          	mov    -0x10(%rbp),%rax
  14:	48 2b 45 f8          	sub    -0x8(%rbp),%rax
  18:	5d                   	pop    %rbp
  19:	c3                   	retq   

Disassembly of section .text._ZSt6fill_nIPhmhET_S1_T0_RKT1_:

0000000000000000 <_ZSt6fill_nIPhmhET_S1_T0_RKT1_>:
   0:	f3 0f 1e fa          	endbr64 
   4:	55                   	push   %rbp
   5:	48 89 e5             	mov    %rsp,%rbp
   8:	48 83 ec 20          	sub    $0x20,%rsp
   c:	48 89 7d f8          	mov    %rdi,-0x8(%rbp)
  10:	48 89 75 f0          	mov    %rsi,-0x10(%rbp)
  14:	48 89 55 e8          	mov    %rdx,-0x18(%rbp)
  18:	48 8b 45 f8          	mov    -0x8(%rbp),%rax
  1c:	48 89 c7             	mov    %rax,%rdi
  1f:	e8 00 00 00 00       	callq  24 <_ZSt6fill_nIPhmhET_S1_T0_RKT1_+0x24>
  24:	48 89 c1             	mov    %rax,%rcx
  27:	48 8b 55 e8          	mov    -0x18(%rbp),%rdx
  2b:	48 8b 45 f0          	mov    -0x10(%rbp),%rax
  2f:	48 89 c6             	mov    %rax,%rsi
  32:	48 89 cf             	mov    %rcx,%rdi
  35:	e8 00 00 00 00       	callq  3a <_ZSt6fill_nIPhmhET_S1_T0_RKT1_+0x3a>
  3a:	48 89 c2             	mov    %rax,%rdx
  3d:	48 8d 45 f8          	lea    -0x8(%rbp),%rax
  41:	48 89 d6             	mov    %rdx,%rsi
  44:	48 89 c7             	mov    %rax,%rdi
  47:	e8 00 00 00 00       	callq  4c <_ZSt6fill_nIPhmhET_S1_T0_RKT1_+0x4c>
  4c:	c9                   	leaveq 
  4d:	c3                   	retq   

Disassembly of section .text._ZSt12__niter_baseIPhET_S1_:

0000000000000000 <_ZSt12__niter_baseIPhET_S1_>:
   0:	f3 0f 1e fa          	endbr64 
   4:	55                   	push   %rbp
   5:	48 89 e5             	mov    %rsp,%rbp
   8:	48 89 7d f8          	mov    %rdi,-0x8(%rbp)
   c:	48 8b 45 f8          	mov    -0x8(%rbp),%rax
  10:	5d                   	pop    %rbp
  11:	c3                   	retq   

Disassembly of section .text._ZSt14__relocate_a_1IhhENSt9enable_ifIXsrSt24__is_bitwise_relocatableIT_vE5valueEPS2_E4typeES4_S4_S4_RSaIT0_E:

0000000000000000 <_ZSt14__relocate_a_1IhhENSt9enable_ifIXsrSt24__is_bitwise_relocatableIT_vE5valueEPS2_E4typeES4_S4_S4_RSaIT0_E>:
   0:	f3 0f 1e fa          	endbr64 
   4:	55                   	push   %rbp
   5:	48 89 e5             	mov    %rsp,%rbp
   8:	48 83 ec 30          	sub    $0x30,%rsp
   c:	48 89 7d e8          	mov    %rdi,-0x18(%rbp)
  10:	48 89 75 e0          	mov    %rsi,-0x20(%rbp)
  14:	48 89 55 d8          	mov    %rdx,-0x28(%rbp)
  18:	48 89 4d d0          	mov    %rcx,-0x30(%rbp)
  1c:	48 8b 45 e0          	mov    -0x20(%rbp),%rax
  20:	48 2b 45 e8          	sub    -0x18(%rbp),%rax
  24:	48 89 45 f8          	mov    %rax,-0x8(%rbp)
  28:	48 83 7d f8 00       	cmpq   $0x0,-0x8(%rbp)
  2d:	7e 17                	jle    46 <_ZSt14__relocate_a_1IhhENSt9enable_ifIXsrSt24__is_bitwise_relocatableIT_vE5valueEPS2_E4typeES4_S4_S4_RSaIT0_E+0x46>
  2f:	48 8b 55 f8          	mov    -0x8(%rbp),%rdx
  33:	48 8b 4d e8          	mov    -0x18(%rbp),%rcx
  37:	48 8b 45 d8          	mov    -0x28(%rbp),%rax
  3b:	48 89 ce             	mov    %rcx,%rsi
  3e:	48 89 c7             	mov    %rax,%rdi
  41:	e8 00 00 00 00       	callq  46 <_ZSt14__relocate_a_1IhhENSt9enable_ifIXsrSt24__is_bitwise_relocatableIT_vE5valueEPS2_E4typeES4_S4_S4_RSaIT0_E+0x46>
  46:	48 8b 55 f8          	mov    -0x8(%rbp),%rdx
  4a:	48 8b 45 d8          	mov    -0x28(%rbp),%rax
  4e:	48 01 d0             	add    %rdx,%rax
  51:	c9                   	leaveq 
  52:	c3                   	retq   

Disassembly of section .text._ZNSt20__uninitialized_copyILb1EE13__uninit_copyISt13move_iteratorIPhES3_EET0_T_S6_S5_:

0000000000000000 <_ZNSt20__uninitialized_copyILb1EE13__uninit_copyISt13move_iteratorIPhES3_EET0_T_S6_S5_>:
   0:	f3 0f 1e fa          	endbr64 
   4:	55                   	push   %rbp
   5:	48 89 e5             	mov    %rsp,%rbp
   8:	48 83 ec 20          	sub    $0x20,%rsp
   c:	48 89 7d f8          	mov    %rdi,-0x8(%rbp)
  10:	48 89 75 f0          	mov    %rsi,-0x10(%rbp)
  14:	48 89 55 e8          	mov    %rdx,-0x18(%rbp)
  18:	48 8b 55 e8          	mov    -0x18(%rbp),%rdx
  1c:	48 8b 4d f0          	mov    -0x10(%rbp),%rcx
  20:	48 8b 45 f8          	mov    -0x8(%rbp),%rax
  24:	48 89 ce             	mov    %rcx,%rsi
  27:	48 89 c7             	mov    %rax,%rdi
  2a:	e8 00 00 00 00       	callq  2f <_ZNSt20__uninitialized_copyILb1EE13__uninit_copyISt13move_iteratorIPhES3_EET0_T_S6_S5_+0x2f>
  2f:	c9                   	leaveq 
  30:	c3                   	retq   

Disassembly of section .text._ZNSt7__cxx1112basic_stringIcSt11char_traitsIcESaIcEE16_M_construct_auxIN9__gnu_cxx17__normal_iteratorIPhSt6vectorIhSaIhEEEEEEvT_SD_St12__false_type:

0000000000000000 <_ZNSt7__cxx1112basic_stringIcSt11char_traitsIcESaIcEE16_M_construct_auxIN9__gnu_cxx17__normal_iteratorIPhSt6vectorIhSaIhEEEEEEvT_SD_St12__false_type>:
   0:	f3 0f 1e fa          	endbr64 
   4:	55                   	push   %rbp
   5:	48 89 e5             	mov    %rsp,%rbp
   8:	48 83 ec 30          	sub    $0x30,%rsp
   c:	48 89 7d e8          	mov    %rdi,-0x18(%rbp)
  10:	48 89 75 e0          	mov    %rsi,-0x20(%rbp)
  14:	48 89 55 d8          	mov    %rdx,-0x28(%rbp)
  18:	64 48 8b 04 25 28 00 	mov    %fs:0x28,%rax
  1f:	00 00 
  21:	48 89 45 f8          	mov    %rax,-0x8(%rbp)
  25:	31 c0                	xor    %eax,%eax
  27:	48 8b 55 d8          	mov    -0x28(%rbp),%rdx
  2b:	48 8b 4d e0          	mov    -0x20(%rbp),%rcx
  2f:	48 8b 45 e8          	mov    -0x18(%rbp),%rax
  33:	48 89 ce             	mov    %rcx,%rsi
  36:	48 89 c7             	mov    %rax,%rdi
  39:	e8 00 00 00 00       	callq  3e <_ZNSt7__cxx1112basic_stringIcSt11char_traitsIcESaIcEE16_M_construct_auxIN9__gnu_cxx17__normal_iteratorIPhSt6vectorIhSaIhEEEEEEvT_SD_St12__false_type+0x3e>
  3e:	90                   	nop
  3f:	48 8b 45 f8          	mov    -0x8(%rbp),%rax
  43:	64 48 33 04 25 28 00 	xor    %fs:0x28,%rax
  4a:	00 00 
  4c:	74 05                	je     53 <_ZNSt7__cxx1112basic_stringIcSt11char_traitsIcESaIcEE16_M_construct_auxIN9__gnu_cxx17__normal_iteratorIPhSt6vectorIhSaIhEEEEEEvT_SD_St12__false_type+0x53>
  4e:	e8 00 00 00 00       	callq  53 <_ZNSt7__cxx1112basic_stringIcSt11char_traitsIcESaIcEE16_M_construct_auxIN9__gnu_cxx17__normal_iteratorIPhSt6vectorIhSaIhEEEEEEvT_SD_St12__false_type+0x53>
  53:	c9                   	leaveq 
  54:	c3                   	retq   

Disassembly of section .text._ZNSt11__copy_moveILb1ELb1ESt26random_access_iterator_tagE8__copy_mIhEEPT_PKS3_S6_S4_:

0000000000000000 <_ZNSt11__copy_moveILb1ELb1ESt26random_access_iterator_tagE8__copy_mIhEEPT_PKS3_S6_S4_>:
   0:	f3 0f 1e fa          	endbr64 
   4:	55                   	push   %rbp
   5:	48 89 e5             	mov    %rsp,%rbp
   8:	48 83 ec 30          	sub    $0x30,%rsp
   c:	48 89 7d e8          	mov    %rdi,-0x18(%rbp)
  10:	48 89 75 e0          	mov    %rsi,-0x20(%rbp)
  14:	48 89 55 d8          	mov    %rdx,-0x28(%rbp)
  18:	48 8b 45 e0          	mov    -0x20(%rbp),%rax
  1c:	48 2b 45 e8          	sub    -0x18(%rbp),%rax
  20:	48 89 45 f8          	mov    %rax,-0x8(%rbp)
  24:	48 83 7d f8 00       	cmpq   $0x0,-0x8(%rbp)
  29:	74 17                	je     42 <_ZNSt11__copy_moveILb1ELb1ESt26random_access_iterator_tagE8__copy_mIhEEPT_PKS3_S6_S4_+0x42>
  2b:	48 8b 55 f8          	mov    -0x8(%rbp),%rdx
  2f:	48 8b 4d e8          	mov    -0x18(%rbp),%rcx
  33:	48 8b 45 d8          	mov    -0x28(%rbp),%rax
  37:	48 89 ce             	mov    %rcx,%rsi
  3a:	48 89 c7             	mov    %rax,%rdi
  3d:	e8 00 00 00 00       	callq  42 <_ZNSt11__copy_moveILb1ELb1ESt26random_access_iterator_tagE8__copy_mIhEEPT_PKS3_S6_S4_+0x42>
  42:	48 8b 55 f8          	mov    -0x8(%rbp),%rdx
  46:	48 8b 45 d8          	mov    -0x28(%rbp),%rax
  4a:	48 01 d0             	add    %rdx,%rax
  4d:	c9                   	leaveq 
  4e:	c3                   	retq   

Disassembly of section .text._ZSt22__copy_move_backward_aILb1EPhS0_ET1_T0_S2_S1_:

0000000000000000 <_ZSt22__copy_move_backward_aILb1EPhS0_ET1_T0_S2_S1_>:
   0:	f3 0f 1e fa          	endbr64 
   4:	55                   	push   %rbp
   5:	48 89 e5             	mov    %rsp,%rbp
   8:	48 83 ec 30          	sub    $0x30,%rsp
   c:	48 89 7d e8          	mov    %rdi,-0x18(%rbp)
  10:	48 89 75 e0          	mov    %rsi,-0x20(%rbp)
  14:	48 89 55 d8          	mov    %rdx,-0x28(%rbp)
  18:	c6 45 ff 01          	movb   $0x1,-0x1(%rbp)
  1c:	48 8b 55 d8          	mov    -0x28(%rbp),%rdx
  20:	48 8b 4d e0          	mov    -0x20(%rbp),%rcx
  24:	48 8b 45 e8          	mov    -0x18(%rbp),%rax
  28:	48 89 ce             	mov    %rcx,%rsi
  2b:	48 89 c7             	mov    %rax,%rdi
  2e:	e8 00 00 00 00       	callq  33 <_ZSt22__copy_move_backward_aILb1EPhS0_ET1_T0_S2_S1_+0x33>
  33:	c9                   	leaveq 
  34:	c3                   	retq   

Disassembly of section .text._ZSt12__niter_wrapIPhET_RKS1_S1_:

0000000000000000 <_ZSt12__niter_wrapIPhET_RKS1_S1_>:
   0:	f3 0f 1e fa          	endbr64 
   4:	55                   	push   %rbp
   5:	48 89 e5             	mov    %rsp,%rbp
   8:	48 89 7d f8          	mov    %rdi,-0x8(%rbp)
   c:	48 89 75 f0          	mov    %rsi,-0x10(%rbp)
  10:	48 8b 45 f0          	mov    -0x10(%rbp),%rax
  14:	5d                   	pop    %rbp
  15:	c3                   	retq   

Disassembly of section .text._ZSt13__copy_move_aILb0EPhS0_ET1_T0_S2_S1_:

0000000000000000 <_ZSt13__copy_move_aILb0EPhS0_ET1_T0_S2_S1_>:
   0:	f3 0f 1e fa          	endbr64 
   4:	55                   	push   %rbp
   5:	48 89 e5             	mov    %rsp,%rbp
   8:	48 83 ec 30          	sub    $0x30,%rsp
   c:	48 89 7d e8          	mov    %rdi,-0x18(%rbp)
  10:	48 89 75 e0          	mov    %rsi,-0x20(%rbp)
  14:	48 89 55 d8          	mov    %rdx,-0x28(%rbp)
  18:	c6 45 ff 01          	movb   $0x1,-0x1(%rbp)
  1c:	48 8b 55 d8          	mov    -0x28(%rbp),%rdx
  20:	48 8b 4d e0          	mov    -0x20(%rbp),%rcx
  24:	48 8b 45 e8          	mov    -0x18(%rbp),%rax
  28:	48 89 ce             	mov    %rcx,%rsi
  2b:	48 89 c7             	mov    %rax,%rdi
  2e:	e8 00 00 00 00       	callq  33 <_ZSt13__copy_move_aILb0EPhS0_ET1_T0_S2_S1_+0x33>
  33:	c9                   	leaveq 
  34:	c3                   	retq   

Disassembly of section .text._ZN9__gnu_cxx17__normal_iteratorIPhSt6vectorIhSaIhEEEpLEl:

0000000000000000 <_ZN9__gnu_cxx17__normal_iteratorIPhSt6vectorIhSaIhEEEpLEl>:
   0:	f3 0f 1e fa          	endbr64 
   4:	55                   	push   %rbp
   5:	48 89 e5             	mov    %rsp,%rbp
   8:	48 89 7d f8          	mov    %rdi,-0x8(%rbp)
   c:	48 89 75 f0          	mov    %rsi,-0x10(%rbp)
  10:	48 8b 45 f8          	mov    -0x8(%rbp),%rax
  14:	48 8b 10             	mov    (%rax),%rdx
  17:	48 8b 45 f0          	mov    -0x10(%rbp),%rax
  1b:	48 01 c2             	add    %rax,%rdx
  1e:	48 8b 45 f8          	mov    -0x8(%rbp),%rax
  22:	48 89 10             	mov    %rdx,(%rax)
  25:	48 8b 45 f8          	mov    -0x8(%rbp),%rax
  29:	5d                   	pop    %rbp
  2a:	c3                   	retq   

Disassembly of section .text._ZNSt20__uninitialized_copyILb1EE13__uninit_copyIN9__gnu_cxx17__normal_iteratorIPhSt6vectorIhSaIhEEEES4_EET0_T_SA_S9_:

0000000000000000 <_ZNSt20__uninitialized_copyILb1EE13__uninit_copyIN9__gnu_cxx17__normal_iteratorIPhSt6vectorIhSaIhEEEES4_EET0_T_SA_S9_>:
   0:	f3 0f 1e fa          	endbr64 
   4:	55                   	push   %rbp
   5:	48 89 e5             	mov    %rsp,%rbp
   8:	48 83 ec 20          	sub    $0x20,%rsp
   c:	48 89 7d f8          	mov    %rdi,-0x8(%rbp)
  10:	48 89 75 f0          	mov    %rsi,-0x10(%rbp)
  14:	48 89 55 e8          	mov    %rdx,-0x18(%rbp)
  18:	48 8b 55 e8          	mov    -0x18(%rbp),%rdx
  1c:	48 8b 4d f0          	mov    -0x10(%rbp),%rcx
  20:	48 8b 45 f8          	mov    -0x8(%rbp),%rax
  24:	48 89 ce             	mov    %rcx,%rsi
  27:	48 89 c7             	mov    %rax,%rdi
  2a:	e8 00 00 00 00       	callq  2f <_ZNSt20__uninitialized_copyILb1EE13__uninit_copyIN9__gnu_cxx17__normal_iteratorIPhSt6vectorIhSaIhEEEES4_EET0_T_SA_S9_+0x2f>
  2f:	c9                   	leaveq 
  30:	c3                   	retq   

Disassembly of section .text._ZNSt16allocator_traitsISaINSt7__cxx1112basic_stringIcSt11char_traitsIcESaIcEEEEE8max_sizeERKS6_:

0000000000000000 <_ZNSt16allocator_traitsISaINSt7__cxx1112basic_stringIcSt11char_traitsIcESaIcEEEEE8max_sizeERKS6_>:
   0:	f3 0f 1e fa          	endbr64 
   4:	55                   	push   %rbp
   5:	48 89 e5             	mov    %rsp,%rbp
   8:	48 83 ec 10          	sub    $0x10,%rsp
   c:	48 89 7d f8          	mov    %rdi,-0x8(%rbp)
  10:	48 8b 45 f8          	mov    -0x8(%rbp),%rax
  14:	48 89 c7             	mov    %rax,%rdi
  17:	e8 00 00 00 00       	callq  1c <_ZNSt16allocator_traitsISaINSt7__cxx1112basic_stringIcSt11char_traitsIcESaIcEEEEE8max_sizeERKS6_+0x1c>
  1c:	c9                   	leaveq 
  1d:	c3                   	retq   

Disassembly of section .text._ZNK9__gnu_cxx13new_allocatorINSt7__cxx1112basic_stringIcSt11char_traitsIcESaIcEEEE8max_sizeEv:

0000000000000000 <_ZNK9__gnu_cxx13new_allocatorINSt7__cxx1112basic_stringIcSt11char_traitsIcESaIcEEEE8max_sizeEv>:
   0:	f3 0f 1e fa          	endbr64 
   4:	55                   	push   %rbp
   5:	48 89 e5             	mov    %rsp,%rbp
   8:	48 89 7d f8          	mov    %rdi,-0x8(%rbp)
   c:	48 b8 ff ff ff ff ff 	movabs $0x3ffffffffffffff,%rax
  13:	ff ff 03 
  16:	5d                   	pop    %rbp
  17:	c3                   	retq   

Disassembly of section .text._ZSt12__niter_baseIPNSt7__cxx1112basic_stringIcSt11char_traitsIcESaIcEEEET_S7_:

0000000000000000 <_ZSt12__niter_baseIPNSt7__cxx1112basic_stringIcSt11char_traitsIcESaIcEEEET_S7_>:
   0:	f3 0f 1e fa          	endbr64 
   4:	55                   	push   %rbp
   5:	48 89 e5             	mov    %rsp,%rbp
   8:	48 89 7d f8          	mov    %rdi,-0x8(%rbp)
   c:	48 8b 45 f8          	mov    -0x8(%rbp),%rax
  10:	5d                   	pop    %rbp
  11:	c3                   	retq   

Disassembly of section .text._ZSt14__relocate_a_1IPNSt7__cxx1112basic_stringIcSt11char_traitsIcESaIcEEES6_SaIS5_EET0_T_S9_S8_RT1_:

0000000000000000 <_ZSt14__relocate_a_1IPNSt7__cxx1112basic_stringIcSt11char_traitsIcESaIcEEES6_SaIS5_EET0_T_S9_S8_RT1_>:
   0:	f3 0f 1e fa          	endbr64 
   4:	55                   	push   %rbp
   5:	48 89 e5             	mov    %rsp,%rbp
   8:	53                   	push   %rbx
   9:	48 83 ec 38          	sub    $0x38,%rsp
   d:	48 89 7d d8          	mov    %rdi,-0x28(%rbp)
  11:	48 89 75 d0          	mov    %rsi,-0x30(%rbp)
  15:	48 89 55 c8          	mov    %rdx,-0x38(%rbp)
  19:	48 89 4d c0          	mov    %rcx,-0x40(%rbp)
  1d:	48 8b 45 c8          	mov    -0x38(%rbp),%rax
  21:	48 89 45 e8          	mov    %rax,-0x18(%rbp)
  25:	48 8b 45 d8          	mov    -0x28(%rbp),%rax
  29:	48 3b 45 d0          	cmp    -0x30(%rbp),%rax
  2d:	74 3c                	je     6b <_ZSt14__relocate_a_1IPNSt7__cxx1112basic_stringIcSt11char_traitsIcESaIcEEES6_SaIS5_EET0_T_S9_S8_RT1_+0x6b>
  2f:	48 8b 45 d8          	mov    -0x28(%rbp),%rax
  33:	48 89 c7             	mov    %rax,%rdi
  36:	e8 00 00 00 00       	callq  3b <_ZSt14__relocate_a_1IPNSt7__cxx1112basic_stringIcSt11char_traitsIcESaIcEEES6_SaIS5_EET0_T_S9_S8_RT1_+0x3b>
  3b:	48 89 c3             	mov    %rax,%rbx
  3e:	48 8b 45 e8          	mov    -0x18(%rbp),%rax
  42:	48 89 c7             	mov    %rax,%rdi
  45:	e8 00 00 00 00       	callq  4a <_ZSt14__relocate_a_1IPNSt7__cxx1112basic_stringIcSt11char_traitsIcESaIcEEES6_SaIS5_EET0_T_S9_S8_RT1_+0x4a>
  4a:	48 89 c1             	mov    %rax,%rcx
  4d:	48 8b 45 c0          	mov    -0x40(%rbp),%rax
  51:	48 89 c2             	mov    %rax,%rdx
  54:	48 89 de             	mov    %rbx,%rsi
  57:	48 89 cf             	mov    %rcx,%rdi
  5a:	e8 00 00 00 00       	callq  5f <_ZSt14__relocate_a_1IPNSt7__cxx1112basic_stringIcSt11char_traitsIcESaIcEEES6_SaIS5_EET0_T_S9_S8_RT1_+0x5f>
  5f:	48 83 45 d8 20       	addq   $0x20,-0x28(%rbp)
  64:	48 83 45 e8 20       	addq   $0x20,-0x18(%rbp)
  69:	eb ba                	jmp    25 <_ZSt14__relocate_a_1IPNSt7__cxx1112basic_stringIcSt11char_traitsIcESaIcEEES6_SaIS5_EET0_T_S9_S8_RT1_+0x25>
  6b:	48 8b 45 e8          	mov    -0x18(%rbp),%rax
  6f:	48 83 c4 38          	add    $0x38,%rsp
  73:	5b                   	pop    %rbx
  74:	5d                   	pop    %rbp
  75:	c3                   	retq   

Disassembly of section .text._ZNSt20__uninitialized_copyILb0EE13__uninit_copyISt13move_iteratorIPNSt7__cxx1112basic_stringIcSt11char_traitsIcESaIcEEEES9_EET0_T_SC_SB_:

0000000000000000 <_ZNSt20__uninitialized_copyILb0EE13__uninit_copyISt13move_iteratorIPNSt7__cxx1112basic_stringIcSt11char_traitsIcESaIcEEEES9_EET0_T_SC_SB_>:
   0:	f3 0f 1e fa          	endbr64 
   4:	55                   	push   %rbp
   5:	48 89 e5             	mov    %rsp,%rbp
   8:	53                   	push   %rbx
   9:	48 83 ec 38          	sub    $0x38,%rsp
   d:	48 89 7d d8          	mov    %rdi,-0x28(%rbp)
  11:	48 89 75 d0          	mov    %rsi,-0x30(%rbp)
  15:	48 89 55 c8          	mov    %rdx,-0x38(%rbp)
  19:	48 8b 45 c8          	mov    -0x38(%rbp),%rax
  1d:	48 89 45 e8          	mov    %rax,-0x18(%rbp)
  21:	48 8d 55 d0          	lea    -0x30(%rbp),%rdx
  25:	48 8d 45 d8          	lea    -0x28(%rbp),%rax
  29:	48 89 d6             	mov    %rdx,%rsi
  2c:	48 89 c7             	mov    %rax,%rdi
  2f:	e8 00 00 00 00       	callq  34 <_ZNSt20__uninitialized_copyILb0EE13__uninit_copyISt13move_iteratorIPNSt7__cxx1112basic_stringIcSt11char_traitsIcESaIcEEEES9_EET0_T_SC_SB_+0x34>
  34:	84 c0                	test   %al,%al
  36:	74 39                	je     71 <_ZNSt20__uninitialized_copyILb0EE13__uninit_copyISt13move_iteratorIPNSt7__cxx1112basic_stringIcSt11char_traitsIcESaIcEEEES9_EET0_T_SC_SB_+0x71>
  38:	48 8d 45 d8          	lea    -0x28(%rbp),%rax
  3c:	48 89 c7             	mov    %rax,%rdi
  3f:	e8 00 00 00 00       	callq  44 <_ZNSt20__uninitialized_copyILb0EE13__uninit_copyISt13move_iteratorIPNSt7__cxx1112basic_stringIcSt11char_traitsIcESaIcEEEES9_EET0_T_SC_SB_+0x44>
  44:	48 89 c3             	mov    %rax,%rbx
  47:	48 8b 45 e8          	mov    -0x18(%rbp),%rax
  4b:	48 89 c7             	mov    %rax,%rdi
  4e:	e8 00 00 00 00       	callq  53 <_ZNSt20__uninitialized_copyILb0EE13__uninit_copyISt13move_iteratorIPNSt7__cxx1112basic_stringIcSt11char_traitsIcESaIcEEEES9_EET0_T_SC_SB_+0x53>
  53:	48 89 de             	mov    %rbx,%rsi
  56:	48 89 c7             	mov    %rax,%rdi
  59:	e8 00 00 00 00       	callq  5e <_ZNSt20__uninitialized_copyILb0EE13__uninit_copyISt13move_iteratorIPNSt7__cxx1112basic_stringIcSt11char_traitsIcESaIcEEEES9_EET0_T_SC_SB_+0x5e>
  5e:	48 8d 45 d8          	lea    -0x28(%rbp),%rax
  62:	48 89 c7             	mov    %rax,%rdi
  65:	e8 00 00 00 00       	callq  6a <_ZNSt20__uninitialized_copyILb0EE13__uninit_copyISt13move_iteratorIPNSt7__cxx1112basic_stringIcSt11char_traitsIcESaIcEEEES9_EET0_T_SC_SB_+0x6a>
  6a:	48 83 45 e8 20       	addq   $0x20,-0x18(%rbp)
  6f:	eb b0                	jmp    21 <_ZNSt20__uninitialized_copyILb0EE13__uninit_copyISt13move_iteratorIPNSt7__cxx1112basic_stringIcSt11char_traitsIcESaIcEEEES9_EET0_T_SC_SB_+0x21>
  71:	48 8b 45 e8          	mov    -0x18(%rbp),%rax
  75:	eb 3b                	jmp    b2 <_ZNSt20__uninitialized_copyILb0EE13__uninit_copyISt13move_iteratorIPNSt7__cxx1112basic_stringIcSt11char_traitsIcESaIcEEEES9_EET0_T_SC_SB_+0xb2>
  77:	f3 0f 1e fa          	endbr64 
  7b:	48 89 c7             	mov    %rax,%rdi
  7e:	e8 00 00 00 00       	callq  83 <_ZNSt20__uninitialized_copyILb0EE13__uninit_copyISt13move_iteratorIPNSt7__cxx1112basic_stringIcSt11char_traitsIcESaIcEEEES9_EET0_T_SC_SB_+0x83>
  83:	48 8b 55 e8          	mov    -0x18(%rbp),%rdx
  87:	48 8b 45 c8          	mov    -0x38(%rbp),%rax
  8b:	48 89 d6             	mov    %rdx,%rsi
  8e:	48 89 c7             	mov    %rax,%rdi
  91:	e8 00 00 00 00       	callq  96 <_ZNSt20__uninitialized_copyILb0EE13__uninit_copyISt13move_iteratorIPNSt7__cxx1112basic_stringIcSt11char_traitsIcESaIcEEEES9_EET0_T_SC_SB_+0x96>
  96:	e8 00 00 00 00       	callq  9b <_ZNSt20__uninitialized_copyILb0EE13__uninit_copyISt13move_iteratorIPNSt7__cxx1112basic_stringIcSt11char_traitsIcESaIcEEEES9_EET0_T_SC_SB_+0x9b>
  9b:	f3 0f 1e fa          	endbr64 
  9f:	48 89 c3             	mov    %rax,%rbx
  a2:	e8 00 00 00 00       	callq  a7 <_ZNSt20__uninitialized_copyILb0EE13__uninit_copyISt13move_iteratorIPNSt7__cxx1112basic_stringIcSt11char_traitsIcESaIcEEEES9_EET0_T_SC_SB_+0xa7>
  a7:	48 89 d8             	mov    %rbx,%rax
  aa:	48 89 c7             	mov    %rax,%rdi
  ad:	e8 00 00 00 00       	callq  b2 <_ZNSt20__uninitialized_copyILb0EE13__uninit_copyISt13move_iteratorIPNSt7__cxx1112basic_stringIcSt11char_traitsIcESaIcEEEES9_EET0_T_SC_SB_+0xb2>
  b2:	48 83 c4 38          	add    $0x38,%rsp
  b6:	5b                   	pop    %rbx
  b7:	5d                   	pop    %rbp
  b8:	c3                   	retq   

Disassembly of section .text._ZNSt16allocator_traitsISaINSt7__cxx1112basic_stringIcSt11char_traitsIcESaIcEEEEE37select_on_container_copy_constructionERKS6_:

0000000000000000 <_ZNSt16allocator_traitsISaINSt7__cxx1112basic_stringIcSt11char_traitsIcESaIcEEEEE37select_on_container_copy_constructionERKS6_>:
   0:	f3 0f 1e fa          	endbr64 
   4:	55                   	push   %rbp
   5:	48 89 e5             	mov    %rsp,%rbp
   8:	48 83 ec 10          	sub    $0x10,%rsp
   c:	48 89 7d f8          	mov    %rdi,-0x8(%rbp)
  10:	48 89 75 f0          	mov    %rsi,-0x10(%rbp)
  14:	48 8b 55 f0          	mov    -0x10(%rbp),%rdx
  18:	48 8b 45 f8          	mov    -0x8(%rbp),%rax
  1c:	48 89 d6             	mov    %rdx,%rsi
  1f:	48 89 c7             	mov    %rax,%rdi
  22:	e8 00 00 00 00       	callq  27 <_ZNSt16allocator_traitsISaINSt7__cxx1112basic_stringIcSt11char_traitsIcESaIcEEEEE37select_on_container_copy_constructionERKS6_+0x27>
  27:	48 8b 45 f8          	mov    -0x8(%rbp),%rax
  2b:	c9                   	leaveq 
  2c:	c3                   	retq   

Disassembly of section .text._ZNSaINSt7__cxx1112basic_stringIcSt11char_traitsIcESaIcEEEEC2ERKS5_:

0000000000000000 <_ZNSaINSt7__cxx1112basic_stringIcSt11char_traitsIcESaIcEEEEC1ERKS5_>:
   0:	f3 0f 1e fa          	endbr64 
   4:	55                   	push   %rbp
   5:	48 89 e5             	mov    %rsp,%rbp
   8:	48 83 ec 10          	sub    $0x10,%rsp
   c:	48 89 7d f8          	mov    %rdi,-0x8(%rbp)
  10:	48 89 75 f0          	mov    %rsi,-0x10(%rbp)
  14:	48 8b 55 f0          	mov    -0x10(%rbp),%rdx
  18:	48 8b 45 f8          	mov    -0x8(%rbp),%rax
  1c:	48 89 d6             	mov    %rdx,%rsi
  1f:	48 89 c7             	mov    %rax,%rdi
  22:	e8 00 00 00 00       	callq  27 <_ZNSaINSt7__cxx1112basic_stringIcSt11char_traitsIcESaIcEEEEC1ERKS5_+0x27>
  27:	90                   	nop
  28:	c9                   	leaveq 
  29:	c3                   	retq   

Disassembly of section .text._ZNSt12_Vector_baseINSt7__cxx1112basic_stringIcSt11char_traitsIcESaIcEEESaIS5_EE12_Vector_implC2ERKS6_:

0000000000000000 <_ZNSt12_Vector_baseINSt7__cxx1112basic_stringIcSt11char_traitsIcESaIcEEESaIS5_EE12_Vector_implC1ERKS6_>:
   0:	f3 0f 1e fa          	endbr64 
   4:	55                   	push   %rbp
   5:	48 89 e5             	mov    %rsp,%rbp
   8:	48 83 ec 10          	sub    $0x10,%rsp
   c:	48 89 7d f8          	mov    %rdi,-0x8(%rbp)
  10:	48 89 75 f0          	mov    %rsi,-0x10(%rbp)
  14:	48 8b 55 f0          	mov    -0x10(%rbp),%rdx
  18:	48 8b 45 f8          	mov    -0x8(%rbp),%rax
  1c:	48 89 d6             	mov    %rdx,%rsi
  1f:	48 89 c7             	mov    %rax,%rdi
  22:	e8 00 00 00 00       	callq  27 <_ZNSt12_Vector_baseINSt7__cxx1112basic_stringIcSt11char_traitsIcESaIcEEESaIS5_EE12_Vector_implC1ERKS6_+0x27>
  27:	48 8b 45 f8          	mov    -0x8(%rbp),%rax
  2b:	48 89 c7             	mov    %rax,%rdi
  2e:	e8 00 00 00 00       	callq  33 <_ZNSt12_Vector_baseINSt7__cxx1112basic_stringIcSt11char_traitsIcESaIcEEESaIS5_EE12_Vector_implC1ERKS6_+0x33>
  33:	90                   	nop
  34:	c9                   	leaveq 
  35:	c3                   	retq   

Disassembly of section .text._ZNSt12_Vector_baseINSt7__cxx1112basic_stringIcSt11char_traitsIcESaIcEEESaIS5_EE17_M_create_storageEm:

0000000000000000 <_ZNSt12_Vector_baseINSt7__cxx1112basic_stringIcSt11char_traitsIcESaIcEEESaIS5_EE17_M_create_storageEm>:
   0:	f3 0f 1e fa          	endbr64 
   4:	55                   	push   %rbp
   5:	48 89 e5             	mov    %rsp,%rbp
   8:	48 83 ec 10          	sub    $0x10,%rsp
   c:	48 89 7d f8          	mov    %rdi,-0x8(%rbp)
  10:	48 89 75 f0          	mov    %rsi,-0x10(%rbp)
  14:	48 8b 55 f0          	mov    -0x10(%rbp),%rdx
  18:	48 8b 45 f8          	mov    -0x8(%rbp),%rax
  1c:	48 89 d6             	mov    %rdx,%rsi
  1f:	48 89 c7             	mov    %rax,%rdi
  22:	e8 00 00 00 00       	callq  27 <_ZNSt12_Vector_baseINSt7__cxx1112basic_stringIcSt11char_traitsIcESaIcEEESaIS5_EE17_M_create_storageEm+0x27>
  27:	48 8b 55 f8          	mov    -0x8(%rbp),%rdx
  2b:	48 89 02             	mov    %rax,(%rdx)
  2e:	48 8b 45 f8          	mov    -0x8(%rbp),%rax
  32:	48 8b 10             	mov    (%rax),%rdx
  35:	48 8b 45 f8          	mov    -0x8(%rbp),%rax
  39:	48 89 50 08          	mov    %rdx,0x8(%rax)
  3d:	48 8b 45 f8          	mov    -0x8(%rbp),%rax
  41:	48 8b 00             	mov    (%rax),%rax
  44:	48 8b 55 f0          	mov    -0x10(%rbp),%rdx
  48:	48 c1 e2 05          	shl    $0x5,%rdx
  4c:	48 01 c2             	add    %rax,%rdx
  4f:	48 8b 45 f8          	mov    -0x8(%rbp),%rax
  53:	48 89 50 10          	mov    %rdx,0x10(%rax)
  57:	90                   	nop
  58:	c9                   	leaveq 
  59:	c3                   	retq   

Disassembly of section .text._ZSt18uninitialized_copyIN9__gnu_cxx17__normal_iteratorIPKNSt7__cxx1112basic_stringIcSt11char_traitsIcESaIcEEESt6vectorIS7_SaIS7_EEEEPS7_ET0_T_SG_SF_:

0000000000000000 <_ZSt18uninitialized_copyIN9__gnu_cxx17__normal_iteratorIPKNSt7__cxx1112basic_stringIcSt11char_traitsIcESaIcEEESt6vectorIS7_SaIS7_EEEEPS7_ET0_T_SG_SF_>:
   0:	f3 0f 1e fa          	endbr64 
   4:	55                   	push   %rbp
   5:	48 89 e5             	mov    %rsp,%rbp
   8:	48 83 ec 30          	sub    $0x30,%rsp
   c:	48 89 7d e8          	mov    %rdi,-0x18(%rbp)
  10:	48 89 75 e0          	mov    %rsi,-0x20(%rbp)
  14:	48 89 55 d8          	mov    %rdx,-0x28(%rbp)
  18:	c6 45 ff 01          	movb   $0x1,-0x1(%rbp)
  1c:	48 8b 55 d8          	mov    -0x28(%rbp),%rdx
  20:	48 8b 4d e0          	mov    -0x20(%rbp),%rcx
  24:	48 8b 45 e8          	mov    -0x18(%rbp),%rax
  28:	48 89 ce             	mov    %rcx,%rsi
  2b:	48 89 c7             	mov    %rax,%rdi
  2e:	e8 00 00 00 00       	callq  33 <_ZSt18uninitialized_copyIN9__gnu_cxx17__normal_iteratorIPKNSt7__cxx1112basic_stringIcSt11char_traitsIcESaIcEEESt6vectorIS7_SaIS7_EEEEPS7_ET0_T_SG_SF_+0x33>
  33:	c9                   	leaveq 
  34:	c3                   	retq   

Disassembly of section .text._ZNSt16allocator_traitsISaISt6vectorINSt7__cxx1112basic_stringIcSt11char_traitsIcESaIcEEESaIS6_EEEE8max_sizeERKS9_:

0000000000000000 <_ZNSt16allocator_traitsISaISt6vectorINSt7__cxx1112basic_stringIcSt11char_traitsIcESaIcEEESaIS6_EEEE8max_sizeERKS9_>:
   0:	f3 0f 1e fa          	endbr64 
   4:	55                   	push   %rbp
   5:	48 89 e5             	mov    %rsp,%rbp
   8:	48 83 ec 10          	sub    $0x10,%rsp
   c:	48 89 7d f8          	mov    %rdi,-0x8(%rbp)
  10:	48 8b 45 f8          	mov    -0x8(%rbp),%rax
  14:	48 89 c7             	mov    %rax,%rdi
  17:	e8 00 00 00 00       	callq  1c <_ZNSt16allocator_traitsISaISt6vectorINSt7__cxx1112basic_stringIcSt11char_traitsIcESaIcEEESaIS6_EEEE8max_sizeERKS9_+0x1c>
  1c:	c9                   	leaveq 
  1d:	c3                   	retq   

Disassembly of section .text._ZNK9__gnu_cxx13new_allocatorISt6vectorINSt7__cxx1112basic_stringIcSt11char_traitsIcESaIcEEESaIS7_EEE8max_sizeEv:

0000000000000000 <_ZNK9__gnu_cxx13new_allocatorISt6vectorINSt7__cxx1112basic_stringIcSt11char_traitsIcESaIcEEESaIS7_EEE8max_sizeEv>:
   0:	f3 0f 1e fa          	endbr64 
   4:	55                   	push   %rbp
   5:	48 89 e5             	mov    %rsp,%rbp
   8:	48 89 7d f8          	mov    %rdi,-0x8(%rbp)
   c:	48 b8 55 55 55 55 55 	movabs $0x555555555555555,%rax
  13:	55 55 05 
  16:	5d                   	pop    %rbp
  17:	c3                   	retq   

Disassembly of section .text._ZSt12__niter_baseIPSt6vectorINSt7__cxx1112basic_stringIcSt11char_traitsIcESaIcEEESaIS6_EEET_SA_:

0000000000000000 <_ZSt12__niter_baseIPSt6vectorINSt7__cxx1112basic_stringIcSt11char_traitsIcESaIcEEESaIS6_EEET_SA_>:
   0:	f3 0f 1e fa          	endbr64 
   4:	55                   	push   %rbp
   5:	48 89 e5             	mov    %rsp,%rbp
   8:	48 89 7d f8          	mov    %rdi,-0x8(%rbp)
   c:	48 8b 45 f8          	mov    -0x8(%rbp),%rax
  10:	5d                   	pop    %rbp
  11:	c3                   	retq   

Disassembly of section .text._ZSt14__relocate_a_1IPSt6vectorINSt7__cxx1112basic_stringIcSt11char_traitsIcESaIcEEESaIS6_EES9_SaIS8_EET0_T_SC_SB_RT1_:

0000000000000000 <_ZSt14__relocate_a_1IPSt6vectorINSt7__cxx1112basic_stringIcSt11char_traitsIcESaIcEEESaIS6_EES9_SaIS8_EET0_T_SC_SB_RT1_>:
   0:	f3 0f 1e fa          	endbr64 
   4:	55                   	push   %rbp
   5:	48 89 e5             	mov    %rsp,%rbp
   8:	53                   	push   %rbx
   9:	48 83 ec 38          	sub    $0x38,%rsp
   d:	48 89 7d d8          	mov    %rdi,-0x28(%rbp)
  11:	48 89 75 d0          	mov    %rsi,-0x30(%rbp)
  15:	48 89 55 c8          	mov    %rdx,-0x38(%rbp)
  19:	48 89 4d c0          	mov    %rcx,-0x40(%rbp)
  1d:	48 8b 45 c8          	mov    -0x38(%rbp),%rax
  21:	48 89 45 e8          	mov    %rax,-0x18(%rbp)
  25:	48 8b 45 d8          	mov    -0x28(%rbp),%rax
  29:	48 3b 45 d0          	cmp    -0x30(%rbp),%rax
  2d:	74 3c                	je     6b <_ZSt14__relocate_a_1IPSt6vectorINSt7__cxx1112basic_stringIcSt11char_traitsIcESaIcEEESaIS6_EES9_SaIS8_EET0_T_SC_SB_RT1_+0x6b>
  2f:	48 8b 45 d8          	mov    -0x28(%rbp),%rax
  33:	48 89 c7             	mov    %rax,%rdi
  36:	e8 00 00 00 00       	callq  3b <_ZSt14__relocate_a_1IPSt6vectorINSt7__cxx1112basic_stringIcSt11char_traitsIcESaIcEEESaIS6_EES9_SaIS8_EET0_T_SC_SB_RT1_+0x3b>
  3b:	48 89 c3             	mov    %rax,%rbx
  3e:	48 8b 45 e8          	mov    -0x18(%rbp),%rax
  42:	48 89 c7             	mov    %rax,%rdi
  45:	e8 00 00 00 00       	callq  4a <_ZSt14__relocate_a_1IPSt6vectorINSt7__cxx1112basic_stringIcSt11char_traitsIcESaIcEEESaIS6_EES9_SaIS8_EET0_T_SC_SB_RT1_+0x4a>
  4a:	48 89 c1             	mov    %rax,%rcx
  4d:	48 8b 45 c0          	mov    -0x40(%rbp),%rax
  51:	48 89 c2             	mov    %rax,%rdx
  54:	48 89 de             	mov    %rbx,%rsi
  57:	48 89 cf             	mov    %rcx,%rdi
  5a:	e8 00 00 00 00       	callq  5f <_ZSt14__relocate_a_1IPSt6vectorINSt7__cxx1112basic_stringIcSt11char_traitsIcESaIcEEESaIS6_EES9_SaIS8_EET0_T_SC_SB_RT1_+0x5f>
  5f:	48 83 45 d8 18       	addq   $0x18,-0x28(%rbp)
  64:	48 83 45 e8 18       	addq   $0x18,-0x18(%rbp)
  69:	eb ba                	jmp    25 <_ZSt14__relocate_a_1IPSt6vectorINSt7__cxx1112basic_stringIcSt11char_traitsIcESaIcEEESaIS6_EES9_SaIS8_EET0_T_SC_SB_RT1_+0x25>
  6b:	48 8b 45 e8          	mov    -0x18(%rbp),%rax
  6f:	48 83 c4 38          	add    $0x38,%rsp
  73:	5b                   	pop    %rbx
  74:	5d                   	pop    %rbp
  75:	c3                   	retq   

Disassembly of section .text._ZNSt20__uninitialized_copyILb0EE13__uninit_copyISt13move_iteratorIPSt6vectorINSt7__cxx1112basic_stringIcSt11char_traitsIcESaIcEEESaIS9_EEESC_EET0_T_SF_SE_:

0000000000000000 <_ZNSt20__uninitialized_copyILb0EE13__uninit_copyISt13move_iteratorIPSt6vectorINSt7__cxx1112basic_stringIcSt11char_traitsIcESaIcEEESaIS9_EEESC_EET0_T_SF_SE_>:
   0:	f3 0f 1e fa          	endbr64 
   4:	55                   	push   %rbp
   5:	48 89 e5             	mov    %rsp,%rbp
   8:	53                   	push   %rbx
   9:	48 83 ec 38          	sub    $0x38,%rsp
   d:	48 89 7d d8          	mov    %rdi,-0x28(%rbp)
  11:	48 89 75 d0          	mov    %rsi,-0x30(%rbp)
  15:	48 89 55 c8          	mov    %rdx,-0x38(%rbp)
  19:	48 8b 45 c8          	mov    -0x38(%rbp),%rax
  1d:	48 89 45 e8          	mov    %rax,-0x18(%rbp)
  21:	48 8d 55 d0          	lea    -0x30(%rbp),%rdx
  25:	48 8d 45 d8          	lea    -0x28(%rbp),%rax
  29:	48 89 d6             	mov    %rdx,%rsi
  2c:	48 89 c7             	mov    %rax,%rdi
  2f:	e8 00 00 00 00       	callq  34 <_ZNSt20__uninitialized_copyILb0EE13__uninit_copyISt13move_iteratorIPSt6vectorINSt7__cxx1112basic_stringIcSt11char_traitsIcESaIcEEESaIS9_EEESC_EET0_T_SF_SE_+0x34>
  34:	84 c0                	test   %al,%al
  36:	74 39                	je     71 <_ZNSt20__uninitialized_copyILb0EE13__uninit_copyISt13move_iteratorIPSt6vectorINSt7__cxx1112basic_stringIcSt11char_traitsIcESaIcEEESaIS9_EEESC_EET0_T_SF_SE_+0x71>
  38:	48 8d 45 d8          	lea    -0x28(%rbp),%rax
  3c:	48 89 c7             	mov    %rax,%rdi
  3f:	e8 00 00 00 00       	callq  44 <_ZNSt20__uninitialized_copyILb0EE13__uninit_copyISt13move_iteratorIPSt6vectorINSt7__cxx1112basic_stringIcSt11char_traitsIcESaIcEEESaIS9_EEESC_EET0_T_SF_SE_+0x44>
  44:	48 89 c3             	mov    %rax,%rbx
  47:	48 8b 45 e8          	mov    -0x18(%rbp),%rax
  4b:	48 89 c7             	mov    %rax,%rdi
  4e:	e8 00 00 00 00       	callq  53 <_ZNSt20__uninitialized_copyILb0EE13__uninit_copyISt13move_iteratorIPSt6vectorINSt7__cxx1112basic_stringIcSt11char_traitsIcESaIcEEESaIS9_EEESC_EET0_T_SF_SE_+0x53>
  53:	48 89 de             	mov    %rbx,%rsi
  56:	48 89 c7             	mov    %rax,%rdi
  59:	e8 00 00 00 00       	callq  5e <_ZNSt20__uninitialized_copyILb0EE13__uninit_copyISt13move_iteratorIPSt6vectorINSt7__cxx1112basic_stringIcSt11char_traitsIcESaIcEEESaIS9_EEESC_EET0_T_SF_SE_+0x5e>
  5e:	48 8d 45 d8          	lea    -0x28(%rbp),%rax
  62:	48 89 c7             	mov    %rax,%rdi
  65:	e8 00 00 00 00       	callq  6a <_ZNSt20__uninitialized_copyILb0EE13__uninit_copyISt13move_iteratorIPSt6vectorINSt7__cxx1112basic_stringIcSt11char_traitsIcESaIcEEESaIS9_EEESC_EET0_T_SF_SE_+0x6a>
  6a:	48 83 45 e8 18       	addq   $0x18,-0x18(%rbp)
  6f:	eb b0                	jmp    21 <_ZNSt20__uninitialized_copyILb0EE13__uninit_copyISt13move_iteratorIPSt6vectorINSt7__cxx1112basic_stringIcSt11char_traitsIcESaIcEEESaIS9_EEESC_EET0_T_SF_SE_+0x21>
  71:	48 8b 45 e8          	mov    -0x18(%rbp),%rax
  75:	eb 3b                	jmp    b2 <_ZNSt20__uninitialized_copyILb0EE13__uninit_copyISt13move_iteratorIPSt6vectorINSt7__cxx1112basic_stringIcSt11char_traitsIcESaIcEEESaIS9_EEESC_EET0_T_SF_SE_+0xb2>
  77:	f3 0f 1e fa          	endbr64 
  7b:	48 89 c7             	mov    %rax,%rdi
  7e:	e8 00 00 00 00       	callq  83 <_ZNSt20__uninitialized_copyILb0EE13__uninit_copyISt13move_iteratorIPSt6vectorINSt7__cxx1112basic_stringIcSt11char_traitsIcESaIcEEESaIS9_EEESC_EET0_T_SF_SE_+0x83>
  83:	48 8b 55 e8          	mov    -0x18(%rbp),%rdx
  87:	48 8b 45 c8          	mov    -0x38(%rbp),%rax
  8b:	48 89 d6             	mov    %rdx,%rsi
  8e:	48 89 c7             	mov    %rax,%rdi
  91:	e8 00 00 00 00       	callq  96 <_ZNSt20__uninitialized_copyILb0EE13__uninit_copyISt13move_iteratorIPSt6vectorINSt7__cxx1112basic_stringIcSt11char_traitsIcESaIcEEESaIS9_EEESC_EET0_T_SF_SE_+0x96>
  96:	e8 00 00 00 00       	callq  9b <_ZNSt20__uninitialized_copyILb0EE13__uninit_copyISt13move_iteratorIPSt6vectorINSt7__cxx1112basic_stringIcSt11char_traitsIcESaIcEEESaIS9_EEESC_EET0_T_SF_SE_+0x9b>
  9b:	f3 0f 1e fa          	endbr64 
  9f:	48 89 c3             	mov    %rax,%rbx
  a2:	e8 00 00 00 00       	callq  a7 <_ZNSt20__uninitialized_copyILb0EE13__uninit_copyISt13move_iteratorIPSt6vectorINSt7__cxx1112basic_stringIcSt11char_traitsIcESaIcEEESaIS9_EEESC_EET0_T_SF_SE_+0xa7>
  a7:	48 89 d8             	mov    %rbx,%rax
  aa:	48 89 c7             	mov    %rax,%rdi
  ad:	e8 00 00 00 00       	callq  b2 <_ZNSt20__uninitialized_copyILb0EE13__uninit_copyISt13move_iteratorIPSt6vectorINSt7__cxx1112basic_stringIcSt11char_traitsIcESaIcEEESaIS9_EEESC_EET0_T_SF_SE_+0xb2>
  b2:	48 83 c4 38          	add    $0x38,%rsp
  b6:	5b                   	pop    %rbx
  b7:	5d                   	pop    %rbp
  b8:	c3                   	retq   

Disassembly of section .text._ZSt10__fill_n_aImhEN9__gnu_cxx11__enable_ifIXsrSt9__is_byteIT0_E7__valueEPS3_E6__typeES5_T_RKS3_:

0000000000000000 <_ZSt10__fill_n_aImhEN9__gnu_cxx11__enable_ifIXsrSt9__is_byteIT0_E7__valueEPS3_E6__typeES5_T_RKS3_>:
   0:	f3 0f 1e fa          	endbr64 
   4:	55                   	push   %rbp
   5:	48 89 e5             	mov    %rsp,%rbp
   8:	48 83 ec 20          	sub    $0x20,%rsp
   c:	48 89 7d f8          	mov    %rdi,-0x8(%rbp)
  10:	48 89 75 f0          	mov    %rsi,-0x10(%rbp)
  14:	48 89 55 e8          	mov    %rdx,-0x18(%rbp)
  18:	48 8b 55 f8          	mov    -0x8(%rbp),%rdx
  1c:	48 8b 45 f0          	mov    -0x10(%rbp),%rax
  20:	48 8d 0c 02          	lea    (%rdx,%rax,1),%rcx
  24:	48 8b 55 e8          	mov    -0x18(%rbp),%rdx
  28:	48 8b 45 f8          	mov    -0x8(%rbp),%rax
  2c:	48 89 ce             	mov    %rcx,%rsi
  2f:	48 89 c7             	mov    %rax,%rdi
  32:	e8 00 00 00 00       	callq  37 <_ZSt10__fill_n_aImhEN9__gnu_cxx11__enable_ifIXsrSt9__is_byteIT0_E7__valueEPS3_E6__typeES5_T_RKS3_+0x37>
  37:	48 8b 55 f8          	mov    -0x8(%rbp),%rdx
  3b:	48 8b 45 f0          	mov    -0x10(%rbp),%rax
  3f:	48 01 d0             	add    %rdx,%rax
  42:	c9                   	leaveq 
  43:	c3                   	retq   

Disassembly of section .text._ZSt4copyISt13move_iteratorIPhES1_ET0_T_S4_S3_:

0000000000000000 <_ZSt4copyISt13move_iteratorIPhES1_ET0_T_S4_S3_>:
   0:	f3 0f 1e fa          	endbr64 
   4:	55                   	push   %rbp
   5:	48 89 e5             	mov    %rsp,%rbp
   8:	53                   	push   %rbx
   9:	48 83 ec 28          	sub    $0x28,%rsp
   d:	48 89 7d e8          	mov    %rdi,-0x18(%rbp)
  11:	48 89 75 e0          	mov    %rsi,-0x20(%rbp)
  15:	48 89 55 d8          	mov    %rdx,-0x28(%rbp)
  19:	48 8b 45 e0          	mov    -0x20(%rbp),%rax
  1d:	48 89 c7             	mov    %rax,%rdi
  20:	e8 00 00 00 00       	callq  25 <_ZSt4copyISt13move_iteratorIPhES1_ET0_T_S4_S3_+0x25>
  25:	48 89 c3             	mov    %rax,%rbx
  28:	48 8b 45 e8          	mov    -0x18(%rbp),%rax
  2c:	48 89 c7             	mov    %rax,%rdi
  2f:	e8 00 00 00 00       	callq  34 <_ZSt4copyISt13move_iteratorIPhES1_ET0_T_S4_S3_+0x34>
  34:	48 89 c1             	mov    %rax,%rcx
  37:	48 8b 45 d8          	mov    -0x28(%rbp),%rax
  3b:	48 89 c2             	mov    %rax,%rdx
  3e:	48 89 de             	mov    %rbx,%rsi
  41:	48 89 cf             	mov    %rcx,%rdi
  44:	e8 00 00 00 00       	callq  49 <_ZSt4copyISt13move_iteratorIPhES1_ET0_T_S4_S3_+0x49>
  49:	48 83 c4 28          	add    $0x28,%rsp
  4d:	5b                   	pop    %rbx
  4e:	5d                   	pop    %rbp
  4f:	c3                   	retq   

Disassembly of section .text._ZNSt7__cxx1112basic_stringIcSt11char_traitsIcESaIcEE12_M_constructIN9__gnu_cxx17__normal_iteratorIPhSt6vectorIhSaIhEEEEEEvT_SD_St20forward_iterator_tag:

0000000000000000 <_ZNSt7__cxx1112basic_stringIcSt11char_traitsIcESaIcEE12_M_constructIN9__gnu_cxx17__normal_iteratorIPhSt6vectorIhSaIhEEEEEEvT_SD_St20forward_iterator_tag>:
   0:	f3 0f 1e fa          	endbr64 
   4:	55                   	push   %rbp
   5:	48 89 e5             	mov    %rsp,%rbp
   8:	53                   	push   %rbx
   9:	48 83 ec 38          	sub    $0x38,%rsp
   d:	48 89 7d d8          	mov    %rdi,-0x28(%rbp)
  11:	48 89 75 d0          	mov    %rsi,-0x30(%rbp)
  15:	48 89 55 c8          	mov    %rdx,-0x38(%rbp)
  19:	64 48 8b 04 25 28 00 	mov    %fs:0x28,%rax
  20:	00 00 
  22:	48 89 45 e8          	mov    %rax,-0x18(%rbp)
  26:	31 c0                	xor    %eax,%eax
  28:	48 8b 45 d0          	mov    -0x30(%rbp),%rax
  2c:	48 89 c7             	mov    %rax,%rdi
  2f:	e8 00 00 00 00       	callq  34 <_ZNSt7__cxx1112basic_stringIcSt11char_traitsIcESaIcEE12_M_constructIN9__gnu_cxx17__normal_iteratorIPhSt6vectorIhSaIhEEEEEEvT_SD_St20forward_iterator_tag+0x34>
  34:	84 c0                	test   %al,%al
  36:	74 1e                	je     56 <_ZNSt7__cxx1112basic_stringIcSt11char_traitsIcESaIcEE12_M_constructIN9__gnu_cxx17__normal_iteratorIPhSt6vectorIhSaIhEEEEEEvT_SD_St20forward_iterator_tag+0x56>
  38:	48 8d 55 c8          	lea    -0x38(%rbp),%rdx
  3c:	48 8d 45 d0          	lea    -0x30(%rbp),%rax
  40:	48 89 d6             	mov    %rdx,%rsi
  43:	48 89 c7             	mov    %rax,%rdi
  46:	e8 00 00 00 00       	callq  4b <_ZNSt7__cxx1112basic_stringIcSt11char_traitsIcESaIcEE12_M_constructIN9__gnu_cxx17__normal_iteratorIPhSt6vectorIhSaIhEEEEEEvT_SD_St20forward_iterator_tag+0x4b>
  4b:	84 c0                	test   %al,%al
  4d:	74 07                	je     56 <_ZNSt7__cxx1112basic_stringIcSt11char_traitsIcESaIcEE12_M_constructIN9__gnu_cxx17__normal_iteratorIPhSt6vectorIhSaIhEEEEEEvT_SD_St20forward_iterator_tag+0x56>
  4f:	b8 01 00 00 00       	mov    $0x1,%eax
  54:	eb 05                	jmp    5b <_ZNSt7__cxx1112basic_stringIcSt11char_traitsIcESaIcEE12_M_constructIN9__gnu_cxx17__normal_iteratorIPhSt6vectorIhSaIhEEEEEEvT_SD_St20forward_iterator_tag+0x5b>
  56:	b8 00 00 00 00       	mov    $0x0,%eax
  5b:	84 c0                	test   %al,%al
  5d:	74 0c                	je     6b <_ZNSt7__cxx1112basic_stringIcSt11char_traitsIcESaIcEE12_M_constructIN9__gnu_cxx17__normal_iteratorIPhSt6vectorIhSaIhEEEEEEvT_SD_St20forward_iterator_tag+0x6b>
  5f:	48 8d 3d 00 00 00 00 	lea    0x0(%rip),%rdi        # 66 <_ZNSt7__cxx1112basic_stringIcSt11char_traitsIcESaIcEE12_M_constructIN9__gnu_cxx17__normal_iteratorIPhSt6vectorIhSaIhEEEEEEvT_SD_St20forward_iterator_tag+0x66>
  66:	e8 00 00 00 00       	callq  6b <_ZNSt7__cxx1112basic_stringIcSt11char_traitsIcESaIcEE12_M_constructIN9__gnu_cxx17__normal_iteratorIPhSt6vectorIhSaIhEEEEEEvT_SD_St20forward_iterator_tag+0x6b>
  6b:	48 8b 55 c8          	mov    -0x38(%rbp),%rdx
  6f:	48 8b 45 d0          	mov    -0x30(%rbp),%rax
  73:	48 89 d6             	mov    %rdx,%rsi
  76:	48 89 c7             	mov    %rax,%rdi
  79:	e8 00 00 00 00       	callq  7e <_ZNSt7__cxx1112basic_stringIcSt11char_traitsIcESaIcEE12_M_constructIN9__gnu_cxx17__normal_iteratorIPhSt6vectorIhSaIhEEEEEEvT_SD_St20forward_iterator_tag+0x7e>
  7e:	48 89 45 e0          	mov    %rax,-0x20(%rbp)
  82:	48 8b 45 e0          	mov    -0x20(%rbp),%rax
  86:	48 83 f8 0f          	cmp    $0xf,%rax
  8a:	76 3d                	jbe    c9 <_ZNSt7__cxx1112basic_stringIcSt11char_traitsIcESaIcEE12_M_constructIN9__gnu_cxx17__normal_iteratorIPhSt6vectorIhSaIhEEEEEEvT_SD_St20forward_iterator_tag+0xc9>
  8c:	48 8d 4d e0          	lea    -0x20(%rbp),%rcx
  90:	48 8b 45 d8          	mov    -0x28(%rbp),%rax
  94:	ba 00 00 00 00       	mov    $0x0,%edx
  99:	48 89 ce             	mov    %rcx,%rsi
  9c:	48 89 c7             	mov    %rax,%rdi
  9f:	e8 00 00 00 00       	callq  a4 <_ZNSt7__cxx1112basic_stringIcSt11char_traitsIcESaIcEE12_M_constructIN9__gnu_cxx17__normal_iteratorIPhSt6vectorIhSaIhEEEEEEvT_SD_St20forward_iterator_tag+0xa4>
  a4:	48 89 c2             	mov    %rax,%rdx
  a7:	48 8b 45 d8          	mov    -0x28(%rbp),%rax
  ab:	48 89 d6             	mov    %rdx,%rsi
  ae:	48 89 c7             	mov    %rax,%rdi
  b1:	e8 00 00 00 00       	callq  b6 <_ZNSt7__cxx1112basic_stringIcSt11char_traitsIcESaIcEE12_M_constructIN9__gnu_cxx17__normal_iteratorIPhSt6vectorIhSaIhEEEEEEvT_SD_St20forward_iterator_tag+0xb6>
  b6:	48 8b 55 e0          	mov    -0x20(%rbp),%rdx
  ba:	48 8b 45 d8          	mov    -0x28(%rbp),%rax
  be:	48 89 d6             	mov    %rdx,%rsi
  c1:	48 89 c7             	mov    %rax,%rdi
  c4:	e8 00 00 00 00       	callq  c9 <_ZNSt7__cxx1112basic_stringIcSt11char_traitsIcESaIcEE12_M_constructIN9__gnu_cxx17__normal_iteratorIPhSt6vectorIhSaIhEEEEEEvT_SD_St20forward_iterator_tag+0xc9>
  c9:	48 8b 45 d8          	mov    -0x28(%rbp),%rax
  cd:	48 89 c7             	mov    %rax,%rdi
  d0:	e8 00 00 00 00       	callq  d5 <_ZNSt7__cxx1112basic_stringIcSt11char_traitsIcESaIcEE12_M_constructIN9__gnu_cxx17__normal_iteratorIPhSt6vectorIhSaIhEEEEEEvT_SD_St20forward_iterator_tag+0xd5>
  d5:	48 89 c1             	mov    %rax,%rcx
  d8:	48 8b 55 c8          	mov    -0x38(%rbp),%rdx
  dc:	48 8b 45 d0          	mov    -0x30(%rbp),%rax
  e0:	48 89 c6             	mov    %rax,%rsi
  e3:	48 89 cf             	mov    %rcx,%rdi
  e6:	e8 00 00 00 00       	callq  eb <_ZNSt7__cxx1112basic_stringIcSt11char_traitsIcESaIcEE12_M_constructIN9__gnu_cxx17__normal_iteratorIPhSt6vectorIhSaIhEEEEEEvT_SD_St20forward_iterator_tag+0xeb>
  eb:	48 8b 55 e0          	mov    -0x20(%rbp),%rdx
  ef:	48 8b 45 d8          	mov    -0x28(%rbp),%rax
  f3:	48 89 d6             	mov    %rdx,%rsi
  f6:	48 89 c7             	mov    %rax,%rdi
  f9:	e8 00 00 00 00       	callq  fe <_ZNSt7__cxx1112basic_stringIcSt11char_traitsIcESaIcEE12_M_constructIN9__gnu_cxx17__normal_iteratorIPhSt6vectorIhSaIhEEEEEEvT_SD_St20forward_iterator_tag+0xfe>
  fe:	90                   	nop
  ff:	48 8b 45 e8          	mov    -0x18(%rbp),%rax
 103:	64 48 33 04 25 28 00 	xor    %fs:0x28,%rax
 10a:	00 00 
 10c:	74 3b                	je     149 <_ZNSt7__cxx1112basic_stringIcSt11char_traitsIcESaIcEE12_M_constructIN9__gnu_cxx17__normal_iteratorIPhSt6vectorIhSaIhEEEEEEvT_SD_St20forward_iterator_tag+0x149>
 10e:	eb 34                	jmp    144 <_ZNSt7__cxx1112basic_stringIcSt11char_traitsIcESaIcEE12_M_constructIN9__gnu_cxx17__normal_iteratorIPhSt6vectorIhSaIhEEEEEEvT_SD_St20forward_iterator_tag+0x144>
 110:	f3 0f 1e fa          	endbr64 
 114:	48 89 c7             	mov    %rax,%rdi
 117:	e8 00 00 00 00       	callq  11c <_ZNSt7__cxx1112basic_stringIcSt11char_traitsIcESaIcEE12_M_constructIN9__gnu_cxx17__normal_iteratorIPhSt6vectorIhSaIhEEEEEEvT_SD_St20forward_iterator_tag+0x11c>
 11c:	48 8b 45 d8          	mov    -0x28(%rbp),%rax
 120:	48 89 c7             	mov    %rax,%rdi
 123:	e8 00 00 00 00       	callq  128 <_ZNSt7__cxx1112basic_stringIcSt11char_traitsIcESaIcEE12_M_constructIN9__gnu_cxx17__normal_iteratorIPhSt6vectorIhSaIhEEEEEEvT_SD_St20forward_iterator_tag+0x128>
 128:	e8 00 00 00 00       	callq  12d <_ZNSt7__cxx1112basic_stringIcSt11char_traitsIcESaIcEE12_M_constructIN9__gnu_cxx17__normal_iteratorIPhSt6vectorIhSaIhEEEEEEvT_SD_St20forward_iterator_tag+0x12d>
 12d:	f3 0f 1e fa          	endbr64 
 131:	48 89 c3             	mov    %rax,%rbx
 134:	e8 00 00 00 00       	callq  139 <_ZNSt7__cxx1112basic_stringIcSt11char_traitsIcESaIcEE12_M_constructIN9__gnu_cxx17__normal_iteratorIPhSt6vectorIhSaIhEEEEEEvT_SD_St20forward_iterator_tag+0x139>
 139:	48 89 d8             	mov    %rbx,%rax
 13c:	48 89 c7             	mov    %rax,%rdi
 13f:	e8 00 00 00 00       	callq  144 <_ZNSt7__cxx1112basic_stringIcSt11char_traitsIcESaIcEE12_M_constructIN9__gnu_cxx17__normal_iteratorIPhSt6vectorIhSaIhEEEEEEvT_SD_St20forward_iterator_tag+0x144>
 144:	e8 00 00 00 00       	callq  149 <_ZNSt7__cxx1112basic_stringIcSt11char_traitsIcESaIcEE12_M_constructIN9__gnu_cxx17__normal_iteratorIPhSt6vectorIhSaIhEEEEEEvT_SD_St20forward_iterator_tag+0x149>
 149:	48 83 c4 38          	add    $0x38,%rsp
 14d:	5b                   	pop    %rbx
 14e:	5d                   	pop    %rbp
 14f:	c3                   	retq   

Disassembly of section .text._ZNSt20__copy_move_backwardILb1ELb1ESt26random_access_iterator_tagE13__copy_move_bIhEEPT_PKS3_S6_S4_:

0000000000000000 <_ZNSt20__copy_move_backwardILb1ELb1ESt26random_access_iterator_tagE13__copy_move_bIhEEPT_PKS3_S6_S4_>:
   0:	f3 0f 1e fa          	endbr64 
   4:	55                   	push   %rbp
   5:	48 89 e5             	mov    %rsp,%rbp
   8:	48 83 ec 30          	sub    $0x30,%rsp
   c:	48 89 7d e8          	mov    %rdi,-0x18(%rbp)
  10:	48 89 75 e0          	mov    %rsi,-0x20(%rbp)
  14:	48 89 55 d8          	mov    %rdx,-0x28(%rbp)
  18:	48 8b 45 e0          	mov    -0x20(%rbp),%rax
  1c:	48 2b 45 e8          	sub    -0x18(%rbp),%rax
  20:	48 89 45 f8          	mov    %rax,-0x8(%rbp)
  24:	48 83 7d f8 00       	cmpq   $0x0,-0x8(%rbp)
  29:	74 24                	je     4f <_ZNSt20__copy_move_backwardILb1ELb1ESt26random_access_iterator_tagE13__copy_move_bIhEEPT_PKS3_S6_S4_+0x4f>
  2b:	48 8b 55 f8          	mov    -0x8(%rbp),%rdx
  2f:	48 8b 45 f8          	mov    -0x8(%rbp),%rax
  33:	48 f7 d8             	neg    %rax
  36:	48 89 c1             	mov    %rax,%rcx
  39:	48 8b 45 d8          	mov    -0x28(%rbp),%rax
  3d:	48 01 c1             	add    %rax,%rcx
  40:	48 8b 45 e8          	mov    -0x18(%rbp),%rax
  44:	48 89 c6             	mov    %rax,%rsi
  47:	48 89 cf             	mov    %rcx,%rdi
  4a:	e8 00 00 00 00       	callq  4f <_ZNSt20__copy_move_backwardILb1ELb1ESt26random_access_iterator_tagE13__copy_move_bIhEEPT_PKS3_S6_S4_+0x4f>
  4f:	48 8b 45 f8          	mov    -0x8(%rbp),%rax
  53:	48 f7 d8             	neg    %rax
  56:	48 89 c2             	mov    %rax,%rdx
  59:	48 8b 45 d8          	mov    -0x28(%rbp),%rax
  5d:	48 01 d0             	add    %rdx,%rax
  60:	c9                   	leaveq 
  61:	c3                   	retq   

Disassembly of section .text._ZNSt11__copy_moveILb0ELb1ESt26random_access_iterator_tagE8__copy_mIhEEPT_PKS3_S6_S4_:

0000000000000000 <_ZNSt11__copy_moveILb0ELb1ESt26random_access_iterator_tagE8__copy_mIhEEPT_PKS3_S6_S4_>:
   0:	f3 0f 1e fa          	endbr64 
   4:	55                   	push   %rbp
   5:	48 89 e5             	mov    %rsp,%rbp
   8:	48 83 ec 30          	sub    $0x30,%rsp
   c:	48 89 7d e8          	mov    %rdi,-0x18(%rbp)
  10:	48 89 75 e0          	mov    %rsi,-0x20(%rbp)
  14:	48 89 55 d8          	mov    %rdx,-0x28(%rbp)
  18:	48 8b 45 e0          	mov    -0x20(%rbp),%rax
  1c:	48 2b 45 e8          	sub    -0x18(%rbp),%rax
  20:	48 89 45 f8          	mov    %rax,-0x8(%rbp)
  24:	48 83 7d f8 00       	cmpq   $0x0,-0x8(%rbp)
  29:	74 17                	je     42 <_ZNSt11__copy_moveILb0ELb1ESt26random_access_iterator_tagE8__copy_mIhEEPT_PKS3_S6_S4_+0x42>
  2b:	48 8b 55 f8          	mov    -0x8(%rbp),%rdx
  2f:	48 8b 4d e8          	mov    -0x18(%rbp),%rcx
  33:	48 8b 45 d8          	mov    -0x28(%rbp),%rax
  37:	48 89 ce             	mov    %rcx,%rsi
  3a:	48 89 c7             	mov    %rax,%rdi
  3d:	e8 00 00 00 00       	callq  42 <_ZNSt11__copy_moveILb0ELb1ESt26random_access_iterator_tagE8__copy_mIhEEPT_PKS3_S6_S4_+0x42>
  42:	48 8b 55 f8          	mov    -0x8(%rbp),%rdx
  46:	48 8b 45 d8          	mov    -0x28(%rbp),%rax
  4a:	48 01 d0             	add    %rdx,%rax
  4d:	c9                   	leaveq 
  4e:	c3                   	retq   

Disassembly of section .text._ZSt4copyIN9__gnu_cxx17__normal_iteratorIPhSt6vectorIhSaIhEEEES2_ET0_T_S8_S7_:

0000000000000000 <_ZSt4copyIN9__gnu_cxx17__normal_iteratorIPhSt6vectorIhSaIhEEEES2_ET0_T_S8_S7_>:
   0:	f3 0f 1e fa          	endbr64 
   4:	55                   	push   %rbp
   5:	48 89 e5             	mov    %rsp,%rbp
   8:	53                   	push   %rbx
   9:	48 83 ec 28          	sub    $0x28,%rsp
   d:	48 89 7d e8          	mov    %rdi,-0x18(%rbp)
  11:	48 89 75 e0          	mov    %rsi,-0x20(%rbp)
  15:	48 89 55 d8          	mov    %rdx,-0x28(%rbp)
  19:	48 8b 45 e0          	mov    -0x20(%rbp),%rax
  1d:	48 89 c7             	mov    %rax,%rdi
  20:	e8 00 00 00 00       	callq  25 <_ZSt4copyIN9__gnu_cxx17__normal_iteratorIPhSt6vectorIhSaIhEEEES2_ET0_T_S8_S7_+0x25>
  25:	48 89 c3             	mov    %rax,%rbx
  28:	48 8b 45 e8          	mov    -0x18(%rbp),%rax
  2c:	48 89 c7             	mov    %rax,%rdi
  2f:	e8 00 00 00 00       	callq  34 <_ZSt4copyIN9__gnu_cxx17__normal_iteratorIPhSt6vectorIhSaIhEEEES2_ET0_T_S8_S7_+0x34>
  34:	48 89 c1             	mov    %rax,%rcx
  37:	48 8b 45 d8          	mov    -0x28(%rbp),%rax
  3b:	48 89 c2             	mov    %rax,%rdx
  3e:	48 89 de             	mov    %rbx,%rsi
  41:	48 89 cf             	mov    %rcx,%rdi
  44:	e8 00 00 00 00       	callq  49 <_ZSt4copyIN9__gnu_cxx17__normal_iteratorIPhSt6vectorIhSaIhEEEES2_ET0_T_S8_S7_+0x49>
  49:	48 83 c4 28          	add    $0x28,%rsp
  4d:	5b                   	pop    %rbx
  4e:	5d                   	pop    %rbp
  4f:	c3                   	retq   

Disassembly of section .text._ZSt19__relocate_object_aINSt7__cxx1112basic_stringIcSt11char_traitsIcESaIcEEES5_SaIS5_EEvPT_PT0_RT1_:

0000000000000000 <_ZSt19__relocate_object_aINSt7__cxx1112basic_stringIcSt11char_traitsIcESaIcEEES5_SaIS5_EEvPT_PT0_RT1_>:
   0:	f3 0f 1e fa          	endbr64 
   4:	55                   	push   %rbp
   5:	48 89 e5             	mov    %rsp,%rbp
   8:	48 83 ec 20          	sub    $0x20,%rsp
   c:	48 89 7d f8          	mov    %rdi,-0x8(%rbp)
  10:	48 89 75 f0          	mov    %rsi,-0x10(%rbp)
  14:	48 89 55 e8          	mov    %rdx,-0x18(%rbp)
  18:	48 8b 45 f0          	mov    -0x10(%rbp),%rax
  1c:	48 89 c7             	mov    %rax,%rdi
  1f:	e8 00 00 00 00       	callq  24 <_ZSt19__relocate_object_aINSt7__cxx1112basic_stringIcSt11char_traitsIcESaIcEEES5_SaIS5_EEvPT_PT0_RT1_+0x24>
  24:	48 89 c2             	mov    %rax,%rdx
  27:	48 8b 4d f8          	mov    -0x8(%rbp),%rcx
  2b:	48 8b 45 e8          	mov    -0x18(%rbp),%rax
  2f:	48 89 ce             	mov    %rcx,%rsi
  32:	48 89 c7             	mov    %rax,%rdi
  35:	e8 00 00 00 00       	callq  3a <_ZSt19__relocate_object_aINSt7__cxx1112basic_stringIcSt11char_traitsIcESaIcEEES5_SaIS5_EEvPT_PT0_RT1_+0x3a>
  3a:	48 8b 45 f0          	mov    -0x10(%rbp),%rax
  3e:	48 89 c7             	mov    %rax,%rdi
  41:	e8 00 00 00 00       	callq  46 <_ZSt19__relocate_object_aINSt7__cxx1112basic_stringIcSt11char_traitsIcESaIcEEES5_SaIS5_EEvPT_PT0_RT1_+0x46>
  46:	48 89 c2             	mov    %rax,%rdx
  49:	48 8b 45 e8          	mov    -0x18(%rbp),%rax
  4d:	48 89 d6             	mov    %rdx,%rsi
  50:	48 89 c7             	mov    %rax,%rdi
  53:	e8 00 00 00 00       	callq  58 <_ZSt19__relocate_object_aINSt7__cxx1112basic_stringIcSt11char_traitsIcESaIcEEES5_SaIS5_EEvPT_PT0_RT1_+0x58>
  58:	90                   	nop
  59:	c9                   	leaveq 
  5a:	c3                   	retq   

Disassembly of section .text._ZStneIPNSt7__cxx1112basic_stringIcSt11char_traitsIcESaIcEEEEbRKSt13move_iteratorIT_ESB_:

0000000000000000 <_ZStneIPNSt7__cxx1112basic_stringIcSt11char_traitsIcESaIcEEEEbRKSt13move_iteratorIT_ESB_>:
   0:	f3 0f 1e fa          	endbr64 
   4:	55                   	push   %rbp
   5:	48 89 e5             	mov    %rsp,%rbp
   8:	48 83 ec 10          	sub    $0x10,%rsp
   c:	48 89 7d f8          	mov    %rdi,-0x8(%rbp)
  10:	48 89 75 f0          	mov    %rsi,-0x10(%rbp)
  14:	48 8b 55 f0          	mov    -0x10(%rbp),%rdx
  18:	48 8b 45 f8          	mov    -0x8(%rbp),%rax
  1c:	48 89 d6             	mov    %rdx,%rsi
  1f:	48 89 c7             	mov    %rax,%rdi
  22:	e8 00 00 00 00       	callq  27 <_ZStneIPNSt7__cxx1112basic_stringIcSt11char_traitsIcESaIcEEEEbRKSt13move_iteratorIT_ESB_+0x27>
  27:	83 f0 01             	xor    $0x1,%eax
  2a:	c9                   	leaveq 
  2b:	c3                   	retq   

Disassembly of section .text._ZNSt13move_iteratorIPNSt7__cxx1112basic_stringIcSt11char_traitsIcESaIcEEEEppEv:

0000000000000000 <_ZNSt13move_iteratorIPNSt7__cxx1112basic_stringIcSt11char_traitsIcESaIcEEEEppEv>:
   0:	f3 0f 1e fa          	endbr64 
   4:	55                   	push   %rbp
   5:	48 89 e5             	mov    %rsp,%rbp
   8:	48 89 7d f8          	mov    %rdi,-0x8(%rbp)
   c:	48 8b 45 f8          	mov    -0x8(%rbp),%rax
  10:	48 8b 00             	mov    (%rax),%rax
  13:	48 8d 50 20          	lea    0x20(%rax),%rdx
  17:	48 8b 45 f8          	mov    -0x8(%rbp),%rax
  1b:	48 89 10             	mov    %rdx,(%rax)
  1e:	48 8b 45 f8          	mov    -0x8(%rbp),%rax
  22:	5d                   	pop    %rbp
  23:	c3                   	retq   

Disassembly of section .text._ZNKSt13move_iteratorIPNSt7__cxx1112basic_stringIcSt11char_traitsIcESaIcEEEEdeEv:

0000000000000000 <_ZNKSt13move_iteratorIPNSt7__cxx1112basic_stringIcSt11char_traitsIcESaIcEEEEdeEv>:
   0:	f3 0f 1e fa          	endbr64 
   4:	55                   	push   %rbp
   5:	48 89 e5             	mov    %rsp,%rbp
   8:	48 89 7d f8          	mov    %rdi,-0x8(%rbp)
   c:	48 8b 45 f8          	mov    -0x8(%rbp),%rax
  10:	48 8b 00             	mov    (%rax),%rax
  13:	5d                   	pop    %rbp
  14:	c3                   	retq   

Disassembly of section .text._ZSt10_ConstructINSt7__cxx1112basic_stringIcSt11char_traitsIcESaIcEEEJS5_EEvPT_DpOT0_:

0000000000000000 <_ZSt10_ConstructINSt7__cxx1112basic_stringIcSt11char_traitsIcESaIcEEEJS5_EEvPT_DpOT0_>:
   0:	f3 0f 1e fa          	endbr64 
   4:	55                   	push   %rbp
   5:	48 89 e5             	mov    %rsp,%rbp
   8:	53                   	push   %rbx
   9:	48 83 ec 18          	sub    $0x18,%rsp
   d:	48 89 7d e8          	mov    %rdi,-0x18(%rbp)
  11:	48 89 75 e0          	mov    %rsi,-0x20(%rbp)
  15:	48 8b 45 e0          	mov    -0x20(%rbp),%rax
  19:	48 89 c7             	mov    %rax,%rdi
  1c:	e8 00 00 00 00       	callq  21 <_ZSt10_ConstructINSt7__cxx1112basic_stringIcSt11char_traitsIcESaIcEEEJS5_EEvPT_DpOT0_+0x21>
  21:	48 89 c3             	mov    %rax,%rbx
  24:	48 8b 45 e8          	mov    -0x18(%rbp),%rax
  28:	48 89 c6             	mov    %rax,%rsi
  2b:	bf 20 00 00 00       	mov    $0x20,%edi
  30:	e8 00 00 00 00       	callq  35 <_ZSt10_ConstructINSt7__cxx1112basic_stringIcSt11char_traitsIcESaIcEEEJS5_EEvPT_DpOT0_+0x35>
  35:	48 89 de             	mov    %rbx,%rsi
  38:	48 89 c7             	mov    %rax,%rdi
  3b:	e8 00 00 00 00       	callq  40 <_ZSt10_ConstructINSt7__cxx1112basic_stringIcSt11char_traitsIcESaIcEEEJS5_EEvPT_DpOT0_+0x40>
  40:	90                   	nop
  41:	48 83 c4 18          	add    $0x18,%rsp
  45:	5b                   	pop    %rbx
  46:	5d                   	pop    %rbp
  47:	c3                   	retq   

Disassembly of section .text._ZN9__gnu_cxx13new_allocatorINSt7__cxx1112basic_stringIcSt11char_traitsIcESaIcEEEEC2ERKS7_:

0000000000000000 <_ZN9__gnu_cxx13new_allocatorINSt7__cxx1112basic_stringIcSt11char_traitsIcESaIcEEEEC1ERKS7_>:
   0:	f3 0f 1e fa          	endbr64 
   4:	55                   	push   %rbp
   5:	48 89 e5             	mov    %rsp,%rbp
   8:	48 89 7d f8          	mov    %rdi,-0x8(%rbp)
   c:	48 89 75 f0          	mov    %rsi,-0x10(%rbp)
  10:	90                   	nop
  11:	5d                   	pop    %rbp
  12:	c3                   	retq   

Disassembly of section .text._ZNSt20__uninitialized_copyILb0EE13__uninit_copyIN9__gnu_cxx17__normal_iteratorIPKNSt7__cxx1112basic_stringIcSt11char_traitsIcESaIcEEESt6vectorIS9_SaIS9_EEEEPS9_EET0_T_SI_SH_:

0000000000000000 <_ZNSt20__uninitialized_copyILb0EE13__uninit_copyIN9__gnu_cxx17__normal_iteratorIPKNSt7__cxx1112basic_stringIcSt11char_traitsIcESaIcEEESt6vectorIS9_SaIS9_EEEEPS9_EET0_T_SI_SH_>:
   0:	f3 0f 1e fa          	endbr64 
   4:	55                   	push   %rbp
   5:	48 89 e5             	mov    %rsp,%rbp
   8:	53                   	push   %rbx
   9:	48 83 ec 38          	sub    $0x38,%rsp
   d:	48 89 7d d8          	mov    %rdi,-0x28(%rbp)
  11:	48 89 75 d0          	mov    %rsi,-0x30(%rbp)
  15:	48 89 55 c8          	mov    %rdx,-0x38(%rbp)
  19:	48 8b 45 c8          	mov    -0x38(%rbp),%rax
  1d:	48 89 45 e8          	mov    %rax,-0x18(%rbp)
  21:	48 8d 55 d0          	lea    -0x30(%rbp),%rdx
  25:	48 8d 45 d8          	lea    -0x28(%rbp),%rax
  29:	48 89 d6             	mov    %rdx,%rsi
  2c:	48 89 c7             	mov    %rax,%rdi
  2f:	e8 00 00 00 00       	callq  34 <_ZNSt20__uninitialized_copyILb0EE13__uninit_copyIN9__gnu_cxx17__normal_iteratorIPKNSt7__cxx1112basic_stringIcSt11char_traitsIcESaIcEEESt6vectorIS9_SaIS9_EEEEPS9_EET0_T_SI_SH_+0x34>
  34:	84 c0                	test   %al,%al
  36:	74 39                	je     71 <_ZNSt20__uninitialized_copyILb0EE13__uninit_copyIN9__gnu_cxx17__normal_iteratorIPKNSt7__cxx1112basic_stringIcSt11char_traitsIcESaIcEEESt6vectorIS9_SaIS9_EEEEPS9_EET0_T_SI_SH_+0x71>
  38:	48 8d 45 d8          	lea    -0x28(%rbp),%rax
  3c:	48 89 c7             	mov    %rax,%rdi
  3f:	e8 00 00 00 00       	callq  44 <_ZNSt20__uninitialized_copyILb0EE13__uninit_copyIN9__gnu_cxx17__normal_iteratorIPKNSt7__cxx1112basic_stringIcSt11char_traitsIcESaIcEEESt6vectorIS9_SaIS9_EEEEPS9_EET0_T_SI_SH_+0x44>
  44:	48 89 c3             	mov    %rax,%rbx
  47:	48 8b 45 e8          	mov    -0x18(%rbp),%rax
  4b:	48 89 c7             	mov    %rax,%rdi
  4e:	e8 00 00 00 00       	callq  53 <_ZNSt20__uninitialized_copyILb0EE13__uninit_copyIN9__gnu_cxx17__normal_iteratorIPKNSt7__cxx1112basic_stringIcSt11char_traitsIcESaIcEEESt6vectorIS9_SaIS9_EEEEPS9_EET0_T_SI_SH_+0x53>
  53:	48 89 de             	mov    %rbx,%rsi
  56:	48 89 c7             	mov    %rax,%rdi
  59:	e8 00 00 00 00       	callq  5e <_ZNSt20__uninitialized_copyILb0EE13__uninit_copyIN9__gnu_cxx17__normal_iteratorIPKNSt7__cxx1112basic_stringIcSt11char_traitsIcESaIcEEESt6vectorIS9_SaIS9_EEEEPS9_EET0_T_SI_SH_+0x5e>
  5e:	48 8d 45 d8          	lea    -0x28(%rbp),%rax
  62:	48 89 c7             	mov    %rax,%rdi
  65:	e8 00 00 00 00       	callq  6a <_ZNSt20__uninitialized_copyILb0EE13__uninit_copyIN9__gnu_cxx17__normal_iteratorIPKNSt7__cxx1112basic_stringIcSt11char_traitsIcESaIcEEESt6vectorIS9_SaIS9_EEEEPS9_EET0_T_SI_SH_+0x6a>
  6a:	48 83 45 e8 20       	addq   $0x20,-0x18(%rbp)
  6f:	eb b0                	jmp    21 <_ZNSt20__uninitialized_copyILb0EE13__uninit_copyIN9__gnu_cxx17__normal_iteratorIPKNSt7__cxx1112basic_stringIcSt11char_traitsIcESaIcEEESt6vectorIS9_SaIS9_EEEEPS9_EET0_T_SI_SH_+0x21>
  71:	48 8b 45 e8          	mov    -0x18(%rbp),%rax
  75:	eb 3b                	jmp    b2 <_ZNSt20__uninitialized_copyILb0EE13__uninit_copyIN9__gnu_cxx17__normal_iteratorIPKNSt7__cxx1112basic_stringIcSt11char_traitsIcESaIcEEESt6vectorIS9_SaIS9_EEEEPS9_EET0_T_SI_SH_+0xb2>
  77:	f3 0f 1e fa          	endbr64 
  7b:	48 89 c7             	mov    %rax,%rdi
  7e:	e8 00 00 00 00       	callq  83 <_ZNSt20__uninitialized_copyILb0EE13__uninit_copyIN9__gnu_cxx17__normal_iteratorIPKNSt7__cxx1112basic_stringIcSt11char_traitsIcESaIcEEESt6vectorIS9_SaIS9_EEEEPS9_EET0_T_SI_SH_+0x83>
  83:	48 8b 55 e8          	mov    -0x18(%rbp),%rdx
  87:	48 8b 45 c8          	mov    -0x38(%rbp),%rax
  8b:	48 89 d6             	mov    %rdx,%rsi
  8e:	48 89 c7             	mov    %rax,%rdi
  91:	e8 00 00 00 00       	callq  96 <_ZNSt20__uninitialized_copyILb0EE13__uninit_copyIN9__gnu_cxx17__normal_iteratorIPKNSt7__cxx1112basic_stringIcSt11char_traitsIcESaIcEEESt6vectorIS9_SaIS9_EEEEPS9_EET0_T_SI_SH_+0x96>
  96:	e8 00 00 00 00       	callq  9b <_ZNSt20__uninitialized_copyILb0EE13__uninit_copyIN9__gnu_cxx17__normal_iteratorIPKNSt7__cxx1112basic_stringIcSt11char_traitsIcESaIcEEESt6vectorIS9_SaIS9_EEEEPS9_EET0_T_SI_SH_+0x9b>
  9b:	f3 0f 1e fa          	endbr64 
  9f:	48 89 c3             	mov    %rax,%rbx
  a2:	e8 00 00 00 00       	callq  a7 <_ZNSt20__uninitialized_copyILb0EE13__uninit_copyIN9__gnu_cxx17__normal_iteratorIPKNSt7__cxx1112basic_stringIcSt11char_traitsIcESaIcEEESt6vectorIS9_SaIS9_EEEEPS9_EET0_T_SI_SH_+0xa7>
  a7:	48 89 d8             	mov    %rbx,%rax
  aa:	48 89 c7             	mov    %rax,%rdi
  ad:	e8 00 00 00 00       	callq  b2 <_ZNSt20__uninitialized_copyILb0EE13__uninit_copyIN9__gnu_cxx17__normal_iteratorIPKNSt7__cxx1112basic_stringIcSt11char_traitsIcESaIcEEESt6vectorIS9_SaIS9_EEEEPS9_EET0_T_SI_SH_+0xb2>
  b2:	48 83 c4 38          	add    $0x38,%rsp
  b6:	5b                   	pop    %rbx
  b7:	5d                   	pop    %rbp
  b8:	c3                   	retq   

Disassembly of section .text._ZSt19__relocate_object_aISt6vectorINSt7__cxx1112basic_stringIcSt11char_traitsIcESaIcEEESaIS6_EES8_SaIS8_EEvPT_PT0_RT1_:

0000000000000000 <_ZSt19__relocate_object_aISt6vectorINSt7__cxx1112basic_stringIcSt11char_traitsIcESaIcEEESaIS6_EES8_SaIS8_EEvPT_PT0_RT1_>:
   0:	f3 0f 1e fa          	endbr64 
   4:	55                   	push   %rbp
   5:	48 89 e5             	mov    %rsp,%rbp
   8:	48 83 ec 20          	sub    $0x20,%rsp
   c:	48 89 7d f8          	mov    %rdi,-0x8(%rbp)
  10:	48 89 75 f0          	mov    %rsi,-0x10(%rbp)
  14:	48 89 55 e8          	mov    %rdx,-0x18(%rbp)
  18:	48 8b 45 f0          	mov    -0x10(%rbp),%rax
  1c:	48 89 c7             	mov    %rax,%rdi
  1f:	e8 00 00 00 00       	callq  24 <_ZSt19__relocate_object_aISt6vectorINSt7__cxx1112basic_stringIcSt11char_traitsIcESaIcEEESaIS6_EES8_SaIS8_EEvPT_PT0_RT1_+0x24>
  24:	48 89 c2             	mov    %rax,%rdx
  27:	48 8b 4d f8          	mov    -0x8(%rbp),%rcx
  2b:	48 8b 45 e8          	mov    -0x18(%rbp),%rax
  2f:	48 89 ce             	mov    %rcx,%rsi
  32:	48 89 c7             	mov    %rax,%rdi
  35:	e8 00 00 00 00       	callq  3a <_ZSt19__relocate_object_aISt6vectorINSt7__cxx1112basic_stringIcSt11char_traitsIcESaIcEEESaIS6_EES8_SaIS8_EEvPT_PT0_RT1_+0x3a>
  3a:	48 8b 45 f0          	mov    -0x10(%rbp),%rax
  3e:	48 89 c7             	mov    %rax,%rdi
  41:	e8 00 00 00 00       	callq  46 <_ZSt19__relocate_object_aISt6vectorINSt7__cxx1112basic_stringIcSt11char_traitsIcESaIcEEESaIS6_EES8_SaIS8_EEvPT_PT0_RT1_+0x46>
  46:	48 89 c2             	mov    %rax,%rdx
  49:	48 8b 45 e8          	mov    -0x18(%rbp),%rax
  4d:	48 89 d6             	mov    %rdx,%rsi
  50:	48 89 c7             	mov    %rax,%rdi
  53:	e8 00 00 00 00       	callq  58 <_ZSt19__relocate_object_aISt6vectorINSt7__cxx1112basic_stringIcSt11char_traitsIcESaIcEEESaIS6_EES8_SaIS8_EEvPT_PT0_RT1_+0x58>
  58:	90                   	nop
  59:	c9                   	leaveq 
  5a:	c3                   	retq   

Disassembly of section .text._ZStneIPSt6vectorINSt7__cxx1112basic_stringIcSt11char_traitsIcESaIcEEESaIS6_EEEbRKSt13move_iteratorIT_ESE_:

0000000000000000 <_ZStneIPSt6vectorINSt7__cxx1112basic_stringIcSt11char_traitsIcESaIcEEESaIS6_EEEbRKSt13move_iteratorIT_ESE_>:
   0:	f3 0f 1e fa          	endbr64 
   4:	55                   	push   %rbp
   5:	48 89 e5             	mov    %rsp,%rbp
   8:	48 83 ec 10          	sub    $0x10,%rsp
   c:	48 89 7d f8          	mov    %rdi,-0x8(%rbp)
  10:	48 89 75 f0          	mov    %rsi,-0x10(%rbp)
  14:	48 8b 55 f0          	mov    -0x10(%rbp),%rdx
  18:	48 8b 45 f8          	mov    -0x8(%rbp),%rax
  1c:	48 89 d6             	mov    %rdx,%rsi
  1f:	48 89 c7             	mov    %rax,%rdi
  22:	e8 00 00 00 00       	callq  27 <_ZStneIPSt6vectorINSt7__cxx1112basic_stringIcSt11char_traitsIcESaIcEEESaIS6_EEEbRKSt13move_iteratorIT_ESE_+0x27>
  27:	83 f0 01             	xor    $0x1,%eax
  2a:	c9                   	leaveq 
  2b:	c3                   	retq   

Disassembly of section .text._ZNSt13move_iteratorIPSt6vectorINSt7__cxx1112basic_stringIcSt11char_traitsIcESaIcEEESaIS6_EEEppEv:

0000000000000000 <_ZNSt13move_iteratorIPSt6vectorINSt7__cxx1112basic_stringIcSt11char_traitsIcESaIcEEESaIS6_EEEppEv>:
   0:	f3 0f 1e fa          	endbr64 
   4:	55                   	push   %rbp
   5:	48 89 e5             	mov    %rsp,%rbp
   8:	48 89 7d f8          	mov    %rdi,-0x8(%rbp)
   c:	48 8b 45 f8          	mov    -0x8(%rbp),%rax
  10:	48 8b 00             	mov    (%rax),%rax
  13:	48 8d 50 18          	lea    0x18(%rax),%rdx
  17:	48 8b 45 f8          	mov    -0x8(%rbp),%rax
  1b:	48 89 10             	mov    %rdx,(%rax)
  1e:	48 8b 45 f8          	mov    -0x8(%rbp),%rax
  22:	5d                   	pop    %rbp
  23:	c3                   	retq   

Disassembly of section .text._ZNKSt13move_iteratorIPSt6vectorINSt7__cxx1112basic_stringIcSt11char_traitsIcESaIcEEESaIS6_EEEdeEv:

0000000000000000 <_ZNKSt13move_iteratorIPSt6vectorINSt7__cxx1112basic_stringIcSt11char_traitsIcESaIcEEESaIS6_EEEdeEv>:
   0:	f3 0f 1e fa          	endbr64 
   4:	55                   	push   %rbp
   5:	48 89 e5             	mov    %rsp,%rbp
   8:	48 89 7d f8          	mov    %rdi,-0x8(%rbp)
   c:	48 8b 45 f8          	mov    -0x8(%rbp),%rax
  10:	48 8b 00             	mov    (%rax),%rax
  13:	5d                   	pop    %rbp
  14:	c3                   	retq   

Disassembly of section .text._ZNSt12_Vector_baseINSt7__cxx1112basic_stringIcSt11char_traitsIcESaIcEEESaIS5_EEC2EOS7_:

0000000000000000 <_ZNSt12_Vector_baseINSt7__cxx1112basic_stringIcSt11char_traitsIcESaIcEEESaIS5_EEC1EOS7_>:
   0:	f3 0f 1e fa          	endbr64 
   4:	55                   	push   %rbp
   5:	48 89 e5             	mov    %rsp,%rbp
   8:	48 83 ec 10          	sub    $0x10,%rsp
   c:	48 89 7d f8          	mov    %rdi,-0x8(%rbp)
  10:	48 89 75 f0          	mov    %rsi,-0x10(%rbp)
  14:	48 8b 45 f8          	mov    -0x8(%rbp),%rax
  18:	48 8b 55 f0          	mov    -0x10(%rbp),%rdx
  1c:	48 89 d6             	mov    %rdx,%rsi
  1f:	48 89 c7             	mov    %rax,%rdi
  22:	e8 00 00 00 00       	callq  27 <_ZNSt12_Vector_baseINSt7__cxx1112basic_stringIcSt11char_traitsIcESaIcEEESaIS5_EEC1EOS7_+0x27>
  27:	90                   	nop
  28:	c9                   	leaveq 
  29:	c3                   	retq   

Disassembly of section .text._ZNSt6vectorINSt7__cxx1112basic_stringIcSt11char_traitsIcESaIcEEESaIS5_EEC2EOS7_:

0000000000000000 <_ZNSt6vectorINSt7__cxx1112basic_stringIcSt11char_traitsIcESaIcEEESaIS5_EEC1EOS7_>:
   0:	f3 0f 1e fa          	endbr64 
   4:	55                   	push   %rbp
   5:	48 89 e5             	mov    %rsp,%rbp
   8:	48 83 ec 10          	sub    $0x10,%rsp
   c:	48 89 7d f8          	mov    %rdi,-0x8(%rbp)
  10:	48 89 75 f0          	mov    %rsi,-0x10(%rbp)
  14:	48 8b 45 f8          	mov    -0x8(%rbp),%rax
  18:	48 8b 55 f0          	mov    -0x10(%rbp),%rdx
  1c:	48 89 d6             	mov    %rdx,%rsi
  1f:	48 89 c7             	mov    %rax,%rdi
  22:	e8 00 00 00 00       	callq  27 <_ZNSt6vectorINSt7__cxx1112basic_stringIcSt11char_traitsIcESaIcEEESaIS5_EEC1EOS7_+0x27>
  27:	90                   	nop
  28:	c9                   	leaveq 
  29:	c3                   	retq   

Disassembly of section .text._ZSt10_ConstructISt6vectorINSt7__cxx1112basic_stringIcSt11char_traitsIcESaIcEEESaIS6_EEJS8_EEvPT_DpOT0_:

0000000000000000 <_ZSt10_ConstructISt6vectorINSt7__cxx1112basic_stringIcSt11char_traitsIcESaIcEEESaIS6_EEJS8_EEvPT_DpOT0_>:
   0:	f3 0f 1e fa          	endbr64 
   4:	55                   	push   %rbp
   5:	48 89 e5             	mov    %rsp,%rbp
   8:	53                   	push   %rbx
   9:	48 83 ec 18          	sub    $0x18,%rsp
   d:	48 89 7d e8          	mov    %rdi,-0x18(%rbp)
  11:	48 89 75 e0          	mov    %rsi,-0x20(%rbp)
  15:	48 8b 45 e0          	mov    -0x20(%rbp),%rax
  19:	48 89 c7             	mov    %rax,%rdi
  1c:	e8 00 00 00 00       	callq  21 <_ZSt10_ConstructISt6vectorINSt7__cxx1112basic_stringIcSt11char_traitsIcESaIcEEESaIS6_EEJS8_EEvPT_DpOT0_+0x21>
  21:	48 89 c3             	mov    %rax,%rbx
  24:	48 8b 45 e8          	mov    -0x18(%rbp),%rax
  28:	48 89 c6             	mov    %rax,%rsi
  2b:	bf 18 00 00 00       	mov    $0x18,%edi
  30:	e8 00 00 00 00       	callq  35 <_ZSt10_ConstructISt6vectorINSt7__cxx1112basic_stringIcSt11char_traitsIcESaIcEEESaIS6_EEJS8_EEvPT_DpOT0_+0x35>
  35:	48 89 de             	mov    %rbx,%rsi
  38:	48 89 c7             	mov    %rax,%rdi
  3b:	e8 00 00 00 00       	callq  40 <_ZSt10_ConstructISt6vectorINSt7__cxx1112basic_stringIcSt11char_traitsIcESaIcEEESaIS6_EEJS8_EEvPT_DpOT0_+0x40>
  40:	90                   	nop
  41:	48 83 c4 18          	add    $0x18,%rsp
  45:	5b                   	pop    %rbx
  46:	5d                   	pop    %rbp
  47:	c3                   	retq   

Disassembly of section .text._ZSt8__fill_aIhEN9__gnu_cxx11__enable_ifIXsrSt9__is_byteIT_E7__valueEvE6__typeEPS3_S7_RKS3_:

0000000000000000 <_ZSt8__fill_aIhEN9__gnu_cxx11__enable_ifIXsrSt9__is_byteIT_E7__valueEvE6__typeEPS3_S7_RKS3_>:
   0:	f3 0f 1e fa          	endbr64 
   4:	55                   	push   %rbp
   5:	48 89 e5             	mov    %rsp,%rbp
   8:	48 83 ec 30          	sub    $0x30,%rsp
   c:	48 89 7d e8          	mov    %rdi,-0x18(%rbp)
  10:	48 89 75 e0          	mov    %rsi,-0x20(%rbp)
  14:	48 89 55 d8          	mov    %rdx,-0x28(%rbp)
  18:	48 8b 45 d8          	mov    -0x28(%rbp),%rax
  1c:	0f b6 00             	movzbl (%rax),%eax
  1f:	88 45 f7             	mov    %al,-0x9(%rbp)
  22:	48 8b 45 e0          	mov    -0x20(%rbp),%rax
  26:	48 2b 45 e8          	sub    -0x18(%rbp),%rax
  2a:	48 89 45 f8          	mov    %rax,-0x8(%rbp)
  2e:	48 83 7d f8 00       	cmpq   $0x0,-0x8(%rbp)
  33:	74 16                	je     4b <_ZSt8__fill_aIhEN9__gnu_cxx11__enable_ifIXsrSt9__is_byteIT_E7__valueEvE6__typeEPS3_S7_RKS3_+0x4b>
  35:	0f b6 4d f7          	movzbl -0x9(%rbp),%ecx
  39:	48 8b 55 f8          	mov    -0x8(%rbp),%rdx
  3d:	48 8b 45 e8          	mov    -0x18(%rbp),%rax
  41:	89 ce                	mov    %ecx,%esi
  43:	48 89 c7             	mov    %rax,%rdi
  46:	e8 00 00 00 00       	callq  4b <_ZSt8__fill_aIhEN9__gnu_cxx11__enable_ifIXsrSt9__is_byteIT_E7__valueEvE6__typeEPS3_S7_RKS3_+0x4b>
  4b:	90                   	nop
  4c:	c9                   	leaveq 
  4d:	c3                   	retq   

Disassembly of section .text._ZSt12__miter_baseIPhEDTcl12__miter_basecldtfp_4baseEEESt13move_iteratorIT_E:

0000000000000000 <_ZSt12__miter_baseIPhEDTcl12__miter_basecldtfp_4baseEEESt13move_iteratorIT_E>:
   0:	f3 0f 1e fa          	endbr64 
   4:	55                   	push   %rbp
   5:	48 89 e5             	mov    %rsp,%rbp
   8:	48 83 ec 10          	sub    $0x10,%rsp
   c:	48 89 7d f8          	mov    %rdi,-0x8(%rbp)
  10:	48 8d 45 f8          	lea    -0x8(%rbp),%rax
  14:	48 89 c7             	mov    %rax,%rdi
  17:	e8 00 00 00 00       	callq  1c <_ZSt12__miter_baseIPhEDTcl12__miter_basecldtfp_4baseEEESt13move_iteratorIT_E+0x1c>
  1c:	48 89 c7             	mov    %rax,%rdi
  1f:	e8 00 00 00 00       	callq  24 <_ZSt12__miter_baseIPhEDTcl12__miter_basecldtfp_4baseEEESt13move_iteratorIT_E+0x24>
  24:	c9                   	leaveq 
  25:	c3                   	retq   

Disassembly of section .text._ZSt14__copy_move_a2ILb1EPhS0_ET1_T0_S2_S1_:

0000000000000000 <_ZSt14__copy_move_a2ILb1EPhS0_ET1_T0_S2_S1_>:
   0:	f3 0f 1e fa          	endbr64 
   4:	55                   	push   %rbp
   5:	48 89 e5             	mov    %rsp,%rbp
   8:	41 54                	push   %r12
   a:	53                   	push   %rbx
   b:	48 83 ec 20          	sub    $0x20,%rsp
   f:	48 89 7d e8          	mov    %rdi,-0x18(%rbp)
  13:	48 89 75 e0          	mov    %rsi,-0x20(%rbp)
  17:	48 89 55 d8          	mov    %rdx,-0x28(%rbp)
  1b:	48 8b 45 d8          	mov    -0x28(%rbp),%rax
  1f:	48 89 c7             	mov    %rax,%rdi
  22:	e8 00 00 00 00       	callq  27 <_ZSt14__copy_move_a2ILb1EPhS0_ET1_T0_S2_S1_+0x27>
  27:	49 89 c4             	mov    %rax,%r12
  2a:	48 8b 45 e0          	mov    -0x20(%rbp),%rax
  2e:	48 89 c7             	mov    %rax,%rdi
  31:	e8 00 00 00 00       	callq  36 <_ZSt14__copy_move_a2ILb1EPhS0_ET1_T0_S2_S1_+0x36>
  36:	48 89 c3             	mov    %rax,%rbx
  39:	48 8b 45 e8          	mov    -0x18(%rbp),%rax
  3d:	48 89 c7             	mov    %rax,%rdi
  40:	e8 00 00 00 00       	callq  45 <_ZSt14__copy_move_a2ILb1EPhS0_ET1_T0_S2_S1_+0x45>
  45:	4c 89 e2             	mov    %r12,%rdx
  48:	48 89 de             	mov    %rbx,%rsi
  4b:	48 89 c7             	mov    %rax,%rdi
  4e:	e8 00 00 00 00       	callq  53 <_ZSt14__copy_move_a2ILb1EPhS0_ET1_T0_S2_S1_+0x53>
  53:	48 89 c2             	mov    %rax,%rdx
  56:	48 8d 45 d8          	lea    -0x28(%rbp),%rax
  5a:	48 89 d6             	mov    %rdx,%rsi
  5d:	48 89 c7             	mov    %rax,%rdi
  60:	e8 00 00 00 00       	callq  65 <_ZSt14__copy_move_a2ILb1EPhS0_ET1_T0_S2_S1_+0x65>
  65:	48 83 c4 20          	add    $0x20,%rsp
  69:	5b                   	pop    %rbx
  6a:	41 5c                	pop    %r12
  6c:	5d                   	pop    %rbp
  6d:	c3                   	retq   

Disassembly of section .text._ZN9__gnu_cxx17__is_null_pointerINS_17__normal_iteratorIPhSt6vectorIhSaIhEEEEEEbT_:

0000000000000000 <_ZN9__gnu_cxx17__is_null_pointerINS_17__normal_iteratorIPhSt6vectorIhSaIhEEEEEEbT_>:
   0:	f3 0f 1e fa          	endbr64 
   4:	55                   	push   %rbp
   5:	48 89 e5             	mov    %rsp,%rbp
   8:	48 89 7d f8          	mov    %rdi,-0x8(%rbp)
   c:	b8 00 00 00 00       	mov    $0x0,%eax
  11:	5d                   	pop    %rbp
  12:	c3                   	retq   

Disassembly of section .text._ZNSt7__cxx1112basic_stringIcSt11char_traitsIcESaIcEE13_S_copy_charsIN9__gnu_cxx17__normal_iteratorIPhSt6vectorIhSaIhEEEEEEvPcT_SE_:

0000000000000000 <_ZNSt7__cxx1112basic_stringIcSt11char_traitsIcESaIcEE13_S_copy_charsIN9__gnu_cxx17__normal_iteratorIPhSt6vectorIhSaIhEEEEEEvPcT_SE_>:
   0:	f3 0f 1e fa          	endbr64 
   4:	55                   	push   %rbp
   5:	48 89 e5             	mov    %rsp,%rbp
   8:	48 83 ec 30          	sub    $0x30,%rsp
   c:	48 89 7d e8          	mov    %rdi,-0x18(%rbp)
  10:	48 89 75 e0          	mov    %rsi,-0x20(%rbp)
  14:	48 89 55 d8          	mov    %rdx,-0x28(%rbp)
  18:	64 48 8b 04 25 28 00 	mov    %fs:0x28,%rax
  1f:	00 00 
  21:	48 89 45 f8          	mov    %rax,-0x8(%rbp)
  25:	31 c0                	xor    %eax,%eax
  27:	48 8d 55 d8          	lea    -0x28(%rbp),%rdx
  2b:	48 8d 45 e0          	lea    -0x20(%rbp),%rax
  2f:	48 89 d6             	mov    %rdx,%rsi
  32:	48 89 c7             	mov    %rax,%rdi
  35:	e8 00 00 00 00       	callq  3a <_ZNSt7__cxx1112basic_stringIcSt11char_traitsIcESaIcEE13_S_copy_charsIN9__gnu_cxx17__normal_iteratorIPhSt6vectorIhSaIhEEEEEEvPcT_SE_+0x3a>
  3a:	84 c0                	test   %al,%al
  3c:	74 38                	je     76 <_ZNSt7__cxx1112basic_stringIcSt11char_traitsIcESaIcEE13_S_copy_charsIN9__gnu_cxx17__normal_iteratorIPhSt6vectorIhSaIhEEEEEEvPcT_SE_+0x76>
  3e:	48 8d 45 e0          	lea    -0x20(%rbp),%rax
  42:	48 89 c7             	mov    %rax,%rdi
  45:	e8 00 00 00 00       	callq  4a <_ZNSt7__cxx1112basic_stringIcSt11char_traitsIcESaIcEE13_S_copy_charsIN9__gnu_cxx17__normal_iteratorIPhSt6vectorIhSaIhEEEEEEvPcT_SE_+0x4a>
  4a:	0f b6 00             	movzbl (%rax),%eax
  4d:	88 45 f7             	mov    %al,-0x9(%rbp)
  50:	48 8d 55 f7          	lea    -0x9(%rbp),%rdx
  54:	48 8b 45 e8          	mov    -0x18(%rbp),%rax
  58:	48 89 d6             	mov    %rdx,%rsi
  5b:	48 89 c7             	mov    %rax,%rdi
  5e:	e8 00 00 00 00       	callq  63 <_ZNSt7__cxx1112basic_stringIcSt11char_traitsIcESaIcEE13_S_copy_charsIN9__gnu_cxx17__normal_iteratorIPhSt6vectorIhSaIhEEEEEEvPcT_SE_+0x63>
  63:	48 8d 45 e0          	lea    -0x20(%rbp),%rax
  67:	48 89 c7             	mov    %rax,%rdi
  6a:	e8 00 00 00 00       	callq  6f <_ZNSt7__cxx1112basic_stringIcSt11char_traitsIcESaIcEE13_S_copy_charsIN9__gnu_cxx17__normal_iteratorIPhSt6vectorIhSaIhEEEEEEvPcT_SE_+0x6f>
  6f:	48 83 45 e8 01       	addq   $0x1,-0x18(%rbp)
  74:	eb b1                	jmp    27 <_ZNSt7__cxx1112basic_stringIcSt11char_traitsIcESaIcEE13_S_copy_charsIN9__gnu_cxx17__normal_iteratorIPhSt6vectorIhSaIhEEEEEEvPcT_SE_+0x27>
  76:	90                   	nop
  77:	48 8b 45 f8          	mov    -0x8(%rbp),%rax
  7b:	64 48 33 04 25 28 00 	xor    %fs:0x28,%rax
  82:	00 00 
  84:	74 05                	je     8b <_ZNSt7__cxx1112basic_stringIcSt11char_traitsIcESaIcEE13_S_copy_charsIN9__gnu_cxx17__normal_iteratorIPhSt6vectorIhSaIhEEEEEEvPcT_SE_+0x8b>
  86:	e8 00 00 00 00       	callq  8b <_ZNSt7__cxx1112basic_stringIcSt11char_traitsIcESaIcEE13_S_copy_charsIN9__gnu_cxx17__normal_iteratorIPhSt6vectorIhSaIhEEEEEEvPcT_SE_+0x8b>
  8b:	c9                   	leaveq 
  8c:	c3                   	retq   

Disassembly of section .text._ZSt14__copy_move_a2ILb0EN9__gnu_cxx17__normal_iteratorIPhSt6vectorIhSaIhEEEES2_ET1_T0_S8_S7_:

0000000000000000 <_ZSt14__copy_move_a2ILb0EN9__gnu_cxx17__normal_iteratorIPhSt6vectorIhSaIhEEEES2_ET1_T0_S8_S7_>:
   0:	f3 0f 1e fa          	endbr64 
   4:	55                   	push   %rbp
   5:	48 89 e5             	mov    %rsp,%rbp
   8:	41 54                	push   %r12
   a:	53                   	push   %rbx
   b:	48 83 ec 20          	sub    $0x20,%rsp
   f:	48 89 7d e8          	mov    %rdi,-0x18(%rbp)
  13:	48 89 75 e0          	mov    %rsi,-0x20(%rbp)
  17:	48 89 55 d8          	mov    %rdx,-0x28(%rbp)
  1b:	48 8b 45 d8          	mov    -0x28(%rbp),%rax
  1f:	48 89 c7             	mov    %rax,%rdi
  22:	e8 00 00 00 00       	callq  27 <_ZSt14__copy_move_a2ILb0EN9__gnu_cxx17__normal_iteratorIPhSt6vectorIhSaIhEEEES2_ET1_T0_S8_S7_+0x27>
  27:	49 89 c4             	mov    %rax,%r12
  2a:	48 8b 45 e0          	mov    -0x20(%rbp),%rax
  2e:	48 89 c7             	mov    %rax,%rdi
  31:	e8 00 00 00 00       	callq  36 <_ZSt14__copy_move_a2ILb0EN9__gnu_cxx17__normal_iteratorIPhSt6vectorIhSaIhEEEES2_ET1_T0_S8_S7_+0x36>
  36:	48 89 c3             	mov    %rax,%rbx
  39:	48 8b 45 e8          	mov    -0x18(%rbp),%rax
  3d:	48 89 c7             	mov    %rax,%rdi
  40:	e8 00 00 00 00       	callq  45 <_ZSt14__copy_move_a2ILb0EN9__gnu_cxx17__normal_iteratorIPhSt6vectorIhSaIhEEEES2_ET1_T0_S8_S7_+0x45>
  45:	4c 89 e2             	mov    %r12,%rdx
  48:	48 89 de             	mov    %rbx,%rsi
  4b:	48 89 c7             	mov    %rax,%rdi
  4e:	e8 00 00 00 00       	callq  53 <_ZSt14__copy_move_a2ILb0EN9__gnu_cxx17__normal_iteratorIPhSt6vectorIhSaIhEEEES2_ET1_T0_S8_S7_+0x53>
  53:	48 89 c2             	mov    %rax,%rdx
  56:	48 8d 45 d8          	lea    -0x28(%rbp),%rax
  5a:	48 89 d6             	mov    %rdx,%rsi
  5d:	48 89 c7             	mov    %rax,%rdi
  60:	e8 00 00 00 00       	callq  65 <_ZSt14__copy_move_a2ILb0EN9__gnu_cxx17__normal_iteratorIPhSt6vectorIhSaIhEEEES2_ET1_T0_S8_S7_+0x65>
  65:	48 83 c4 20          	add    $0x20,%rsp
  69:	5b                   	pop    %rbx
  6a:	41 5c                	pop    %r12
  6c:	5d                   	pop    %rbp
  6d:	c3                   	retq   

Disassembly of section .text._ZSteqIPNSt7__cxx1112basic_stringIcSt11char_traitsIcESaIcEEEEbRKSt13move_iteratorIT_ESB_:

0000000000000000 <_ZSteqIPNSt7__cxx1112basic_stringIcSt11char_traitsIcESaIcEEEEbRKSt13move_iteratorIT_ESB_>:
   0:	f3 0f 1e fa          	endbr64 
   4:	55                   	push   %rbp
   5:	48 89 e5             	mov    %rsp,%rbp
   8:	53                   	push   %rbx
   9:	48 83 ec 18          	sub    $0x18,%rsp
   d:	48 89 7d e8          	mov    %rdi,-0x18(%rbp)
  11:	48 89 75 e0          	mov    %rsi,-0x20(%rbp)
  15:	48 8b 45 e8          	mov    -0x18(%rbp),%rax
  19:	48 89 c7             	mov    %rax,%rdi
  1c:	e8 00 00 00 00       	callq  21 <_ZSteqIPNSt7__cxx1112basic_stringIcSt11char_traitsIcESaIcEEEEbRKSt13move_iteratorIT_ESB_+0x21>
  21:	48 89 c3             	mov    %rax,%rbx
  24:	48 8b 45 e0          	mov    -0x20(%rbp),%rax
  28:	48 89 c7             	mov    %rax,%rdi
  2b:	e8 00 00 00 00       	callq  30 <_ZSteqIPNSt7__cxx1112basic_stringIcSt11char_traitsIcESaIcEEEEbRKSt13move_iteratorIT_ESB_+0x30>
  30:	48 39 c3             	cmp    %rax,%rbx
  33:	0f 94 c0             	sete   %al
  36:	48 83 c4 18          	add    $0x18,%rsp
  3a:	5b                   	pop    %rbx
  3b:	5d                   	pop    %rbp
  3c:	c3                   	retq   

Disassembly of section .text._ZN9__gnu_cxxneIPKNSt7__cxx1112basic_stringIcSt11char_traitsIcESaIcEEESt6vectorIS6_SaIS6_EEEEbRKNS_17__normal_iteratorIT_T0_EESH_:

0000000000000000 <_ZN9__gnu_cxxneIPKNSt7__cxx1112basic_stringIcSt11char_traitsIcESaIcEEESt6vectorIS6_SaIS6_EEEEbRKNS_17__normal_iteratorIT_T0_EESH_>:
   0:	f3 0f 1e fa          	endbr64 
   4:	55                   	push   %rbp
   5:	48 89 e5             	mov    %rsp,%rbp
   8:	53                   	push   %rbx
   9:	48 83 ec 18          	sub    $0x18,%rsp
   d:	48 89 7d e8          	mov    %rdi,-0x18(%rbp)
  11:	48 89 75 e0          	mov    %rsi,-0x20(%rbp)
  15:	48 8b 45 e8          	mov    -0x18(%rbp),%rax
  19:	48 89 c7             	mov    %rax,%rdi
  1c:	e8 00 00 00 00       	callq  21 <_ZN9__gnu_cxxneIPKNSt7__cxx1112basic_stringIcSt11char_traitsIcESaIcEEESt6vectorIS6_SaIS6_EEEEbRKNS_17__normal_iteratorIT_T0_EESH_+0x21>
  21:	48 8b 18             	mov    (%rax),%rbx
  24:	48 8b 45 e0          	mov    -0x20(%rbp),%rax
  28:	48 89 c7             	mov    %rax,%rdi
  2b:	e8 00 00 00 00       	callq  30 <_ZN9__gnu_cxxneIPKNSt7__cxx1112basic_stringIcSt11char_traitsIcESaIcEEESt6vectorIS6_SaIS6_EEEEbRKNS_17__normal_iteratorIT_T0_EESH_+0x30>
  30:	48 8b 00             	mov    (%rax),%rax
  33:	48 39 c3             	cmp    %rax,%rbx
  36:	0f 95 c0             	setne  %al
  39:	48 83 c4 18          	add    $0x18,%rsp
  3d:	5b                   	pop    %rbx
  3e:	5d                   	pop    %rbp
  3f:	c3                   	retq   

Disassembly of section .text._ZN9__gnu_cxx17__normal_iteratorIPKNSt7__cxx1112basic_stringIcSt11char_traitsIcESaIcEEESt6vectorIS6_SaIS6_EEEppEv:

0000000000000000 <_ZN9__gnu_cxx17__normal_iteratorIPKNSt7__cxx1112basic_stringIcSt11char_traitsIcESaIcEEESt6vectorIS6_SaIS6_EEEppEv>:
   0:	f3 0f 1e fa          	endbr64 
   4:	55                   	push   %rbp
   5:	48 89 e5             	mov    %rsp,%rbp
   8:	48 89 7d f8          	mov    %rdi,-0x8(%rbp)
   c:	48 8b 45 f8          	mov    -0x8(%rbp),%rax
  10:	48 8b 00             	mov    (%rax),%rax
  13:	48 8d 50 20          	lea    0x20(%rax),%rdx
  17:	48 8b 45 f8          	mov    -0x8(%rbp),%rax
  1b:	48 89 10             	mov    %rdx,(%rax)
  1e:	48 8b 45 f8          	mov    -0x8(%rbp),%rax
  22:	5d                   	pop    %rbp
  23:	c3                   	retq   

Disassembly of section .text._ZNK9__gnu_cxx17__normal_iteratorIPKNSt7__cxx1112basic_stringIcSt11char_traitsIcESaIcEEESt6vectorIS6_SaIS6_EEEdeEv:

0000000000000000 <_ZNK9__gnu_cxx17__normal_iteratorIPKNSt7__cxx1112basic_stringIcSt11char_traitsIcESaIcEEESt6vectorIS6_SaIS6_EEEdeEv>:
   0:	f3 0f 1e fa          	endbr64 
   4:	55                   	push   %rbp
   5:	48 89 e5             	mov    %rsp,%rbp
   8:	48 89 7d f8          	mov    %rdi,-0x8(%rbp)
   c:	48 8b 45 f8          	mov    -0x8(%rbp),%rax
  10:	48 8b 00             	mov    (%rax),%rax
  13:	5d                   	pop    %rbp
  14:	c3                   	retq   

Disassembly of section .text._ZSt10_ConstructINSt7__cxx1112basic_stringIcSt11char_traitsIcESaIcEEEJRKS5_EEvPT_DpOT0_:

0000000000000000 <_ZSt10_ConstructINSt7__cxx1112basic_stringIcSt11char_traitsIcESaIcEEEJRKS5_EEvPT_DpOT0_>:
   0:	f3 0f 1e fa          	endbr64 
   4:	55                   	push   %rbp
   5:	48 89 e5             	mov    %rsp,%rbp
   8:	41 55                	push   %r13
   a:	41 54                	push   %r12
   c:	53                   	push   %rbx
   d:	48 83 ec 18          	sub    $0x18,%rsp
  11:	48 89 7d d8          	mov    %rdi,-0x28(%rbp)
  15:	48 89 75 d0          	mov    %rsi,-0x30(%rbp)
  19:	48 8b 45 d0          	mov    -0x30(%rbp),%rax
  1d:	48 89 c7             	mov    %rax,%rdi
  20:	e8 00 00 00 00       	callq  25 <_ZSt10_ConstructINSt7__cxx1112basic_stringIcSt11char_traitsIcESaIcEEEJRKS5_EEvPT_DpOT0_+0x25>
  25:	49 89 c5             	mov    %rax,%r13
  28:	48 8b 5d d8          	mov    -0x28(%rbp),%rbx
  2c:	48 89 de             	mov    %rbx,%rsi
  2f:	bf 20 00 00 00       	mov    $0x20,%edi
  34:	e8 00 00 00 00       	callq  39 <_ZSt10_ConstructINSt7__cxx1112basic_stringIcSt11char_traitsIcESaIcEEEJRKS5_EEvPT_DpOT0_+0x39>
  39:	49 89 c4             	mov    %rax,%r12
  3c:	4c 89 ee             	mov    %r13,%rsi
  3f:	4c 89 e7             	mov    %r12,%rdi
  42:	e8 00 00 00 00       	callq  47 <_ZSt10_ConstructINSt7__cxx1112basic_stringIcSt11char_traitsIcESaIcEEEJRKS5_EEvPT_DpOT0_+0x47>
  47:	eb 1d                	jmp    66 <_ZSt10_ConstructINSt7__cxx1112basic_stringIcSt11char_traitsIcESaIcEEEJRKS5_EEvPT_DpOT0_+0x66>
  49:	f3 0f 1e fa          	endbr64 
  4d:	49 89 c5             	mov    %rax,%r13
  50:	48 89 de             	mov    %rbx,%rsi
  53:	4c 89 e7             	mov    %r12,%rdi
  56:	e8 00 00 00 00       	callq  5b <_ZSt10_ConstructINSt7__cxx1112basic_stringIcSt11char_traitsIcESaIcEEEJRKS5_EEvPT_DpOT0_+0x5b>
  5b:	4c 89 e8             	mov    %r13,%rax
  5e:	48 89 c7             	mov    %rax,%rdi
  61:	e8 00 00 00 00       	callq  66 <_ZSt10_ConstructINSt7__cxx1112basic_stringIcSt11char_traitsIcESaIcEEEJRKS5_EEvPT_DpOT0_+0x66>
  66:	48 83 c4 18          	add    $0x18,%rsp
  6a:	5b                   	pop    %rbx
  6b:	41 5c                	pop    %r12
  6d:	41 5d                	pop    %r13
  6f:	5d                   	pop    %rbp
  70:	c3                   	retq   

Disassembly of section .text._ZSt4moveIRSt6vectorINSt7__cxx1112basic_stringIcSt11char_traitsIcESaIcEEESaIS6_EEEONSt16remove_referenceIT_E4typeEOSB_:

0000000000000000 <_ZSt4moveIRSt6vectorINSt7__cxx1112basic_stringIcSt11char_traitsIcESaIcEEESaIS6_EEEONSt16remove_referenceIT_E4typeEOSB_>:
   0:	f3 0f 1e fa          	endbr64 
   4:	55                   	push   %rbp
   5:	48 89 e5             	mov    %rsp,%rbp
   8:	48 89 7d f8          	mov    %rdi,-0x8(%rbp)
   c:	48 8b 45 f8          	mov    -0x8(%rbp),%rax
  10:	5d                   	pop    %rbp
  11:	c3                   	retq   

Disassembly of section .text._ZNSt16allocator_traitsISaISt6vectorINSt7__cxx1112basic_stringIcSt11char_traitsIcESaIcEEESaIS6_EEEE9constructIS8_JS8_EEEvRS9_PT_DpOT0_:

0000000000000000 <_ZNSt16allocator_traitsISaISt6vectorINSt7__cxx1112basic_stringIcSt11char_traitsIcESaIcEEESaIS6_EEEE9constructIS8_JS8_EEEvRS9_PT_DpOT0_>:
   0:	f3 0f 1e fa          	endbr64 
   4:	55                   	push   %rbp
   5:	48 89 e5             	mov    %rsp,%rbp
   8:	48 83 ec 20          	sub    $0x20,%rsp
   c:	48 89 7d f8          	mov    %rdi,-0x8(%rbp)
  10:	48 89 75 f0          	mov    %rsi,-0x10(%rbp)
  14:	48 89 55 e8          	mov    %rdx,-0x18(%rbp)
  18:	48 8b 45 e8          	mov    -0x18(%rbp),%rax
  1c:	48 89 c7             	mov    %rax,%rdi
  1f:	e8 00 00 00 00       	callq  24 <_ZNSt16allocator_traitsISaISt6vectorINSt7__cxx1112basic_stringIcSt11char_traitsIcESaIcEEESaIS6_EEEE9constructIS8_JS8_EEEvRS9_PT_DpOT0_+0x24>
  24:	48 89 c2             	mov    %rax,%rdx
  27:	48 8b 4d f0          	mov    -0x10(%rbp),%rcx
  2b:	48 8b 45 f8          	mov    -0x8(%rbp),%rax
  2f:	48 89 ce             	mov    %rcx,%rsi
  32:	48 89 c7             	mov    %rax,%rdi
  35:	e8 00 00 00 00       	callq  3a <_ZNSt16allocator_traitsISaISt6vectorINSt7__cxx1112basic_stringIcSt11char_traitsIcESaIcEEESaIS6_EEEE9constructIS8_JS8_EEEvRS9_PT_DpOT0_+0x3a>
  3a:	90                   	nop
  3b:	c9                   	leaveq 
  3c:	c3                   	retq   

Disassembly of section .text._ZSteqIPSt6vectorINSt7__cxx1112basic_stringIcSt11char_traitsIcESaIcEEESaIS6_EEEbRKSt13move_iteratorIT_ESE_:

0000000000000000 <_ZSteqIPSt6vectorINSt7__cxx1112basic_stringIcSt11char_traitsIcESaIcEEESaIS6_EEEbRKSt13move_iteratorIT_ESE_>:
   0:	f3 0f 1e fa          	endbr64 
   4:	55                   	push   %rbp
   5:	48 89 e5             	mov    %rsp,%rbp
   8:	53                   	push   %rbx
   9:	48 83 ec 18          	sub    $0x18,%rsp
   d:	48 89 7d e8          	mov    %rdi,-0x18(%rbp)
  11:	48 89 75 e0          	mov    %rsi,-0x20(%rbp)
  15:	48 8b 45 e8          	mov    -0x18(%rbp),%rax
  19:	48 89 c7             	mov    %rax,%rdi
  1c:	e8 00 00 00 00       	callq  21 <_ZSteqIPSt6vectorINSt7__cxx1112basic_stringIcSt11char_traitsIcESaIcEEESaIS6_EEEbRKSt13move_iteratorIT_ESE_+0x21>
  21:	48 89 c3             	mov    %rax,%rbx
  24:	48 8b 45 e0          	mov    -0x20(%rbp),%rax
  28:	48 89 c7             	mov    %rax,%rdi
  2b:	e8 00 00 00 00       	callq  30 <_ZSteqIPSt6vectorINSt7__cxx1112basic_stringIcSt11char_traitsIcESaIcEEESaIS6_EEEbRKSt13move_iteratorIT_ESE_+0x30>
  30:	48 39 c3             	cmp    %rax,%rbx
  33:	0f 94 c0             	sete   %al
  36:	48 83 c4 18          	add    $0x18,%rsp
  3a:	5b                   	pop    %rbx
  3b:	5d                   	pop    %rbp
  3c:	c3                   	retq   

Disassembly of section .text._ZSt7forwardISt6vectorINSt7__cxx1112basic_stringIcSt11char_traitsIcESaIcEEESaIS6_EEEOT_RNSt16remove_referenceIS9_E4typeE:

0000000000000000 <_ZSt7forwardISt6vectorINSt7__cxx1112basic_stringIcSt11char_traitsIcESaIcEEESaIS6_EEEOT_RNSt16remove_referenceIS9_E4typeE>:
   0:	f3 0f 1e fa          	endbr64 
   4:	55                   	push   %rbp
   5:	48 89 e5             	mov    %rsp,%rbp
   8:	48 89 7d f8          	mov    %rdi,-0x8(%rbp)
   c:	48 8b 45 f8          	mov    -0x8(%rbp),%rax
  10:	5d                   	pop    %rbp
  11:	c3                   	retq   

Disassembly of section .text._ZNSt12_Vector_baseINSt7__cxx1112basic_stringIcSt11char_traitsIcESaIcEEESaIS5_EE12_Vector_implC2EOS8_:

0000000000000000 <_ZNSt12_Vector_baseINSt7__cxx1112basic_stringIcSt11char_traitsIcESaIcEEESaIS5_EE12_Vector_implC1EOS8_>:
   0:	f3 0f 1e fa          	endbr64 
   4:	55                   	push   %rbp
   5:	48 89 e5             	mov    %rsp,%rbp
   8:	53                   	push   %rbx
   9:	48 83 ec 18          	sub    $0x18,%rsp
   d:	48 89 7d e8          	mov    %rdi,-0x18(%rbp)
  11:	48 89 75 e0          	mov    %rsi,-0x20(%rbp)
  15:	48 8b 45 e0          	mov    -0x20(%rbp),%rax
  19:	48 89 c7             	mov    %rax,%rdi
  1c:	e8 00 00 00 00       	callq  21 <_ZNSt12_Vector_baseINSt7__cxx1112basic_stringIcSt11char_traitsIcESaIcEEESaIS5_EE12_Vector_implC1EOS8_+0x21>
  21:	48 89 c2             	mov    %rax,%rdx
  24:	48 8b 45 e8          	mov    -0x18(%rbp),%rax
  28:	48 89 d6             	mov    %rdx,%rsi
  2b:	48 89 c7             	mov    %rax,%rdi
  2e:	e8 00 00 00 00       	callq  33 <_ZNSt12_Vector_baseINSt7__cxx1112basic_stringIcSt11char_traitsIcESaIcEEESaIS5_EE12_Vector_implC1EOS8_+0x33>
  33:	48 8b 5d e8          	mov    -0x18(%rbp),%rbx
  37:	48 8b 45 e0          	mov    -0x20(%rbp),%rax
  3b:	48 89 c7             	mov    %rax,%rdi
  3e:	e8 00 00 00 00       	callq  43 <_ZNSt12_Vector_baseINSt7__cxx1112basic_stringIcSt11char_traitsIcESaIcEEESaIS5_EE12_Vector_implC1EOS8_+0x43>
  43:	48 89 c6             	mov    %rax,%rsi
  46:	48 89 df             	mov    %rbx,%rdi
  49:	e8 00 00 00 00       	callq  4e <_ZNSt12_Vector_baseINSt7__cxx1112basic_stringIcSt11char_traitsIcESaIcEEESaIS5_EE12_Vector_implC1EOS8_+0x4e>
  4e:	90                   	nop
  4f:	48 83 c4 18          	add    $0x18,%rsp
  53:	5b                   	pop    %rbx
  54:	5d                   	pop    %rbp
  55:	c3                   	retq   

Disassembly of section .text._ZNKSt13move_iteratorIPhE4baseEv:

0000000000000000 <_ZNKSt13move_iteratorIPhE4baseEv>:
   0:	f3 0f 1e fa          	endbr64 
   4:	55                   	push   %rbp
   5:	48 89 e5             	mov    %rsp,%rbp
   8:	48 89 7d f8          	mov    %rdi,-0x8(%rbp)
   c:	48 8b 45 f8          	mov    -0x8(%rbp),%rax
  10:	48 8b 00             	mov    (%rax),%rax
  13:	5d                   	pop    %rbp
  14:	c3                   	retq   

Disassembly of section .text._ZNKSt13move_iteratorIPNSt7__cxx1112basic_stringIcSt11char_traitsIcESaIcEEEE4baseEv:

0000000000000000 <_ZNKSt13move_iteratorIPNSt7__cxx1112basic_stringIcSt11char_traitsIcESaIcEEEE4baseEv>:
   0:	f3 0f 1e fa          	endbr64 
   4:	55                   	push   %rbp
   5:	48 89 e5             	mov    %rsp,%rbp
   8:	48 89 7d f8          	mov    %rdi,-0x8(%rbp)
   c:	48 8b 45 f8          	mov    -0x8(%rbp),%rax
  10:	48 8b 00             	mov    (%rax),%rax
  13:	5d                   	pop    %rbp
  14:	c3                   	retq   

Disassembly of section .text._ZN9__gnu_cxx13new_allocatorISt6vectorINSt7__cxx1112basic_stringIcSt11char_traitsIcESaIcEEESaIS7_EEE9constructIS9_JS9_EEEvPT_DpOT0_:

0000000000000000 <_ZN9__gnu_cxx13new_allocatorISt6vectorINSt7__cxx1112basic_stringIcSt11char_traitsIcESaIcEEESaIS7_EEE9constructIS9_JS9_EEEvPT_DpOT0_>:
   0:	f3 0f 1e fa          	endbr64 
   4:	55                   	push   %rbp
   5:	48 89 e5             	mov    %rsp,%rbp
   8:	53                   	push   %rbx
   9:	48 83 ec 28          	sub    $0x28,%rsp
   d:	48 89 7d e8          	mov    %rdi,-0x18(%rbp)
  11:	48 89 75 e0          	mov    %rsi,-0x20(%rbp)
  15:	48 89 55 d8          	mov    %rdx,-0x28(%rbp)
  19:	48 8b 45 d8          	mov    -0x28(%rbp),%rax
  1d:	48 89 c7             	mov    %rax,%rdi
  20:	e8 00 00 00 00       	callq  25 <_ZN9__gnu_cxx13new_allocatorISt6vectorINSt7__cxx1112basic_stringIcSt11char_traitsIcESaIcEEESaIS7_EEE9constructIS9_JS9_EEEvPT_DpOT0_+0x25>
  25:	48 89 c3             	mov    %rax,%rbx
  28:	48 8b 45 e0          	mov    -0x20(%rbp),%rax
  2c:	48 89 c6             	mov    %rax,%rsi
  2f:	bf 18 00 00 00       	mov    $0x18,%edi
  34:	e8 00 00 00 00       	callq  39 <_ZN9__gnu_cxx13new_allocatorISt6vectorINSt7__cxx1112basic_stringIcSt11char_traitsIcESaIcEEESaIS7_EEE9constructIS9_JS9_EEEvPT_DpOT0_+0x39>
  39:	48 89 de             	mov    %rbx,%rsi
  3c:	48 89 c7             	mov    %rax,%rdi
  3f:	e8 00 00 00 00       	callq  44 <_ZN9__gnu_cxx13new_allocatorISt6vectorINSt7__cxx1112basic_stringIcSt11char_traitsIcESaIcEEESaIS7_EEE9constructIS9_JS9_EEEvPT_DpOT0_+0x44>
  44:	90                   	nop
  45:	48 83 c4 28          	add    $0x28,%rsp
  49:	5b                   	pop    %rbx
  4a:	5d                   	pop    %rbp
  4b:	c3                   	retq   

Disassembly of section .text._ZNKSt13move_iteratorIPSt6vectorINSt7__cxx1112basic_stringIcSt11char_traitsIcESaIcEEESaIS6_EEE4baseEv:

0000000000000000 <_ZNKSt13move_iteratorIPSt6vectorINSt7__cxx1112basic_stringIcSt11char_traitsIcESaIcEEESaIS6_EEE4baseEv>:
   0:	f3 0f 1e fa          	endbr64 
   4:	55                   	push   %rbp
   5:	48 89 e5             	mov    %rsp,%rbp
   8:	48 89 7d f8          	mov    %rdi,-0x8(%rbp)
   c:	48 8b 45 f8          	mov    -0x8(%rbp),%rax
  10:	48 8b 00             	mov    (%rax),%rax
  13:	5d                   	pop    %rbp
  14:	c3                   	retq   

Disassembly of section .text._ZSt4moveIRNSt12_Vector_baseINSt7__cxx1112basic_stringIcSt11char_traitsIcESaIcEEESaIS6_EE12_Vector_implEEONSt16remove_referenceIT_E4typeEOSC_:

0000000000000000 <_ZSt4moveIRNSt12_Vector_baseINSt7__cxx1112basic_stringIcSt11char_traitsIcESaIcEEESaIS6_EE12_Vector_implEEONSt16remove_referenceIT_E4typeEOSC_>:
   0:	f3 0f 1e fa          	endbr64 
   4:	55                   	push   %rbp
   5:	48 89 e5             	mov    %rsp,%rbp
   8:	48 89 7d f8          	mov    %rdi,-0x8(%rbp)
   c:	48 8b 45 f8          	mov    -0x8(%rbp),%rax
  10:	5d                   	pop    %rbp
  11:	c3                   	retq   

Disassembly of section .text._ZNSt12_Vector_baseINSt7__cxx1112basic_stringIcSt11char_traitsIcESaIcEEESaIS5_EE17_Vector_impl_dataC2EOS8_:

0000000000000000 <_ZNSt12_Vector_baseINSt7__cxx1112basic_stringIcSt11char_traitsIcESaIcEEESaIS5_EE17_Vector_impl_dataC1EOS8_>:
   0:	f3 0f 1e fa          	endbr64 
   4:	55                   	push   %rbp
   5:	48 89 e5             	mov    %rsp,%rbp
   8:	48 89 7d f8          	mov    %rdi,-0x8(%rbp)
   c:	48 89 75 f0          	mov    %rsi,-0x10(%rbp)
  10:	48 8b 45 f0          	mov    -0x10(%rbp),%rax
  14:	48 8b 10             	mov    (%rax),%rdx
  17:	48 8b 45 f8          	mov    -0x8(%rbp),%rax
  1b:	48 89 10             	mov    %rdx,(%rax)
  1e:	48 8b 45 f0          	mov    -0x10(%rbp),%rax
  22:	48 8b 50 08          	mov    0x8(%rax),%rdx
  26:	48 8b 45 f8          	mov    -0x8(%rbp),%rax
  2a:	48 89 50 08          	mov    %rdx,0x8(%rax)
  2e:	48 8b 45 f0          	mov    -0x10(%rbp),%rax
  32:	48 8b 50 10          	mov    0x10(%rax),%rdx
  36:	48 8b 45 f8          	mov    -0x8(%rbp),%rax
  3a:	48 89 50 10          	mov    %rdx,0x10(%rax)
  3e:	48 8b 45 f0          	mov    -0x10(%rbp),%rax
  42:	48 c7 40 10 00 00 00 	movq   $0x0,0x10(%rax)
  49:	00 
  4a:	48 8b 45 f0          	mov    -0x10(%rbp),%rax
  4e:	48 8b 50 10          	mov    0x10(%rax),%rdx
  52:	48 8b 45 f0          	mov    -0x10(%rbp),%rax
  56:	48 89 50 08          	mov    %rdx,0x8(%rax)
  5a:	48 8b 45 f0          	mov    -0x10(%rbp),%rax
  5e:	48 8b 50 08          	mov    0x8(%rax),%rdx
  62:	48 8b 45 f0          	mov    -0x10(%rbp),%rax
  66:	48 89 10             	mov    %rdx,(%rax)
  69:	90                   	nop
  6a:	5d                   	pop    %rbp
  6b:	c3                   	retq   
